
mcu-app.elf:     file format elf32-littleriscv
mcu-app.elf
architecture: riscv:rv32, flags 0x00000112:
EXEC_P, HAS_SYMS, D_PAGED
start address 0x00000000

Program Header:
    LOAD off    0x00001000 vaddr 0x00000000 paddr 0x00000000 align 2**12
         filesz 0x00014ee8 memsz 0x00014ee8 flags r-x
    LOAD off    0x00016000 vaddr 0x20000000 paddr 0x00014ee8 align 2**12
         filesz 0x000000b0 memsz 0x00005134 flags rw-
    LOAD off    0x00016800 vaddr 0x20007800 paddr 0x20007800 align 2**12
         filesz 0x00000000 memsz 0x00000800 flags rw-

Sections:
Idx Name          Size      VMA       LMA       File off  Algn
  0 .init         00000004  00000000  00000000  00001000  2**1
                  CONTENTS, ALLOC, LOAD, READONLY, CODE
  1 .vector       000001bc  00000004  00000004  00001004  2**1
                  CONTENTS, ALLOC, LOAD, READONLY, CODE
  2 .text         00014ce8  00000200  00000200  00001200  2**8
                  CONTENTS, ALLOC, LOAD, READONLY, CODE
  3 .fini         00000000  00014ee8  00014ee8  000160b0  2**0
                  CONTENTS, ALLOC, LOAD, CODE
  4 .dalign       00000000  20000000  20000000  000160b0  2**0
                  CONTENTS
  5 .dlalign      00000000  00014ee8  00014ee8  000160b0  2**0
                  CONTENTS
  6 .data         000000b0  20000000  00014ee8  00016000  2**2
                  CONTENTS, ALLOC, LOAD, DATA
  7 .bss          00005084  200000b0  00014f98  000160b0  2**2
                  ALLOC
  8 .stack        00000800  20007800  20007800  00016800  2**0
                  ALLOC
  9 .debug_info   00028e3c  00000000  00000000  000160b0  2**0
                  CONTENTS, READONLY, DEBUGGING
 10 .debug_abbrev 00006413  00000000  00000000  0003eeec  2**0
                  CONTENTS, READONLY, DEBUGGING
 11 .debug_loc    0001529a  00000000  00000000  000452ff  2**0
                  CONTENTS, READONLY, DEBUGGING
 12 .debug_aranges 000010e0  00000000  00000000  0005a5a0  2**3
                  CONTENTS, READONLY, DEBUGGING
 13 .debug_ranges 00001608  00000000  00000000  0005b680  2**3
                  CONTENTS, READONLY, DEBUGGING
 14 .debug_line   000293c8  00000000  00000000  0005cc88  2**0
                  CONTENTS, READONLY, DEBUGGING
 15 .debug_str    000054c4  00000000  00000000  00086050  2**0
                  CONTENTS, READONLY, DEBUGGING
 16 .comment      00000033  00000000  00000000  0008b514  2**0
                  CONTENTS, READONLY
 17 .debug_frame  000039a4  00000000  00000000  0008b548  2**2
                  CONTENTS, READONLY, DEBUGGING
 18 .stab         0000009c  00000000  00000000  0008eeec  2**2
                  CONTENTS, READONLY, DEBUGGING
 19 .stabstr      00000181  00000000  00000000  0008ef88  2**0
                  CONTENTS, READONLY, DEBUGGING
SYMBOL TABLE:
00000000 l    d  .init	00000000 .init
00000004 l    d  .vector	00000000 .vector
00000200 l    d  .text	00000000 .text
00014ee8 l    d  .fini	00000000 .fini
20000000 l    d  .dalign	00000000 .dalign
00014ee8 l    d  .dlalign	00000000 .dlalign
20000000 l    d  .data	00000000 .data
200000b0 l    d  .bss	00000000 .bss
20007800 l    d  .stack	00000000 .stack
00000000 l    d  .debug_info	00000000 .debug_info
00000000 l    d  .debug_abbrev	00000000 .debug_abbrev
00000000 l    d  .debug_loc	00000000 .debug_loc
00000000 l    d  .debug_aranges	00000000 .debug_aranges
00000000 l    d  .debug_ranges	00000000 .debug_ranges
00000000 l    d  .debug_line	00000000 .debug_line
00000000 l    d  .debug_str	00000000 .debug_str
00000000 l    d  .comment	00000000 .comment
00000000 l    d  .debug_frame	00000000 .debug_frame
00000000 l    d  .stab	00000000 .stab
00000000 l    d  .stabstr	00000000 .stabstr
00000000 l    df *ABS*	00000000 ./Startup/startup_ch32v30x_D8C.o
00000004 l       .vector	00000000 _vector_base
00000000 l    df *ABS*	00000000 ./FreeRTOS/portable/GCC/RISC-V/portASM.o
00000264 l       .text	00000000 processed_source
00000428 l       .text	00000000 chip_specific_stack_frame
00000000 l    df *ABS*	00000000 fe.c
000005ee l     F .text	00000014 load_3
00000000 l    df *ABS*	00000000 ge.c
00002906 l     F .text	000000aa slide
000029b0 l     F .text	0000002e cmov
000029de l     F .text	000000f6 select
0000d1c0 l     O .text	00007800 base
0000ce00 l     O .text	000003c0 Bi
000149c0 l     O .text	00000028 d
000149e8 l     O .text	00000028 d2
00014a10 l     O .text	00000028 sqrtm1
00000000 l    df *ABS*	00000000 keypair.c
00000000 l    df *ABS*	00000000 sc.c
000033be l     F .text	00000014 load_3
000033d2 l     F .text	00000018 load_4
00000000 l    df *ABS*	00000000 sha512.c
000070b6 l     F .text	00000c1a sha512_compress
00014a38 l     O .text	00000280 K
00000000 l    df *ABS*	00000000 sign.c
00000000 l    df *ABS*	00000000 verify.c
00000000 l    df *ABS*	00000000 ble.c
200000b8 l     O .bss	00000001 prev.6023
00000000 l    df *ABS*	00000000 button.c
00000000 l    df *ABS*	00000000 ch32v30x_it.c
00000000 l    df *ABS*	00000000 flash.c
00000000 l    df *ABS*	00000000 keyfob.c
00000000 l    df *ABS*	00000000 led.c
00000000 l    df *ABS*	00000000 main.c
200000cd l     O .bss	00000001 reason.6048
00000000 l    df *ABS*	00000000 rng.c
00000000 l    df *ABS*	00000000 rs485.c
00000000 l    df *ABS*	00000000 rtc.c
00000000 l    df *ABS*	00000000 system_ch32v30x.c
00000000 l    df *ABS*	00000000 ch32v30x_bkp.c
00000000 l    df *ABS*	00000000 ch32v30x_gpio.c
00000000 l    df *ABS*	00000000 ch32v30x_iwdg.c
00000000 l    df *ABS*	00000000 ch32v30x_misc.c
00000000 l    df *ABS*	00000000 ch32v30x_pwr.c
00000000 l    df *ABS*	00000000 ch32v30x_rcc.c
20000020 l     O .data	00000010 APBAHBPrescTable
20000094 l     O .data	00000004 ADCPrescTable
00000000 l    df *ABS*	00000000 ch32v30x_rng.c
00000000 l    df *ABS*	00000000 ch32v30x_rtc.c
00000000 l    df *ABS*	00000000 ch32v30x_spi.c
00000000 l    df *ABS*	00000000 ch32v30x_usart.c
00000000 l    df *ABS*	00000000 heap_4.c
0000a122 l     F .text	0000004c prvInsertBlockIntoFreeList
20000738 l     O .bss	00004800 ucHeap
200000dc l     O .bss	00000004 pxEnd
200000e0 l     O .bss	00000004 xBlockAllocatedBit
200000e4 l     O .bss	00000004 xFreeBytesRemaining
200000e8 l     O .bss	00000004 xMinimumEverFreeBytesRemaining
200000ec l     O .bss	00000004 xNumberOfSuccessfulAllocations
200000f0 l     O .bss	00000004 xNumberOfSuccessfulFrees
200000f4 l     O .bss	00000008 xStart
00000000 l    df *ABS*	00000000 port.c
20000098 l     O .data	00000004 uxCriticalNesting
00000000 l    df *ABS*	00000000 list.c
00000000 l    df *ABS*	00000000 queue.c
0000a57c l     F .text	0000001e prvIsQueueEmpty
0000a59a l     F .text	00000072 prvCopyDataToQueue
0000a60c l     F .text	00000028 prvCopyDataFromQueue
0000a634 l     F .text	00000076 prvUnlockQueue
00000000 l    df *ABS*	00000000 tasks.c
0000acd2 l     F .text	00000024 prvResetNextTaskUnblockTime
0000acf6 l     F .text	000000a6 prvAddCurrentTaskToDelayedList
0000ad9c l     F .text	00000052 prvIdleTask
20004f78 l     O .bss	0000012c pxReadyTasksLists
200050a4 l     O .bss	00000014 xDelayedTaskList1
200050b8 l     O .bss	00000014 xDelayedTaskList2
200050cc l     O .bss	00000014 xPendingReadyList
200050e0 l     O .bss	00000014 xSuspendedTaskList
200050f4 l     O .bss	00000014 xTasksWaitingTermination
20000100 l     O .bss	00000004 pxDelayedTaskList
20000104 l     O .bss	00000004 pxOverflowDelayedTaskList
20000108 l     O .bss	00000004 uxCurrentNumberOfTasks
2000010c l     O .bss	00000004 uxDeletedTasksWaitingCleanUp
20000110 l     O .bss	00000004 uxSchedulerSuspended
20000114 l     O .bss	00000004 uxTaskNumber
20000118 l     O .bss	00000004 uxTopReadyPriority
2000011c l     O .bss	00000004 xIdleTaskHandle
20000120 l     O .bss	00000004 xNextTaskUnblockTime
20000124 l     O .bss	00000004 xNumOfOverflows
20000128 l     O .bss	00000004 xPendedTicks
2000012c l     O .bss	00000004 xSchedulerRunning
20000130 l     O .bss	00000004 xTickCount
20000134 l     O .bss	00000004 xYieldPending
00000000 l    df *ABS*	00000000 timers.c
0000b82e l     F .text	00000066 prvCheckForValidListAndQueue
0000b894 l     F .text	00000046 prvInsertTimerInActiveList
0000b8da l     F .text	0000002a prvReloadTimer
0000b904 l     F .text	00000046 prvProcessExpiredTimer
0000b94a l     F .text	00000030 prvSwitchTimerLists
0000b97a l     F .text	00000198 prvTimerTask
20005108 l     O .bss	00000014 xActiveTimerList1
2000511c l     O .bss	00000014 xActiveTimerList2
20000138 l     O .bss	00000004 pxCurrentTimerList
2000013c l     O .bss	00000004 pxOverflowTimerList
20000140 l     O .bss	00000004 xLastTime.6326
20000144 l     O .bss	00000004 xTimerQueue
20000148 l     O .bss	00000004 xTimerTaskHandle
00000000 l    df *ABS*	00000000 fflush.c
00000000 l    df *ABS*	00000000 findfp.c
0000bd06 l     F .text	00000066 std
00000000 l    df *ABS*	00000000 fwalk.c
00000000 l    df *ABS*	00000000 makebuf.c
00000000 l    df *ABS*	00000000 memcmp.c
00000000 l    df *ABS*	00000000 memcpy.c
00000000 l    df *ABS*	00000000 nano-mallocr.c
00000000 l    df *ABS*	00000000 nano-mallocr.c
00000000 l    df *ABS*	00000000 printf.c
00000000 l    df *ABS*	00000000 sbrkr.c
00000000 l    df *ABS*	00000000 stdio.c
00000000 l    df *ABS*	00000000 strcpy.c
00000000 l    df *ABS*	00000000 strnlen.c
00000000 l    df *ABS*	00000000 writer.c
00000000 l    df *ABS*	00000000 closer.c
00000000 l    df *ABS*	00000000 fstatr.c
00000000 l    df *ABS*	00000000 isattyr.c
00000000 l    df *ABS*	00000000 lseekr.c
00000000 l    df *ABS*	00000000 mlock.c
00000000 l    df *ABS*	00000000 nano-vfprintf.c
0000c4c4 l     F .text	00000026 __sfputc_r
00000000 l    df *ABS*	00000000 nano-vfprintf_i.c
00000000 l    df *ABS*	00000000 readr.c
00000000 l    df *ABS*	00000000 wbuf.c
00000000 l    df *ABS*	00000000 wsetup.c
00000000 l    df *ABS*	00000000 memchr.c
00000000 l    df *ABS*	00000000 close.c
00000000 l    df *ABS*	00000000 fstat.c
00000000 l    df *ABS*	00000000 isatty.c
00000000 l    df *ABS*	00000000 lseek.c
00000000 l    df *ABS*	00000000 read.c
00000000 l    df *ABS*	00000000 sbrk.c
20000154 l     O .bss	00000004 heap_end.1518
00000000 l    df *ABS*	00000000 write.c
00000000 l    df *ABS*	00000000 impure.c
20000030 l     O .data	00000060 impure_data
00000000 l    df *ABS*	00000000 reent.c
00009a12  w      .text	00000000 EXTI2_IRQHandler
00009a12  w      .text	00000000 TIM8_TRG_COM_IRQHandler
00009a12  w      .text	00000000 TIM8_CC_IRQHandler
00009796 g     F .text	00000054 rtc_init
0000c458 g     F .text	00000032 _isatty_r
0000c396 g     F .text	00000010 strcpy
00008c26 g     F .text	00000078 keyfob_init
0000c48a g     F .text	00000036 _lseek_r
00009a12  w      .text	00000000 UART8_IRQHandler
20000000 g     O .data	00000010 flash_user_invalid
00008bde g     F .text	00000026 keyfob_task
0000a4c0 g     F .text	00000042 vPortExitCritical
0000c278 g     F .text	00000040 printf
20000890 g       .data	00000000 __global_pointer$
000004ee g     F .text	00000028 .hidden __riscv_save_8
200000b0 g     O .bss	00000004 ble_data_recv
00009a12  w      .text	00000000 TIM1_CC_IRQHandler
00002df4 g     F .text	0000001e ge_p2_0
00008940 g     F .text	00000038 flash_device_info_get
0000c360 g     F .text	00000030 __sseek
0000bdbc g     F .text	0000006c __sinit
0000cb94 g     F .text	000000c2 __swbuf_r
00008686 g     F .text	00000010 HardFault_Handler
0000ac76 g     F .text	0000005c vQueueWaitForMessageRestricted
00009ec4 g     F .text	00000012 RTC_EnterConfigMode
0000bd76 g     F .text	00000046 __sfmoreglue
200000cc g     O .bss	00000001 app_nonce_active
0000c4c2 g     F .text	00000002 __malloc_unlock
0000053a g     F .text	0000000c .hidden __riscv_restore_3
00009a12  w      .text	00000000 TIM6_IRQHandler
00008a9a g     F .text	0000003e flash_user_add
00002d7e g     F .text	00000034 ge_p1p1_to_p2
0000a472 g     F .text	00000038 SysTick_Handler
00009a12  w      .text	00000000 PVD_IRQHandler
00001540 g     F .text	00000066 fe_neg
00009a12  w      .text	00000000 SDIO_IRQHandler
00007f7a g     F .text	0000009a ed25519_sign
00009a12  w      .text	00000000 TIM9_BRK_IRQHandler
00000526 g     F .text	00000020 .hidden __riscv_restore_10
0000a984 g     F .text	00000128 xQueueGenericSendFromISR
00009a12  w      .text	00000000 DMA2_Channel8_IRQHandler
00008684 g     F .text	00000002 NMI_Handler
00001eac g     F .text	00000714 fe_sq2
00009a12  w      .text	00000000 CAN2_RX1_IRQHandler
00009a12  w      .text	00000000 EXTI3_IRQHandler
00008616 g     F .text	0000006e button_init
00003380 g     F .text	0000003e ed25519_create_keypair
000004ee g     F .text	00000028 .hidden __riscv_save_11
0000333a g     F .text	00000046 ge_tobytes
00009562 g     F .text	00000018 rng_init
00000602 g     F .text	0000002a fe_0
0000846a g     F .text	00000034 ble_data_byte
200000fc g     O .bss	00000004 pxCurrentTCB
00009a12  w      .text	00000000 USBHS_IRQHandler
0000835c g     F .text	0000001c ble_ctrl_simple
200000d0 g     O .bss	00000004 rs_recv
00009eee g     F .text	0000005a RTC_GetCounter
0000930e g     F .text	00000042 app_out_reply
0000a118 g     F .text	0000000a USART_GetFlagStatus
00009a12  w      .text	00000000 DMA2_Channel9_IRQHandler
0000c424 g     F .text	00000034 _fstat_r
00009a12  w      .text	00000000 TIM10_CC_IRQHandler
20005130 g     O .bss	00000004 errno
000089bc g     F .text	00000042 flash_user_count
200000b0 g       .bss	00000000 _sbss
000082de g     F .text	00000014 ble_ctrl_send_str
00000800 g       *ABS*	00000000 __stack_size
000082bc g     F .text	00000022 ble_ctrl_send_byte
00002e84 g     F .text	00000026 ge_p3_0
00002f2c g     F .text	00000046 ge_p3_tobytes
00009a12  w      .text	00000000 USBFS_IRQHandler
00008542 g     F .text	00000060 ble_init
0000b65c g     F .text	00000016 vTaskInternalSetTimeOutState
0000053a g     F .text	0000000c .hidden __riscv_restore_2
00009eb2 g     F .text	00000012 RNG_GetFlagStatus
00009e42 g     F .text	00000020 RCC_BackupResetCmd
0000a3e2 g     F .text	00000090 xPortStartScheduler
00009bd0 g     F .text	00000008 IWDG_SetReload
200006a0 g     O .bss	00000098 rs_recv_buf
0000c03c g     F .text	000000b2 memcpy
0000b4b2 g     F .text	00000048 vTaskPlaceOnEventList
00009ab6 g     F .text	0000001c BKP_WriteBackupRegister
000094c0 g     F .text	00000028 wdt_init
0000bd6c g     F .text	0000000a _cleanup_r
0000a3a4  w    F .text	0000003e vPortSetupTimerInterrupt
00008c9e g     F .text	00000020 led_set
00009a12  w      .text	00000000 EXTI0_IRQHandler
200000c4 g     O .bss	00000004 led_state
00009a12  w      .text	00000000 I2C2_EV_IRQHandler
00009a12  w      .text	00000000 TIM10_TRG_COM_IRQHandler
0000a2fc g     F .text	000000a8 vPortFree
000089fe g     F .text	00000038 flash_user_get_at
20000090 g     O .data	00000004 SystemCoreClock
20008000 g       .stack	00000000 __freertos_irq_stack_top
00008eb6 g     F .text	0000002c rtc_check_range
0000a110 g     F .text	00000008 USART_ReceiveData
00008b0a g     F .text	00000054 flash_user_block
0000cd80 g     F .text	00000010 _fstat
00008a36 g     F .text	00000064 flash_user_search
00000004 g       .init	00000000 _einit
00008ce0 g     F .text	0000002a led_time_set
00009e06 g     F .text	0000001e RCC_APB2PeriphClockCmd
000004e6 g     F .text	00000030 .hidden __riscv_save_12
00009a12  w      .text	00000000 CAN2_SCE_IRQHandler
00009a12  w      .text	00000000 ADC1_2_IRQHandler
00009774 g     F .text	00000022 rtc_set
00009aee g     F .text	000000c0 GPIO_Init
00000656 g     F .text	0000006c fe_add
00009a12  w      .text	00000000 Break_Point_Handler
00000526 g     F .text	00000020 .hidden __riscv_restore_11
200000d8 g     O .bss	00000004 NVIC_Priority_Group
00009a12  w      .text	00000000 SPI1_IRQHandler
0000a0bc g     F .text	00000016 USART_Cmd
000084e4 g     F .text	0000002a ble_status_get
0000c2b8 g     F .text	00000032 _sbrk_r
200003e0 g     O .bss	000000e1 app_out
0000306a g     F .text	00000098 ge_sub
00009a12  w      .text	00000000 TAMPER_IRQHandler
00000516 g     F .text	0000000c .hidden __riscv_save_1
00002f72 g     F .text	000000f8 ge_scalarmult_base
0000053a g     F .text	0000000c .hidden __riscv_restore_0
0000cb60 g     F .text	00000034 _read_r
0000a528 g     F .text	00000006 vListInitialiseItem
00009c1e g     F .text	00000028 RCC_LSEConfig
000004fc g     F .text	0000001a .hidden __riscv_save_7
200000d4 g     O .bss	00000004 rs_recv_byte
00009a12  w      .text	00000000 CAN2_RX0_IRQHandler
0000aaac g     F .text	0000015e xQueueReceive
00009c52 g     F .text	00000020 RCC_RTCCLKCmd
20004f38 g     O .bss	00000040 xQueueRegistry
0000a50e g     F .text	00000006 vPortClearInterruptMask
00008e5e g     F .text	00000048 app_out_generate
000007be g     F .text	00000042 fe_copy
00009388 g     F .text	0000006e app_factory_reset
200000b4 g     O .bss	00000004 ble_data_recv_byte
00009a12  w      .text	00000000 TIM8_UP_IRQHandler
00009e24 g     F .text	0000001e RCC_APB1PeriphClockCmd
00008e00 g     F .text	0000005e app_get_reset_reason
00009a12  w      .text	00000000 Ecall_M_Mode_Handler
0000838c g     F .text	00000010 ble_factory_reset
0000cd90 g     F .text	00000010 _isatty
00014d20 g     O .text	00000031 app_ver
200000a8 g     O .data	00000004 _global_impure_ptr
00007f4a g     F .text	00000030 sha512
00000530 g     F .text	00000016 .hidden __riscv_restore_5
000088dc g     F .text	00000064 flash_init
0000a022 g     F .text	0000000a SPI_I2S_GetFlagStatus
00009a12  w      .text	00000000 DMA2_Channel2_IRQHandler
00009de8 g     F .text	0000001e RCC_AHBPeriphClockCmd
00009a12  w      .text	00000000 DMA1_Channel4_IRQHandler
0000cdc0 g     F .text	00000030 _sbrk
000033ea g     F .text	000013ee sc_reduce
0000a16e g     F .text	0000018e pvPortMalloc
0000830c g     F .text	00000026 ble_set_name
200000c0 g     O .bss	00000004 keyfob_cmd
0000a514 g     F .text	00000014 vListInitialise
00009f74 g     F .text	0000002e RTC_SetPrescaler
0000a00a g     F .text	00000018 SPI_SSOutputCmd
0000880e g     F .text	00000066 flash_read
00009bd8 g     F .text	0000000e IWDG_ReloadCounter
0000c3a6 g     F .text	00000016 strnlen
00009a12  w      .text	00000000 TIM9_UP_IRQHandler
00000530 g     F .text	00000016 .hidden __riscv_restore_6
00009a12  w      .text	00000000 USART3_IRQHandler
0000b094 g     F .text	0000000a xTaskGetTickCount
0000a7dc g     F .text	000001a8 xQueueGenericSend
00009c08 g     F .text	00000016 PWR_BackupAccessCmd
00009a12  w      .text	00000000 RTC_IRQHandler
20005134 g       .bss	00000000 _ebss
00009a12  w      .text	00000000 DMA1_Channel7_IRQHandler
00009a12  w      .text	00000000 CAN1_RX1_IRQHandler
0000b764 g     F .text	000000ca xTaskPriorityDisinherit
00009a12  w      .text	00000000 DVP_IRQHandler
00009a12  w      .text	00000000 UART5_IRQHandler
00009e62 g     F .text	0000002e RCC_GetFlagStatus
00002cf2 g     F .text	0000008c ge_msub
200004c4 g     O .bss	000000f0 app_raw
2000064c g     O .bss	00000051 app_user_info
00009aa6 g     F .text	00000010 BKP_DeInit
200000c8 g     O .bss	00000004 app_expected_nonce
000082aa g     F .text	00000012 ble_ctrl_check
0000b570 g     F .text	000000ec xTaskRemoveFromEventList
00008288 g     F .text	00000022 ble_ctrl_recv_byte
00009bb8 g     F .text	00000004 GPIO_SetBits
00009a12  w      .text	00000000 TIM4_IRQHandler
00008d0a g     F .text	00000084 led_task
000004ee g     F .text	00000028 .hidden __riscv_save_9
00007d68 g     F .text	000000b2 sha512_update
00009f48 g     F .text	0000002c RTC_SetCounter
00009a12  w      .text	00000000 DMA2_Channel1_IRQHandler
00014e4c g     O .text	00000020 __sf_fake_stderr
000087a2 g     F .text	0000006c flash_prog
000004fc g     F .text	0000001a .hidden __riscv_save_4
20005134 g       .bss	00000000 end
00009a12  w      .text	00000000 I2C1_EV_IRQHandler
200000a4 g     O .data	00000004 xISRStackTop
000047d8 g     F .text	000028de sc_muladd
00009c72 g     F .text	00000176 RCC_GetClocksFreq
00009a12  w      .text	00000000 DMA1_Channel6_IRQHandler
0000c4ea g     F .text	00000042 __sfputs_r
00009e90 g     F .text	00000018 RNG_Cmd
00009a12  w      .text	00000000 UART4_IRQHandler
00009a12  w      .text	00000000 DMA2_Channel4_IRQHandler
0000cd58 g     F .text	00000018 memchr
000081c6 g     F .text	00000050 ble_data_recv_task
200002f0 g     O .bss	000000f0 app_in
0000a02c g     F .text	00000090 USART_Init
0000b672 g     F .text	000000ca xTaskCheckForTimeOut
00001c36 g     F .text	0000012a fe_invert
0000c0ee g     F .text	000000ac _free_r
00009a12  w      .text	00000000 TIM3_IRQHandler
00009a12  w      .text	00000000 RCC_IRQHandler
00000516 g     F .text	0000000c .hidden __riscv_save_3
00008724 g     F .text	0000002e flash_erase_chip
00009a12  w      .text	00000000 TIM1_TRG_COM_IRQHandler
00009a12  w      .text	00000000 DMA1_Channel1_IRQHandler
00009bc0 g     F .text	00000008 IWDG_WriteAccessCmd
00008978 g     F .text	00000044 flash_device_info_set
00000000 g       .init	00000000 _start
00009a12  w      .text	00000000 DMA2_Channel7_IRQHandler
0000b084 g     F .text	00000010 vTaskSuspendAll
20000010 g     O .data	00000010 AHBPrescTable
0000850e g     F .text	00000034 ble_status_init
0000cda0 g     F .text	00000010 _lseek
00009c46 g     F .text	0000000c RCC_RTCCLKConfig
00002e12 g     F .text	00000072 ge_p2_dbl
0000a55c g     F .text	00000020 uxListRemove
00009a12  w      .text	00000000 EXTI15_10_IRQHandler
00009be6 g     F .text	00000018 IWDG_Enable
00002b66 g     F .text	00000100 ge_frombytes_negate_vartime
0000a0d2 g     F .text	00000036 USART_ITConfig
00008f24 g     F .text	000003ea app_in_logic
0000b418 g     F .text	0000009a vTaskSwitchContext
0000b4fa g     F .text	00000076 vTaskPlaceOnEventListRestricted
00009bbc g     F .text	00000004 GPIO_ResetBits
00009a12  w      .text	00000000 TIM7_IRQHandler
0000c3f2 g     F .text	00000032 _close_r
00009a12  w      .text	00000000 CAN2_TX_IRQHandler
20000000 g       .dalign	00000000 _data_vma
00009a12  w      .text	00000000 TIM5_IRQHandler
00002eec g     F .text	00000028 ge_p3_to_p2
0000c018 g     F .text	00000024 memcmp
000085a2 g     F .text	00000016 button_get
00000800 g     F .text	00000294 fe_frombytes
200005b4 g     O .bss	00000098 app_rs_buff
0000cc56 g     F .text	00000102 __swsetup_r
00009a12  w      .text	00000000 EXTI9_5_IRQHandler
0000be28 g     F .text	000000a0 __sfp
00009350 g     F .text	00000038 app_ble_config
000004ee g     F .text	00000028 .hidden __riscv_save_10
0000c2ea g     F .text	0000002e __sread
00009a12  w      .text	00000000 ETH_WKUP_IRQHandler
00008378 g     F .text	00000014 ble_set_advert
0000c4c0 g     F .text	00000002 __malloc_lock
00000530 g     F .text	00000016 .hidden __riscv_restore_4
00000526 g     F .text	00000020 .hidden __riscv_restore_8
00008332 g     F .text	0000002a ble_set_passkey
000093f6 g     F .text	0000009e app_task
0000bca0 g     F .text	00000066 _fflush_r
000004fc g     F .text	0000001a .hidden __riscv_save_6
00009a12  w      .text	00000000 SPI2_IRQHandler
00014e6c g     O .text	00000020 __sf_fake_stdin
00007cd0 g     F .text	00000098 sha512_init
00009494 g     F .text	0000002c app_init
00000546 g     F .text	000000a8 memset
00000526 g     F .text	00000020 .hidden __riscv_restore_9
00000530 g     F .text	00000016 .hidden __riscv_restore_7
000094e8 g     F .text	0000007a main
00008cbe g     F .text	00000022 led_set_state
00009a12  w      .text	00000000 TIM10_BRK_IRQHandler
00009a12  w      .text	00000000 TIM9_CC_IRQHandler
0000a52e g     F .text	0000002e vListInsert
0000c390 g     F .text	00000006 __sclose
00009a12  w      .text	00000000 DMA2_Channel5_IRQHandler
0000bb12 g     F .text	0000005e xTimerCreateTimerTask
0000c19a g     F .text	000000de _malloc_r
00003102 g     F .text	00000238 ge_double_scalarmult_vartime
00002c66 g     F .text	0000008c ge_madd
00009a12  w      .text	00000000 DMA1_Channel5_IRQHandler
00009a12  w      .text	00000000 EXTI4_IRQHandler
0000a76e g     F .text	0000006e xQueueGenericCreate
00009a12  w      .text	00000000 USB_LP_CAN1_RX0_IRQHandler
00008c04 g     F .text	00000022 keyfob_set
00009ff0 g     F .text	0000001a SPI_Cmd
000097ea g     F .text	000000fa SystemInit
00008216 g     F .text	00000072 ble_ctrl_init
00009a12  w      .text	00000000 RNG_IRQHandler
00002f14 g     F .text	00000018 ge_p3_dbl
0000283c g     F .text	00000016 fe_isnegative
0000c278 g     F .text	00000040 iprintf
0000b24a g     F .text	00000168 xTaskResumeAll
2000009c g     O .data	00000004 uxTopUsedPriority
00009a12  w      .text	00000000 USB_HP_CAN1_TX_IRQHandler
0000a502 g     F .text	0000000c xPortSetInterruptMask
0000aff2 g     F .text	00000092 vTaskStartScheduler
00000000 g       .init	00000000 _sinit
20000248 g     O .bss	000000a8 app_dev_info
0000c3bc g     F .text	00000036 _write_r
00000300 g       .text	00000000 xPortStartFirstTask
00009a12  w      .text	00000000 DMA1_Channel3_IRQHandler
00009a12  w      .text	00000000 ETH_IRQHandler
0000c7b2 g     F .text	0000010c _printf_common
200000a0 g     O .data	00000004 _impure_ptr
00009a12  w      .text	00000000 TIM1_UP_IRQHandler
000006c2 g     F .text	000000fc fe_cmov
0000bb70 g     F .text	00000130 __sflush_r
000082f2 g     F .text	0000001a ble_ctrl_send_dat
00008ea6 g     F .text	00000010 app_out_generate_short
00009ea8 g     F .text	0000000a RNG_GetRandomNumber
000085b8 g     F .text	0000005e button_task
000015a6 g     F .text	00000690 fe_sq
00009a12  w      .text	00000000 WWDG_IRQHandler
00009a12  w      .text	00000000 USBHSWakeup_IRQHandler
00009ad2 g     F .text	0000001c BKP_ReadBackupRegister
00009a12  w      .text	00000000 DMA2_Channel11_IRQHandler
00009a12  w      .text	00000000 Ecall_U_Mode_Handler
0000b73c g     F .text	0000000c vTaskMissedYield
00009a12  w      .text	00000000 DMA2_Channel6_IRQHandler
00009a12  w      .text	00000000 TIM2_IRQHandler
00008d8e g     F .text	00000072 led_init
20008000 g       .stack	00000000 _eusrstack
00000516 g     F .text	0000000c .hidden __riscv_save_2
00000200 g       .text	00000000 SW_Handler
0000ac0a g     F .text	0000006c vQueueAddToRegistry
000086d2 g     F .text	00000022 flash_write_en
0000967c g     F .text	000000ec rs_init
0000b09e g     F .text	000001ac xTaskIncrementTick
000086f4 g     F .text	00000030 flash_is_busy
00009a12  w      .text	00000000 TIM1_BRK_IRQHandler
0000bf32 g     F .text	00000056 __swhatbuf_r
0000a108 g     F .text	00000008 USART_SendData
00009a12  w      .text	00000000 DMA2_Channel10_IRQHandler
00009a12  w      .text	00000000 EXTI1_IRQHandler
00009fa2 g     F .text	00000010 RTC_WaitForLastTask
0000263a g     F .text	00000202 fe_tobytes
000004fc g     F .text	0000001a .hidden __riscv_save_5
0000a6aa g     F .text	000000c4 xQueueGenericReset
0000cdf0 g     F .text	00000010 _write
200000b0 g       .data	00000000 _edata
00002ad4 g     F .text	00000092 ge_add
00007e1a g     F .text	00000130 sha512_final
00009a12  w      .text	00000000 RTCAlarm_IRQHandler
000095a0 g     F .text	00000056 rs_recv_task
0000adee g     F .text	00000204 xTaskCreate
00014ee8 g       .dlalign	00000000 _data_lma
00009a12  w      .text	00000000 TIM10_UP_IRQHandler
00009a12  w      .text	00000000 TIM9_TRG_COM_IRQHandler
00009a12  w      .text	00000000 UART7_IRQHandler
00000a94 g     F .text	00000aac fe_mul
000083d8 g     F .text	00000092 ble_data_init
000084ba g     F .text	0000002a USART2_IRQHandler
00009a12  w      .text	00000000 UART6_IRQHandler
0000c318 g     F .text	00000048 __swrite
0000849e g     F .text	0000001c ble_data_send
00002db2 g     F .text	00000042 ge_p1p1_to_p3
00009ed6 g     F .text	00000018 RTC_ExitConfigMode
0000c52c g     F .text	00000286 _vfiprintf_r
20000158 g     O .bss	000000f0 ble_data_rx_buf
0000bec8 g     F .text	0000006a _fwalk_reent
000098e4 g     F .text	0000012e SystemCoreClockUpdate
0000957a g     F .text	00000026 rng_get
00008874 g     F .text	00000068 flash_check_erasure
00008696 g     F .text	0000003c flash_spi
00009a12  w      .text	00000000 I2C2_ER_IRQHandler
0000b3b2 g     F .text	00000066 vTaskDelay
00009a12  w      .text	00000000 DMA1_Channel2_IRQHandler
00014e8c g     O .text	00000020 __sf_fake_stdout
00000522 g     F .text	00000024 .hidden __riscv_restore_12
00009a12  w      .text	00000000 TIM8_BRK_IRQHandler
0000b748 g     F .text	0000001c xTaskGetSchedulerState
0000cdb0 g     F .text	00000010 _read
00009a14  w      .text	00000000 handle_reset
00009bc8 g     F .text	00000008 IWDG_SetPrescaler
000095f6 g     F .text	0000005c rs_send
00009a12  w      .text	00000000 CAN1_SCE_IRQHandler
000083ac g     F .text	0000002c ble_set_serial
00009a12  w      .text	00000000 FLASH_IRQHandler
00000516 g     F .text	0000000c .hidden __riscv_save_0
00009652 g     F .text	0000002a USART1_IRQHandler
00008f04 g     F .text	00000020 app_generate_nonce
0000bf88 g     F .text	00000090 __smakebuf_r
00000400 g       .text	00000000 pxPortInitialiseStack
0000c8be g     F .text	000002a2 _printf_i
00009a12  w      .text	00000000 SPI3_IRQHandler
00008b5e g     F .text	00000080 keyfob
00002852 g     F .text	000000b4 fe_isnonzero
20000150 g     O .bss	00000004 __malloc_sbrk_start
00009a12  w      .text	00000000 I2C1_ER_IRQHandler
00009fb2 g     F .text	0000003e SPI_Init
00009bfe g     F .text	0000000a NVIC_PriorityGroupConfig
0000a4aa g     F .text	00000016 vPortEnterCritical
2000014c g     O .bss	00000004 __malloc_free_list
000025c0 g     F .text	0000007a fe_sub
0000053a g     F .text	0000000c .hidden __riscv_restore_1
00008752 g     F .text	00000050 flash_erase_sector
00001d60 g     F .text	0000014c fe_pow22523
0000c52c g     F .text	00000286 _vfprintf_r
00008ee2 g     F .text	00000022 app_check_new_name
00008ad8 g     F .text	00000032 flash_user_overwrite
00008014 g     F .text	000001b2 ed25519_verify
0000062c g     F .text	0000002a fe_1
00002eaa g     F .text	00000042 ge_p3_to_cached
00009bae g     F .text	0000000a GPIO_ReadInputDataBit
00009768 g     F .text	0000000c rtc_get
0000839c g     F .text	00000010 ble_continue
200000bc g     O .bss	00000004 button_cmd
00009a12  w      .text	00000000 USBWakeUp_IRQHandler
0000cd70 g     F .text	00000010 _close
00009a12  w      .text	00000000 DMA2_Channel3_IRQHandler



Disassembly of section .init:

00000000 <_sinit>:
   0:	2150906f          	j	9a14 <handle_reset>

Disassembly of section .vector:

00000004 <_vector_base>:
	...
   c:	8684                	lbu	s1,13(sp)
   e:	0000                	unimp
  10:	8686                	mv	a3,ra
  12:	0000                	unimp
  14:	0000                	unimp
  16:	0000                	unimp
  18:	9a12                	add	s4,s4,tp
	...
  22:	0000                	unimp
  24:	9a12                	add	s4,s4,tp
  26:	0000                	unimp
  28:	9a12                	add	s4,s4,tp
	...
  32:	0000                	unimp
  34:	a472                	sh	a2,14(s0)
  36:	0000                	unimp
  38:	0000                	unimp
  3a:	0000                	unimp
  3c:	0200                	addi	s0,sp,256
  3e:	0000                	unimp
  40:	0000                	unimp
  42:	0000                	unimp
  44:	9a12                	add	s4,s4,tp
  46:	0000                	unimp
  48:	9a12                	add	s4,s4,tp
  4a:	0000                	unimp
  4c:	9a12                	add	s4,s4,tp
  4e:	0000                	unimp
  50:	9a12                	add	s4,s4,tp
  52:	0000                	unimp
  54:	9a12                	add	s4,s4,tp
  56:	0000                	unimp
  58:	9a12                	add	s4,s4,tp
  5a:	0000                	unimp
  5c:	9a12                	add	s4,s4,tp
  5e:	0000                	unimp
  60:	9a12                	add	s4,s4,tp
  62:	0000                	unimp
  64:	9a12                	add	s4,s4,tp
  66:	0000                	unimp
  68:	9a12                	add	s4,s4,tp
  6a:	0000                	unimp
  6c:	9a12                	add	s4,s4,tp
  6e:	0000                	unimp
  70:	9a12                	add	s4,s4,tp
  72:	0000                	unimp
  74:	9a12                	add	s4,s4,tp
  76:	0000                	unimp
  78:	9a12                	add	s4,s4,tp
  7a:	0000                	unimp
  7c:	9a12                	add	s4,s4,tp
  7e:	0000                	unimp
  80:	9a12                	add	s4,s4,tp
  82:	0000                	unimp
  84:	9a12                	add	s4,s4,tp
  86:	0000                	unimp
  88:	9a12                	add	s4,s4,tp
  8a:	0000                	unimp
  8c:	9a12                	add	s4,s4,tp
  8e:	0000                	unimp
  90:	9a12                	add	s4,s4,tp
  92:	0000                	unimp
  94:	9a12                	add	s4,s4,tp
  96:	0000                	unimp
  98:	9a12                	add	s4,s4,tp
  9a:	0000                	unimp
  9c:	9a12                	add	s4,s4,tp
  9e:	0000                	unimp
  a0:	9a12                	add	s4,s4,tp
  a2:	0000                	unimp
  a4:	9a12                	add	s4,s4,tp
  a6:	0000                	unimp
  a8:	9a12                	add	s4,s4,tp
  aa:	0000                	unimp
  ac:	9a12                	add	s4,s4,tp
  ae:	0000                	unimp
  b0:	9a12                	add	s4,s4,tp
  b2:	0000                	unimp
  b4:	9a12                	add	s4,s4,tp
  b6:	0000                	unimp
  b8:	9a12                	add	s4,s4,tp
  ba:	0000                	unimp
  bc:	9a12                	add	s4,s4,tp
  be:	0000                	unimp
  c0:	9a12                	add	s4,s4,tp
  c2:	0000                	unimp
  c4:	9a12                	add	s4,s4,tp
  c6:	0000                	unimp
  c8:	9a12                	add	s4,s4,tp
  ca:	0000                	unimp
  cc:	9a12                	add	s4,s4,tp
  ce:	0000                	unimp
  d0:	9a12                	add	s4,s4,tp
  d2:	0000                	unimp
  d4:	9a12                	add	s4,s4,tp
  d6:	0000                	unimp
  d8:	9652                	add	a2,a2,s4
  da:	0000                	unimp
  dc:	84ba                	mv	s1,a4
  de:	0000                	unimp
  e0:	9a12                	add	s4,s4,tp
  e2:	0000                	unimp
  e4:	9a12                	add	s4,s4,tp
  e6:	0000                	unimp
  e8:	9a12                	add	s4,s4,tp
  ea:	0000                	unimp
  ec:	9a12                	add	s4,s4,tp
  ee:	0000                	unimp
  f0:	9a12                	add	s4,s4,tp
  f2:	0000                	unimp
  f4:	9a12                	add	s4,s4,tp
  f6:	0000                	unimp
  f8:	9a12                	add	s4,s4,tp
  fa:	0000                	unimp
  fc:	9a12                	add	s4,s4,tp
  fe:	0000                	unimp
 100:	9a12                	add	s4,s4,tp
 102:	0000                	unimp
 104:	0000                	unimp
 106:	0000                	unimp
 108:	9a12                	add	s4,s4,tp
 10a:	0000                	unimp
 10c:	9a12                	add	s4,s4,tp
 10e:	0000                	unimp
 110:	9a12                	add	s4,s4,tp
 112:	0000                	unimp
 114:	9a12                	add	s4,s4,tp
 116:	0000                	unimp
 118:	9a12                	add	s4,s4,tp
 11a:	0000                	unimp
 11c:	9a12                	add	s4,s4,tp
 11e:	0000                	unimp
 120:	9a12                	add	s4,s4,tp
 122:	0000                	unimp
 124:	9a12                	add	s4,s4,tp
 126:	0000                	unimp
 128:	9a12                	add	s4,s4,tp
 12a:	0000                	unimp
 12c:	9a12                	add	s4,s4,tp
 12e:	0000                	unimp
 130:	9a12                	add	s4,s4,tp
 132:	0000                	unimp
 134:	9a12                	add	s4,s4,tp
 136:	0000                	unimp
 138:	9a12                	add	s4,s4,tp
 13a:	0000                	unimp
 13c:	9a12                	add	s4,s4,tp
 13e:	0000                	unimp
 140:	9a12                	add	s4,s4,tp
 142:	0000                	unimp
 144:	9a12                	add	s4,s4,tp
 146:	0000                	unimp
 148:	9a12                	add	s4,s4,tp
 14a:	0000                	unimp
 14c:	9a12                	add	s4,s4,tp
 14e:	0000                	unimp
 150:	9a12                	add	s4,s4,tp
 152:	0000                	unimp
 154:	9a12                	add	s4,s4,tp
 156:	0000                	unimp
 158:	9a12                	add	s4,s4,tp
 15a:	0000                	unimp
 15c:	9a12                	add	s4,s4,tp
 15e:	0000                	unimp
 160:	9a12                	add	s4,s4,tp
 162:	0000                	unimp
 164:	9a12                	add	s4,s4,tp
 166:	0000                	unimp
 168:	9a12                	add	s4,s4,tp
 16a:	0000                	unimp
 16c:	9a12                	add	s4,s4,tp
 16e:	0000                	unimp
 170:	9a12                	add	s4,s4,tp
 172:	0000                	unimp
 174:	9a12                	add	s4,s4,tp
 176:	0000                	unimp
 178:	9a12                	add	s4,s4,tp
 17a:	0000                	unimp
 17c:	9a12                	add	s4,s4,tp
 17e:	0000                	unimp
 180:	9a12                	add	s4,s4,tp
 182:	0000                	unimp
 184:	9a12                	add	s4,s4,tp
 186:	0000                	unimp
 188:	9a12                	add	s4,s4,tp
 18a:	0000                	unimp
 18c:	9a12                	add	s4,s4,tp
 18e:	0000                	unimp
 190:	9a12                	add	s4,s4,tp
 192:	0000                	unimp
 194:	9a12                	add	s4,s4,tp
 196:	0000                	unimp
 198:	9a12                	add	s4,s4,tp
 19a:	0000                	unimp
 19c:	9a12                	add	s4,s4,tp
 19e:	0000                	unimp
 1a0:	9a12                	add	s4,s4,tp
	...

Disassembly of section .text:

00000200 <SW_Handler>:
     200:	f8810113          	addi	sp,sp,-120
     204:	c206                	sw	ra,4(sp)
     206:	c416                	sw	t0,8(sp)
     208:	c61a                	sw	t1,12(sp)
     20a:	c81e                	sw	t2,16(sp)
     20c:	ca22                	sw	s0,20(sp)
     20e:	cc26                	sw	s1,24(sp)
     210:	ce2a                	sw	a0,28(sp)
     212:	d02e                	sw	a1,32(sp)
     214:	d232                	sw	a2,36(sp)
     216:	d436                	sw	a3,40(sp)
     218:	d63a                	sw	a4,44(sp)
     21a:	d83e                	sw	a5,48(sp)
     21c:	da42                	sw	a6,52(sp)
     21e:	dc46                	sw	a7,56(sp)
     220:	de4a                	sw	s2,60(sp)
     222:	c0ce                	sw	s3,64(sp)
     224:	c2d2                	sw	s4,68(sp)
     226:	c4d6                	sw	s5,72(sp)
     228:	c6da                	sw	s6,76(sp)
     22a:	c8de                	sw	s7,80(sp)
     22c:	cae2                	sw	s8,84(sp)
     22e:	cce6                	sw	s9,88(sp)
     230:	ceea                	sw	s10,92(sp)
     232:	d0ee                	sw	s11,96(sp)
     234:	d2f2                	sw	t3,100(sp)
     236:	d4f6                	sw	t4,104(sp)
     238:	d6fa                	sw	t5,108(sp)
     23a:	d8fe                	sw	t6,112(sp)
     23c:	300022f3          	csrr	t0,mstatus
     240:	da96                	sw	t0,116(sp)
     242:	20000297          	auipc	t0,0x20000
     246:	eba2a283          	lw	t0,-326(t0) # 200000fc <pxCurrentTCB>
     24a:	0022a023          	sw	sp,0(t0)
     24e:	341025f3          	csrr	a1,mepc
     252:	c02e                	sw	a1,0(sp)
     254:	02000593          	li	a1,32
     258:	8045a073          	csrs	0x804,a1
     25c:	8141a103          	lw	sp,-2028(gp) # 200000a4 <xISRStackTop>
     260:	1b80b0ef          	jal	ra,b418 <vTaskSwitchContext>

00000264 <processed_source>:
     264:	20000317          	auipc	t1,0x20000
     268:	e9832303          	lw	t1,-360(t1) # 200000fc <pxCurrentTCB>
     26c:	00032103          	lw	sp,0(t1)
     270:	4282                	lw	t0,0(sp)
     272:	34129073          	csrw	mepc,t0
     276:	52d6                	lw	t0,116(sp)
     278:	30029073          	csrw	mstatus,t0
     27c:	4092                	lw	ra,4(sp)
     27e:	42a2                	lw	t0,8(sp)
     280:	4332                	lw	t1,12(sp)
     282:	43c2                	lw	t2,16(sp)
     284:	4452                	lw	s0,20(sp)
     286:	44e2                	lw	s1,24(sp)
     288:	4572                	lw	a0,28(sp)
     28a:	5582                	lw	a1,32(sp)
     28c:	5612                	lw	a2,36(sp)
     28e:	56a2                	lw	a3,40(sp)
     290:	5732                	lw	a4,44(sp)
     292:	57c2                	lw	a5,48(sp)
     294:	5852                	lw	a6,52(sp)
     296:	58e2                	lw	a7,56(sp)
     298:	5972                	lw	s2,60(sp)
     29a:	4986                	lw	s3,64(sp)
     29c:	4a16                	lw	s4,68(sp)
     29e:	4aa6                	lw	s5,72(sp)
     2a0:	4b36                	lw	s6,76(sp)
     2a2:	4bc6                	lw	s7,80(sp)
     2a4:	4c56                	lw	s8,84(sp)
     2a6:	4ce6                	lw	s9,88(sp)
     2a8:	4d76                	lw	s10,92(sp)
     2aa:	5d86                	lw	s11,96(sp)
     2ac:	5e16                	lw	t3,100(sp)
     2ae:	5ea6                	lw	t4,104(sp)
     2b0:	5f36                	lw	t5,108(sp)
     2b2:	5fc6                	lw	t6,112(sp)
     2b4:	07810113          	addi	sp,sp,120
     2b8:	30200073          	mret
     2bc:	00000013          	nop
     2c0:	00000013          	nop
     2c4:	00000013          	nop
     2c8:	00000013          	nop
     2cc:	00000013          	nop
     2d0:	00000013          	nop
     2d4:	00000013          	nop
     2d8:	00000013          	nop
     2dc:	00000013          	nop
     2e0:	00000013          	nop
     2e4:	00000013          	nop
     2e8:	00000013          	nop
     2ec:	00000013          	nop
     2f0:	00000013          	nop
     2f4:	00000013          	nop
     2f8:	00000013          	nop
     2fc:	00000013          	nop

00000300 <xPortStartFirstTask>:
     300:	8141a283          	lw	t0,-2028(gp) # 200000a4 <xISRStackTop>
     304:	e0028293          	addi	t0,t0,-512
     308:	34029073          	csrw	mscratch,t0
     30c:	20000117          	auipc	sp,0x20000
     310:	df012103          	lw	sp,-528(sp) # 200000fc <pxCurrentTCB>
     314:	4102                	lw	sp,0(sp)
     316:	4082                	lw	ra,0(sp)
     318:	4332                	lw	t1,12(sp)
     31a:	43c2                	lw	t2,16(sp)
     31c:	4452                	lw	s0,20(sp)
     31e:	44e2                	lw	s1,24(sp)
     320:	4572                	lw	a0,28(sp)
     322:	5582                	lw	a1,32(sp)
     324:	5612                	lw	a2,36(sp)
     326:	56a2                	lw	a3,40(sp)
     328:	5732                	lw	a4,44(sp)
     32a:	57c2                	lw	a5,48(sp)
     32c:	5852                	lw	a6,52(sp)
     32e:	58e2                	lw	a7,56(sp)
     330:	5972                	lw	s2,60(sp)
     332:	4986                	lw	s3,64(sp)
     334:	4a16                	lw	s4,68(sp)
     336:	4aa6                	lw	s5,72(sp)
     338:	4b36                	lw	s6,76(sp)
     33a:	4bc6                	lw	s7,80(sp)
     33c:	4c56                	lw	s8,84(sp)
     33e:	4ce6                	lw	s9,88(sp)
     340:	4d76                	lw	s10,92(sp)
     342:	5d86                	lw	s11,96(sp)
     344:	5e16                	lw	t3,100(sp)
     346:	5ea6                	lw	t4,104(sp)
     348:	5f36                	lw	t5,108(sp)
     34a:	5fc6                	lw	t6,112(sp)
     34c:	52d6                	lw	t0,116(sp)
     34e:	02a1                	addi	t0,t0,8
     350:	30029073          	csrw	mstatus,t0
     354:	42a2                	lw	t0,8(sp)
     356:	07810113          	addi	sp,sp,120
     35a:	8082                	ret
     35c:	00000013          	nop
     360:	00000013          	nop
     364:	00000013          	nop
     368:	00000013          	nop
     36c:	00000013          	nop
     370:	00000013          	nop
     374:	00000013          	nop
     378:	00000013          	nop
     37c:	00000013          	nop
     380:	00000013          	nop
     384:	00000013          	nop
     388:	00000013          	nop
     38c:	00000013          	nop
     390:	00000013          	nop
     394:	00000013          	nop
     398:	00000013          	nop
     39c:	00000013          	nop
     3a0:	00000013          	nop
     3a4:	00000013          	nop
     3a8:	00000013          	nop
     3ac:	00000013          	nop
     3b0:	00000013          	nop
     3b4:	00000013          	nop
     3b8:	00000013          	nop
     3bc:	00000013          	nop
     3c0:	00000013          	nop
     3c4:	00000013          	nop
     3c8:	00000013          	nop
     3cc:	00000013          	nop
     3d0:	00000013          	nop
     3d4:	00000013          	nop
     3d8:	00000013          	nop
     3dc:	00000013          	nop
     3e0:	00000013          	nop
     3e4:	00000013          	nop
     3e8:	00000013          	nop
     3ec:	00000013          	nop
     3f0:	00000013          	nop
     3f4:	00000013          	nop
     3f8:	00000013          	nop
     3fc:	00000013          	nop

00000400 <pxPortInitialiseStack>:
     400:	300022f3          	csrr	t0,mstatus
     404:	ff72f293          	andi	t0,t0,-9
     408:	78800313          	li	t1,1928
     40c:	0312                	slli	t1,t1,0x4
     40e:	0062e2b3          	or	t0,t0,t1
     412:	1571                	addi	a0,a0,-4
     414:	00552023          	sw	t0,0(a0)
     418:	fa850513          	addi	a0,a0,-88
     41c:	c110                	sw	a2,0(a0)
     41e:	1521                	addi	a0,a0,-24
     420:	00052023          	sw	zero,0(a0)
     424:	00000293          	li	t0,0

00000428 <chip_specific_stack_frame>:
     428:	00028763          	beqz	t0,436 <chip_specific_stack_frame+0xe>
     42c:	1571                	addi	a0,a0,-4
     42e:	00052023          	sw	zero,0(a0)
     432:	12fd                	addi	t0,t0,-1
     434:	bfd5                	j	428 <chip_specific_stack_frame>
     436:	1571                	addi	a0,a0,-4
     438:	c10c                	sw	a1,0(a0)
     43a:	8082                	ret
	...

000004e6 <__riscv_save_12>:
     4e6:	7139                	addi	sp,sp,-64
     4e8:	4301                	li	t1,0
     4ea:	c66e                	sw	s11,12(sp)
     4ec:	a019                	j	4f2 <__riscv_save_10+0x4>

000004ee <__riscv_save_10>:
     4ee:	7139                	addi	sp,sp,-64
     4f0:	5341                	li	t1,-16
     4f2:	c86a                	sw	s10,16(sp)
     4f4:	ca66                	sw	s9,20(sp)
     4f6:	cc62                	sw	s8,24(sp)
     4f8:	ce5e                	sw	s7,28(sp)
     4fa:	a019                	j	500 <__riscv_save_4+0x4>

000004fc <__riscv_save_4>:
     4fc:	7139                	addi	sp,sp,-64
     4fe:	5301                	li	t1,-32
     500:	d05a                	sw	s6,32(sp)
     502:	d256                	sw	s5,36(sp)
     504:	d452                	sw	s4,40(sp)
     506:	d64e                	sw	s3,44(sp)
     508:	d84a                	sw	s2,48(sp)
     50a:	da26                	sw	s1,52(sp)
     50c:	dc22                	sw	s0,56(sp)
     50e:	de06                	sw	ra,60(sp)
     510:	40610133          	sub	sp,sp,t1
     514:	8282                	jr	t0

00000516 <__riscv_save_0>:
     516:	1141                	addi	sp,sp,-16
     518:	c04a                	sw	s2,0(sp)
     51a:	c226                	sw	s1,4(sp)
     51c:	c422                	sw	s0,8(sp)
     51e:	c606                	sw	ra,12(sp)
     520:	8282                	jr	t0

00000522 <__riscv_restore_12>:
     522:	4db2                	lw	s11,12(sp)
     524:	0141                	addi	sp,sp,16

00000526 <__riscv_restore_10>:
     526:	4d02                	lw	s10,0(sp)
     528:	4c92                	lw	s9,4(sp)
     52a:	4c22                	lw	s8,8(sp)
     52c:	4bb2                	lw	s7,12(sp)
     52e:	0141                	addi	sp,sp,16

00000530 <__riscv_restore_4>:
     530:	4b02                	lw	s6,0(sp)
     532:	4a92                	lw	s5,4(sp)
     534:	4a22                	lw	s4,8(sp)
     536:	49b2                	lw	s3,12(sp)
     538:	0141                	addi	sp,sp,16

0000053a <__riscv_restore_0>:
     53a:	4902                	lw	s2,0(sp)
     53c:	4492                	lw	s1,4(sp)
     53e:	4422                	lw	s0,8(sp)
     540:	40b2                	lw	ra,12(sp)
     542:	0141                	addi	sp,sp,16
     544:	8082                	ret

00000546 <memset>:
     546:	433d                	li	t1,15
     548:	872a                	mv	a4,a0
     54a:	02c37363          	bgeu	t1,a2,570 <memset+0x2a>
     54e:	00f77793          	andi	a5,a4,15
     552:	efbd                	bnez	a5,5d0 <memset+0x8a>
     554:	e5ad                	bnez	a1,5be <memset+0x78>
     556:	ff067693          	andi	a3,a2,-16
     55a:	8a3d                	andi	a2,a2,15
     55c:	96ba                	add	a3,a3,a4
     55e:	c30c                	sw	a1,0(a4)
     560:	c34c                	sw	a1,4(a4)
     562:	c70c                	sw	a1,8(a4)
     564:	c74c                	sw	a1,12(a4)
     566:	0741                	addi	a4,a4,16
     568:	fed76be3          	bltu	a4,a3,55e <memset+0x18>
     56c:	e211                	bnez	a2,570 <memset+0x2a>
     56e:	8082                	ret
     570:	40c306b3          	sub	a3,t1,a2
     574:	068a                	slli	a3,a3,0x2
     576:	00000297          	auipc	t0,0x0
     57a:	9696                	add	a3,a3,t0
     57c:	00a68067          	jr	10(a3)
     580:	00b70723          	sb	a1,14(a4)
     584:	00b706a3          	sb	a1,13(a4)
     588:	00b70623          	sb	a1,12(a4)
     58c:	00b705a3          	sb	a1,11(a4)
     590:	00b70523          	sb	a1,10(a4)
     594:	00b704a3          	sb	a1,9(a4)
     598:	00b70423          	sb	a1,8(a4)
     59c:	00b703a3          	sb	a1,7(a4)
     5a0:	00b70323          	sb	a1,6(a4)
     5a4:	00b702a3          	sb	a1,5(a4)
     5a8:	00b70223          	sb	a1,4(a4)
     5ac:	00b701a3          	sb	a1,3(a4)
     5b0:	00b70123          	sb	a1,2(a4)
     5b4:	00b700a3          	sb	a1,1(a4)
     5b8:	00b70023          	sb	a1,0(a4)
     5bc:	8082                	ret
     5be:	0ff5f593          	andi	a1,a1,255
     5c2:	00859693          	slli	a3,a1,0x8
     5c6:	8dd5                	or	a1,a1,a3
     5c8:	01059693          	slli	a3,a1,0x10
     5cc:	8dd5                	or	a1,a1,a3
     5ce:	b761                	j	556 <memset+0x10>
     5d0:	00279693          	slli	a3,a5,0x2
     5d4:	00000297          	auipc	t0,0x0
     5d8:	9696                	add	a3,a3,t0
     5da:	8286                	mv	t0,ra
     5dc:	fa8680e7          	jalr	-88(a3)
     5e0:	8096                	mv	ra,t0
     5e2:	17c1                	addi	a5,a5,-16
     5e4:	8f1d                	sub	a4,a4,a5
     5e6:	963e                	add	a2,a2,a5
     5e8:	f8c374e3          	bgeu	t1,a2,570 <memset+0x2a>
     5ec:	b7a5                	j	554 <memset+0xe>

000005ee <load_3>:
     5ee:	311c                	lbu	a5,1(a0)
     5f0:	2138                	lbu	a4,2(a0)
     5f2:	2114                	lbu	a3,0(a0)
     5f4:	07a2                	slli	a5,a5,0x8
     5f6:	0742                	slli	a4,a4,0x10
     5f8:	8fd9                	or	a5,a5,a4
     5fa:	00d7e533          	or	a0,a5,a3
     5fe:	4581                	li	a1,0
     600:	8082                	ret

00000602 <fe_0>:
     602:	00052023          	sw	zero,0(a0)
     606:	00052223          	sw	zero,4(a0)
     60a:	00052423          	sw	zero,8(a0)
     60e:	00052623          	sw	zero,12(a0)
     612:	00052823          	sw	zero,16(a0)
     616:	00052a23          	sw	zero,20(a0)
     61a:	00052c23          	sw	zero,24(a0)
     61e:	00052e23          	sw	zero,28(a0)
     622:	02052023          	sw	zero,32(a0)
     626:	02052223          	sw	zero,36(a0)
     62a:	8082                	ret

0000062c <fe_1>:
     62c:	4785                	li	a5,1
     62e:	c11c                	sw	a5,0(a0)
     630:	00052223          	sw	zero,4(a0)
     634:	00052423          	sw	zero,8(a0)
     638:	00052623          	sw	zero,12(a0)
     63c:	00052823          	sw	zero,16(a0)
     640:	00052a23          	sw	zero,20(a0)
     644:	00052c23          	sw	zero,24(a0)
     648:	00052e23          	sw	zero,28(a0)
     64c:	02052023          	sw	zero,32(a0)
     650:	02052223          	sw	zero,36(a0)
     654:	8082                	ret

00000656 <fe_add>:
     656:	425c                	lw	a5,4(a2)
     658:	0045af03          	lw	t5,4(a1)
     65c:	0085ae83          	lw	t4,8(a1)
     660:	00c5ae03          	lw	t3,12(a1)
     664:	9f3e                	add	t5,t5,a5
     666:	461c                	lw	a5,8(a2)
     668:	0105a303          	lw	t1,16(a1)
     66c:	0145a883          	lw	a7,20(a1)
     670:	9ebe                	add	t4,t4,a5
     672:	465c                	lw	a5,12(a2)
     674:	0185a803          	lw	a6,24(a1)
     678:	4dd4                	lw	a3,28(a1)
     67a:	9e3e                	add	t3,t3,a5
     67c:	4a1c                	lw	a5,16(a2)
     67e:	5198                	lw	a4,32(a1)
     680:	02462f83          	lw	t6,36(a2)
     684:	933e                	add	t1,t1,a5
     686:	4a5c                	lw	a5,20(a2)
     688:	98be                	add	a7,a7,a5
     68a:	4e1c                	lw	a5,24(a2)
     68c:	983e                	add	a6,a6,a5
     68e:	4e5c                	lw	a5,28(a2)
     690:	96be                	add	a3,a3,a5
     692:	521c                	lw	a5,32(a2)
     694:	4210                	lw	a2,0(a2)
     696:	973e                	add	a4,a4,a5
     698:	51dc                	lw	a5,36(a1)
     69a:	418c                	lw	a1,0(a1)
     69c:	01e52223          	sw	t5,4(a0)
     6a0:	97fe                	add	a5,a5,t6
     6a2:	95b2                	add	a1,a1,a2
     6a4:	c10c                	sw	a1,0(a0)
     6a6:	01d52423          	sw	t4,8(a0)
     6aa:	01c52623          	sw	t3,12(a0)
     6ae:	00652823          	sw	t1,16(a0)
     6b2:	01152a23          	sw	a7,20(a0)
     6b6:	01052c23          	sw	a6,24(a0)
     6ba:	cd54                	sw	a3,28(a0)
     6bc:	d118                	sw	a4,32(a0)
     6be:	d15c                	sw	a5,36(a0)
     6c0:	8082                	ret

000006c2 <fe_cmov>:
     6c2:	1101                	addi	sp,sp,-32
     6c4:	0005a803          	lw	a6,0(a1)
     6c8:	41d4                	lw	a3,4(a1)
     6ca:	4598                	lw	a4,8(a1)
     6cc:	45dc                	lw	a5,12(a1)
     6ce:	00052e83          	lw	t4,0(a0)
     6d2:	00452e03          	lw	t3,4(a0)
     6d6:	00852303          	lw	t1,8(a0)
     6da:	00c52883          	lw	a7,12(a0)
     6de:	ce22                	sw	s0,28(sp)
     6e0:	c05e                	sw	s7,0(sp)
     6e2:	4980                	lw	s0,16(a1)
     6e4:	01052b83          	lw	s7,16(a0)
     6e8:	cc26                	sw	s1,24(sp)
     6ea:	ca4a                	sw	s2,20(sp)
     6ec:	c84e                	sw	s3,16(sp)
     6ee:	c652                	sw	s4,12(sp)
     6f0:	c456                	sw	s5,8(sp)
     6f2:	c25a                	sw	s6,4(sp)
     6f4:	40c00633          	neg	a2,a2
     6f8:	0145a383          	lw	t2,20(a1)
     6fc:	0185a283          	lw	t0,24(a1)
     700:	4dc4                	lw	s1,28(a1)
     702:	0205af83          	lw	t6,32(a1)
     706:	0245af03          	lw	t5,36(a1)
     70a:	01452b03          	lw	s6,20(a0)
     70e:	01852a83          	lw	s5,24(a0)
     712:	01c52a03          	lw	s4,28(a0)
     716:	02052983          	lw	s3,32(a0)
     71a:	02452903          	lw	s2,36(a0)
     71e:	010ec833          	xor	a6,t4,a6
     722:	00de46b3          	xor	a3,t3,a3
     726:	00e34733          	xor	a4,t1,a4
     72a:	00f8c7b3          	xor	a5,a7,a5
     72e:	00c87833          	and	a6,a6,a2
     732:	8ef1                	and	a3,a3,a2
     734:	8f71                	and	a4,a4,a2
     736:	8ff1                	and	a5,a5,a2
     738:	008bc433          	xor	s0,s7,s0
     73c:	8c71                	and	s0,s0,a2
     73e:	01d84eb3          	xor	t4,a6,t4
     742:	01c6ce33          	xor	t3,a3,t3
     746:	00674333          	xor	t1,a4,t1
     74a:	0117c8b3          	xor	a7,a5,a7
     74e:	01744833          	xor	a6,s0,s7
     752:	007b43b3          	xor	t2,s6,t2
     756:	005ac2b3          	xor	t0,s5,t0
     75a:	009a44b3          	xor	s1,s4,s1
     75e:	01f9cfb3          	xor	t6,s3,t6
     762:	01e94f33          	xor	t5,s2,t5
     766:	01d52023          	sw	t4,0(a0)
     76a:	01c52223          	sw	t3,4(a0)
     76e:	00652423          	sw	t1,8(a0)
     772:	01152623          	sw	a7,12(a0)
     776:	01052823          	sw	a6,16(a0)
     77a:	8cf1                	and	s1,s1,a2
     77c:	00c3f3b3          	and	t2,t2,a2
     780:	00c2f2b3          	and	t0,t0,a2
     784:	00cfffb3          	and	t6,t6,a2
     788:	4472                	lw	s0,28(sp)
     78a:	00cf7633          	and	a2,t5,a2
     78e:	0144c733          	xor	a4,s1,s4
     792:	0163c5b3          	xor	a1,t2,s6
     796:	0152c6b3          	xor	a3,t0,s5
     79a:	013fc7b3          	xor	a5,t6,s3
     79e:	01264633          	xor	a2,a2,s2
     7a2:	c94c                	sw	a1,20(a0)
     7a4:	cd14                	sw	a3,24(a0)
     7a6:	cd58                	sw	a4,28(a0)
     7a8:	d11c                	sw	a5,32(a0)
     7aa:	d150                	sw	a2,36(a0)
     7ac:	44e2                	lw	s1,24(sp)
     7ae:	4952                	lw	s2,20(sp)
     7b0:	49c2                	lw	s3,16(sp)
     7b2:	4a32                	lw	s4,12(sp)
     7b4:	4aa2                	lw	s5,8(sp)
     7b6:	4b12                	lw	s6,4(sp)
     7b8:	4b82                	lw	s7,0(sp)
     7ba:	6105                	addi	sp,sp,32
     7bc:	8082                	ret

000007be <fe_copy>:
     7be:	0005af03          	lw	t5,0(a1)
     7c2:	0045ae83          	lw	t4,4(a1)
     7c6:	0085ae03          	lw	t3,8(a1)
     7ca:	00c5a303          	lw	t1,12(a1)
     7ce:	0105a883          	lw	a7,16(a1)
     7d2:	0145a803          	lw	a6,20(a1)
     7d6:	4d90                	lw	a2,24(a1)
     7d8:	4dd4                	lw	a3,28(a1)
     7da:	5198                	lw	a4,32(a1)
     7dc:	51dc                	lw	a5,36(a1)
     7de:	01e52023          	sw	t5,0(a0)
     7e2:	01d52223          	sw	t4,4(a0)
     7e6:	01c52423          	sw	t3,8(a0)
     7ea:	00652623          	sw	t1,12(a0)
     7ee:	01152823          	sw	a7,16(a0)
     7f2:	01052a23          	sw	a6,20(a0)
     7f6:	cd10                	sw	a2,24(a0)
     7f8:	cd54                	sw	a3,28(a0)
     7fa:	d118                	sw	a4,32(a0)
     7fc:	d15c                	sw	a5,36(a0)
     7fe:	8082                	ret

00000800 <fe_frombytes>:
     800:	ce7ff2ef          	jal	t0,4e6 <__riscv_save_12>
     804:	319c                	lbu	a5,1(a1)
     806:	0005cb83          	lbu	s7,0(a1)
     80a:	31b8                	lbu	a4,3(a1)
     80c:	07a2                	slli	a5,a5,0x8
     80e:	0177e7b3          	or	a5,a5,s7
     812:	0025cb83          	lbu	s7,2(a1)
     816:	1101                	addi	sp,sp,-32
     818:	84aa                	mv	s1,a0
     81a:	0bc2                	slli	s7,s7,0x10
     81c:	0762                	slli	a4,a4,0x18
     81e:	00fbe7b3          	or	a5,s7,a5
     822:	00458513          	addi	a0,a1,4
     826:	842e                	mv	s0,a1
     828:	00f76bb3          	or	s7,a4,a5
     82c:	33c9                	jal	5ee <load_3>
     82e:	01a55793          	srli	a5,a0,0x1a
     832:	00659693          	slli	a3,a1,0x6
     836:	8edd                	or	a3,a3,a5
     838:	00651f13          	slli	t5,a0,0x6
     83c:	00740513          	addi	a0,s0,7
     840:	ce36                	sw	a3,28(sp)
     842:	c436                	sw	a3,8(sp)
     844:	cc7a                	sw	t5,24(sp)
     846:	3365                	jal	5ee <load_3>
     848:	00551893          	slli	a7,a0,0x5
     84c:	01b55793          	srli	a5,a0,0x1b
     850:	00559a93          	slli	s5,a1,0x5
     854:	00a40513          	addi	a0,s0,10
     858:	ca46                	sw	a7,20(sp)
     85a:	0157eab3          	or	s5,a5,s5
     85e:	3b41                	jal	5ee <load_3>
     860:	01d55793          	srli	a5,a0,0x1d
     864:	00359613          	slli	a2,a1,0x3
     868:	8e5d                	or	a2,a2,a5
     86a:	00351293          	slli	t0,a0,0x3
     86e:	00d40513          	addi	a0,s0,13
     872:	c832                	sw	a2,16(sp)
     874:	c432                	sw	a2,8(sp)
     876:	c616                	sw	t0,12(sp)
     878:	3b9d                	jal	5ee <load_3>
     87a:	01e55793          	srli	a5,a0,0x1e
     87e:	00259a13          	slli	s4,a1,0x2
     882:	0147ea33          	or	s4,a5,s4
     886:	381c                	lbu	a5,17(s0)
     888:	01044d03          	lbu	s10,16(s0)
     88c:	01344e03          	lbu	t3,19(s0)
     890:	07a2                	slli	a5,a5,0x8
     892:	01a7e7b3          	or	a5,a5,s10
     896:	01244d03          	lbu	s10,18(s0)
     89a:	00251813          	slli	a6,a0,0x2
     89e:	0e62                	slli	t3,t3,0x18
     8a0:	0d42                	slli	s10,s10,0x10
     8a2:	00fd67b3          	or	a5,s10,a5
     8a6:	01440513          	addi	a0,s0,20
     8aa:	00fe6d33          	or	s10,t3,a5
     8ae:	c442                	sw	a6,8(sp)
     8b0:	3b3d                	jal	5ee <load_3>
     8b2:	01955793          	srli	a5,a0,0x19
     8b6:	00751993          	slli	s3,a0,0x7
     8ba:	00759d93          	slli	s11,a1,0x7
     8be:	01740513          	addi	a0,s0,23
     8c2:	01b7edb3          	or	s11,a5,s11
     8c6:	3325                	jal	5ee <load_3>
     8c8:	00551b13          	slli	s6,a0,0x5
     8cc:	01b55793          	srli	a5,a0,0x1b
     8d0:	00559913          	slli	s2,a1,0x5
     8d4:	01a40513          	addi	a0,s0,26
     8d8:	0127e933          	or	s2,a5,s2
     8dc:	3b09                	jal	5ee <load_3>
     8de:	01c55793          	srli	a5,a0,0x1c
     8e2:	00451c93          	slli	s9,a0,0x4
     8e6:	00459c13          	slli	s8,a1,0x4
     8ea:	01d40513          	addi	a0,s0,29
     8ee:	0187ec33          	or	s8,a5,s8
     8f2:	39f5                	jal	5ee <load_3>
     8f4:	020007b7          	lui	a5,0x2000
     8f8:	ffc78713          	addi	a4,a5,-4 # 1fffffc <_data_lma+0x1feb114>
     8fc:	00251413          	slli	s0,a0,0x2
     900:	01000337          	lui	t1,0x1000
     904:	8c79                	and	s0,s0,a4
     906:	006405b3          	add	a1,s0,t1
     90a:	0085b733          	sltu	a4,a1,s0
     90e:	071e                	slli	a4,a4,0x7
     910:	0195d513          	srli	a0,a1,0x19
     914:	8d59                	or	a0,a0,a4
     916:	474d                	li	a4,19
     918:	02a70e33          	mul	t3,a4,a0
     91c:	4f62                	lw	t5,24(sp)
     91e:	fe000eb7          	lui	t4,0xfe000
     922:	46f2                	lw	a3,28(sp)
     924:	006f03b3          	add	t2,t5,t1
     928:	00bef5b3          	and	a1,t4,a1
     92c:	8c0d                	sub	s0,s0,a1
     92e:	01e3b5b3          	sltu	a1,t2,t5
     932:	95b6                	add	a1,a1,a3
     934:	48d2                	lw	a7,20(sp)
     936:	02a73533          	mulhu	a0,a4,a0
     93a:	017e0733          	add	a4,t3,s7
     93e:	01c73bb3          	sltu	s7,a4,t3
     942:	0193d693          	srli	a3,t2,0x19
     946:	42b2                	lw	t0,12(sp)
     948:	4642                	lw	a2,16(sp)
     94a:	4822                	lw	a6,8(sp)
     94c:	006b0fb3          	add	t6,s6,t1
     950:	007ef3b3          	and	t2,t4,t2
     954:	407f03b3          	sub	t2,t5,t2
     958:	9baa                	add	s7,s7,a0
     95a:	00759513          	slli	a0,a1,0x7
     95e:	8ec9                	or	a3,a3,a0
     960:	98b6                	add	a7,a7,a3
     962:	85e5                	srai	a1,a1,0x19
     964:	00d8b6b3          	sltu	a3,a7,a3
     968:	95d6                	add	a1,a1,s5
     96a:	00b68ab3          	add	s5,a3,a1
     96e:	006286b3          	add	a3,t0,t1
     972:	0056b5b3          	sltu	a1,a3,t0
     976:	95b2                	add	a1,a1,a2
     978:	00759513          	slli	a0,a1,0x7
     97c:	0196d613          	srli	a2,a3,0x19
     980:	8e49                	or	a2,a2,a0
     982:	9832                	add	a6,a6,a2
     984:	85e5                	srai	a1,a1,0x19
     986:	00c83633          	sltu	a2,a6,a2
     98a:	95d2                	add	a1,a1,s4
     98c:	00b60a33          	add	s4,a2,a1
     990:	006d05b3          	add	a1,s10,t1
     994:	00def6b3          	and	a3,t4,a3
     998:	01a5b633          	sltu	a2,a1,s10
     99c:	40d282b3          	sub	t0,t0,a3
     9a0:	061e                	slli	a2,a2,0x7
     9a2:	0195d693          	srli	a3,a1,0x19
     9a6:	00bef5b3          	and	a1,t4,a1
     9aa:	8ed1                	or	a3,a3,a2
     9ac:	40bd0e33          	sub	t3,s10,a1
     9b0:	016fb5b3          	sltu	a1,t6,s6
     9b4:	01368633          	add	a2,a3,s3
     9b8:	95ca                	add	a1,a1,s2
     9ba:	00d639b3          	sltu	s3,a2,a3
     9be:	019fd913          	srli	s2,t6,0x19
     9c2:	00759693          	slli	a3,a1,0x7
     9c6:	0126e933          	or	s2,a3,s2
     9ca:	019906b3          	add	a3,s2,s9
     9ce:	85e5                	srai	a1,a1,0x19
     9d0:	00f70f33          	add	t5,a4,a5
     9d4:	95e2                	add	a1,a1,s8
     9d6:	0126b933          	sltu	s2,a3,s2
     9da:	992e                	add	s2,s2,a1
     9dc:	01feffb3          	and	t6,t4,t6
     9e0:	00ef35b3          	sltu	a1,t5,a4
     9e4:	00f88eb3          	add	t4,a7,a5
     9e8:	9bae                	add	s7,s7,a1
     9ea:	011eb5b3          	sltu	a1,t4,a7
     9ee:	9aae                	add	s5,s5,a1
     9f0:	00f805b3          	add	a1,a6,a5
     9f4:	00f60333          	add	t1,a2,a5
     9f8:	0105b533          	sltu	a0,a1,a6
     9fc:	97b6                	add	a5,a5,a3
     9fe:	99ee                	add	s3,s3,s11
     a00:	9a2a                	add	s4,s4,a0
     a02:	00c33533          	sltu	a0,t1,a2
     a06:	41fb0fb3          	sub	t6,s6,t6
     a0a:	99aa                	add	s3,s3,a0
     a0c:	fc000b37          	lui	s6,0xfc000
     a10:	00d7b533          	sltu	a0,a5,a3
     a14:	992a                	add	s2,s2,a0
     a16:	01eb7533          	and	a0,s6,t5
     a1a:	8f09                	sub	a4,a4,a0
     a1c:	01db7533          	and	a0,s6,t4
     a20:	40a888b3          	sub	a7,a7,a0
     a24:	00bb7533          	and	a0,s6,a1
     a28:	c098                	sw	a4,0(s1)
     a2a:	0114a423          	sw	a7,8(s1)
     a2e:	40a80833          	sub	a6,a6,a0
     a32:	0b9a                	slli	s7,s7,0x6
     a34:	006b7533          	and	a0,s6,t1
     a38:	0a9a                	slli	s5,s5,0x6
     a3a:	01aed893          	srli	a7,t4,0x1a
     a3e:	0a1a                	slli	s4,s4,0x6
     a40:	099a                	slli	s3,s3,0x6
     a42:	01a35713          	srli	a4,t1,0x1a
     a46:	00fb7b33          	and	s6,s6,a5
     a4a:	091a                	slli	s2,s2,0x6
     a4c:	01af5f13          	srli	t5,t5,0x1a
     a50:	81e9                	srli	a1,a1,0x1a
     a52:	83e9                	srli	a5,a5,0x1a
     a54:	01ebef33          	or	t5,s7,t5
     a58:	011ae8b3          	or	a7,s5,a7
     a5c:	00ba65b3          	or	a1,s4,a1
     a60:	00e9e733          	or	a4,s3,a4
     a64:	00f967b3          	or	a5,s2,a5
     a68:	9f1e                	add	t5,t5,t2
     a6a:	9896                	add	a7,a7,t0
     a6c:	95f2                	add	a1,a1,t3
     a6e:	8e09                	sub	a2,a2,a0
     a70:	977e                	add	a4,a4,t6
     a72:	41668b33          	sub	s6,a3,s6
     a76:	97a2                	add	a5,a5,s0
     a78:	01e4a223          	sw	t5,4(s1)
     a7c:	0114a623          	sw	a7,12(s1)
     a80:	0104a823          	sw	a6,16(s1)
     a84:	c8cc                	sw	a1,20(s1)
     a86:	cc90                	sw	a2,24(s1)
     a88:	ccd8                	sw	a4,28(s1)
     a8a:	0364a023          	sw	s6,32(s1)
     a8e:	d0dc                	sw	a5,36(s1)
     a90:	6105                	addi	sp,sp,32
     a92:	bc41                	j	522 <__riscv_restore_12>

00000a94 <fe_mul>:
     a94:	45d8                	lw	a4,12(a1)
     a96:	7175                	addi	sp,sp,-144
     a98:	0205a303          	lw	t1,32(a1)
     a9c:	c03a                	sw	a4,0(sp)
     a9e:	49d8                	lw	a4,20(a1)
     aa0:	419c                	lw	a5,0(a1)
     aa2:	0085a883          	lw	a7,8(a1)
     aa6:	c23a                	sw	a4,4(sp)
     aa8:	4dd8                	lw	a4,28(a1)
     aaa:	4994                	lw	a3,16(a1)
     aac:	0185ae83          	lw	t4,24(a1)
     ab0:	c43a                	sw	a4,8(sp)
     ab2:	51d8                	lw	a4,36(a1)
     ab4:	c722                	sw	s0,140(sp)
     ab6:	c526                	sw	s1,136(sp)
     ab8:	c34a                	sw	s2,132(sp)
     aba:	4604                	lw	s1,8(a2)
     abc:	c14e                	sw	s3,128(sp)
     abe:	ded2                	sw	s4,124(sp)
     ac0:	dcd6                	sw	s5,120(sp)
     ac2:	dada                	sw	s6,116(sp)
     ac4:	00c62a83          	lw	s5,12(a2)
     ac8:	d8de                	sw	s7,112(sp)
     aca:	d6e2                	sw	s8,108(sp)
     acc:	d4e6                	sw	s9,104(sp)
     ace:	d2ea                	sw	s10,100(sp)
     ad0:	d0ee                	sw	s11,96(sp)
     ad2:	01062b03          	lw	s6,16(a2)
     ad6:	0045ab83          	lw	s7,4(a1)
     ada:	c63a                	sw	a4,12(sp)
     adc:	424c                	lw	a1,4(a2)
     ade:	4218                	lw	a4,0(a2)
     ae0:	d02a                	sw	a0,32(sp)
     ae2:	4a48                	lw	a0,20(a2)
     ae4:	4e12                	lw	t3,4(sp)
     ae6:	001b9c13          	slli	s8,s7,0x1
     aea:	c82a                	sw	a0,16(sp)
     aec:	4e08                	lw	a0,24(a2)
     aee:	0e06                	slli	t3,t3,0x1
     af0:	ca72                	sw	t3,20(sp)
     af2:	d22a                	sw	a0,36(sp)
     af4:	4e48                	lw	a0,28(a2)
     af6:	4e22                	lw	t3,8(sp)
     af8:	02e79a33          	mulh	s4,a5,a4
     afc:	d42a                	sw	a0,40(sp)
     afe:	5208                	lw	a0,32(a2)
     b00:	5250                	lw	a2,36(a2)
     b02:	0e06                	slli	t3,t3,0x1
     b04:	d62a                	sw	a0,44(sp)
     b06:	da32                	sw	a2,52(sp)
     b08:	5452                	lw	s0,52(sp)
     b0a:	464d                	li	a2,19
     b0c:	4542                	lw	a0,16(sp)
     b0e:	02c402b3          	mul	t0,s0,a2
     b12:	cc72                	sw	t3,24(sp)
     b14:	4e32                	lw	t3,12(sp)
     b16:	4402                	lw	s0,0(sp)
     b18:	0e06                	slli	t3,t3,0x1
     b1a:	ce72                	sw	t3,28(sp)
     b1c:	0406                	slli	s0,s0,0x1
     b1e:	02c50933          	mul	s2,a0,a2
     b22:	5512                	lw	a0,36(sp)
     b24:	02c503b3          	mul	t2,a0,a2
     b28:	5522                	lw	a0,40(sp)
     b2a:	02c50833          	mul	a6,a0,a2
     b2e:	5532                	lw	a0,44(sp)
     b30:	02e78e33          	mul	t3,a5,a4
     b34:	025c0f33          	mul	t5,s8,t0
     b38:	025c1db3          	mulh	s11,s8,t0
     b3c:	9f72                	add	t5,t5,t3
     b3e:	01cf3e33          	sltu	t3,t5,t3
     b42:	02c50533          	mul	a0,a0,a2
     b46:	01ba09b3          	add	s3,s4,s11
     b4a:	99f2                	add	s3,s3,t3
     b4c:	02a88e33          	mul	t3,a7,a0
     b50:	02a89a33          	mulh	s4,a7,a0
     b54:	9e7a                	add	t3,t3,t5
     b56:	01ee3f33          	sltu	t5,t3,t5
     b5a:	99d2                	add	s3,s3,s4
     b5c:	9f4e                	add	t5,t5,s3
     b5e:	030409b3          	mul	s3,s0,a6
     b62:	03041a33          	mulh	s4,s0,a6
     b66:	99f2                	add	s3,s3,t3
     b68:	01c9be33          	sltu	t3,s3,t3
     b6c:	9f52                	add	t5,t5,s4
     b6e:	9e7a                	add	t3,t3,t5
     b70:	02768f33          	mul	t5,a3,t2
     b74:	02769a33          	mulh	s4,a3,t2
     b78:	9f4e                	add	t5,t5,s3
     b7a:	013f39b3          	sltu	s3,t5,s3
     b7e:	9e52                	add	t3,t3,s4
     b80:	99f2                	add	s3,s3,t3
     b82:	4e52                	lw	t3,20(sp)
     b84:	4a52                	lw	s4,20(sp)
     b86:	02cb0cb3          	mul	s9,s6,a2
     b8a:	032e0e33          	mul	t3,t3,s2
     b8e:	032a1a33          	mulh	s4,s4,s2
     b92:	9e7a                	add	t3,t3,t5
     b94:	01ee3f33          	sltu	t5,t3,t5
     b98:	99d2                	add	s3,s3,s4
     b9a:	039e8a33          	mul	s4,t4,s9
     b9e:	013f0db3          	add	s11,t5,s3
     ba2:	039e9f33          	mulh	t5,t4,s9
     ba6:	9a72                	add	s4,s4,t3
     ba8:	01ca3e33          	sltu	t3,s4,t3
     bac:	02ca8d33          	mul	s10,s5,a2
     bb0:	9f6e                	add	t5,t5,s11
     bb2:	01ee09b3          	add	s3,t3,t5
     bb6:	4f62                	lw	t5,24(sp)
     bb8:	4e62                	lw	t3,24(sp)
     bba:	02c48fb3          	mul	t6,s1,a2
     bbe:	03af1db3          	mulh	s11,t5,s10
     bc2:	03ae0e33          	mul	t3,t3,s10
     bc6:	01b98f33          	add	t5,s3,s11
     bca:	03f309b3          	mul	s3,t1,t6
     bce:	9e52                	add	t3,t3,s4
     bd0:	014e3a33          	sltu	s4,t3,s4
     bd4:	9f52                	add	t5,t5,s4
     bd6:	4a72                	lw	s4,28(sp)
     bd8:	03f31db3          	mulh	s11,t1,t6
     bdc:	99f2                	add	s3,s3,t3
     bde:	01c9be33          	sltu	t3,s3,t3
     be2:	9f6e                	add	t5,t5,s11
     be4:	9e7a                	add	t3,t3,t5
     be6:	02c58f33          	mul	t5,a1,a2
     bea:	4df2                	lw	s11,28(sp)
     bec:	034f0a33          	mul	s4,t5,s4
     bf0:	03bf1f33          	mulh	t5,t5,s11
     bf4:	9a4e                	add	s4,s4,s3
     bf6:	013a39b3          	sltu	s3,s4,s3
     bfa:	d852                	sw	s4,48(sp)
     bfc:	9f72                	add	t5,t5,t3
     bfe:	01e98e33          	add	t3,s3,t5
     c02:	dc72                	sw	t3,56(sp)
     c04:	02b78f33          	mul	t5,a5,a1
     c08:	03770e33          	mul	t3,a4,s7
     c0c:	02b79a33          	mulh	s4,a5,a1
     c10:	9e7a                	add	t3,t3,t5
     c12:	01ee3f33          	sltu	t5,t3,t5
     c16:	03771db3          	mulh	s11,a4,s7
     c1a:	01ba09b3          	add	s3,s4,s11
     c1e:	99fa                	add	s3,s3,t5
     c20:	03128f33          	mul	t5,t0,a7
     c24:	03129a33          	mulh	s4,t0,a7
     c28:	9f72                	add	t5,t5,t3
     c2a:	01cf3e33          	sltu	t3,t5,t3
     c2e:	99d2                	add	s3,s3,s4
     c30:	9e4e                	add	t3,t3,s3
     c32:	4982                	lw	s3,0(sp)
     c34:	4a02                	lw	s4,0(sp)
     c36:	033509b3          	mul	s3,a0,s3
     c3a:	03451a33          	mulh	s4,a0,s4
     c3e:	99fa                	add	s3,s3,t5
     c40:	01e9bf33          	sltu	t5,s3,t5
     c44:	9e52                	add	t3,t3,s4
     c46:	02d80a33          	mul	s4,a6,a3
     c4a:	9e7a                	add	t3,t3,t5
     c4c:	02d81f33          	mulh	t5,a6,a3
     c50:	9a4e                	add	s4,s4,s3
     c52:	013a39b3          	sltu	s3,s4,s3
     c56:	9e7a                	add	t3,t3,t5
     c58:	99f2                	add	s3,s3,t3
     c5a:	4e12                	lw	t3,4(sp)
     c5c:	03c38f33          	mul	t5,t2,t3
     c60:	03c39db3          	mulh	s11,t2,t3
     c64:	9f52                	add	t5,t5,s4
     c66:	014f3a33          	sltu	s4,t5,s4
     c6a:	99ee                	add	s3,s3,s11
     c6c:	03d90e33          	mul	t3,s2,t4
     c70:	9a4e                	add	s4,s4,s3
     c72:	03d919b3          	mulh	s3,s2,t4
     c76:	9e7a                	add	t3,t3,t5
     c78:	01ee3f33          	sltu	t5,t3,t5
     c7c:	9a4e                	add	s4,s4,s3
     c7e:	49a2                	lw	s3,8(sp)
     c80:	9f52                	add	t5,t5,s4
     c82:	4a22                	lw	s4,8(sp)
     c84:	033c89b3          	mul	s3,s9,s3
     c88:	034c9a33          	mulh	s4,s9,s4
     c8c:	99f2                	add	s3,s3,t3
     c8e:	01c9be33          	sltu	t3,s3,t3
     c92:	9f52                	add	t5,t5,s4
     c94:	9e7a                	add	t3,t3,t5
     c96:	026d0f33          	mul	t5,s10,t1
     c9a:	026d1a33          	mulh	s4,s10,t1
     c9e:	9f4e                	add	t5,t5,s3
     ca0:	013f39b3          	sltu	s3,t5,s3
     ca4:	9e52                	add	t3,t3,s4
     ca6:	99f2                	add	s3,s3,t3
     ca8:	4e32                	lw	t3,12(sp)
     caa:	03859a33          	mulh	s4,a1,s8
     cae:	03cf8db3          	mul	s11,t6,t3
     cb2:	03cf9fb3          	mulh	t6,t6,t3
     cb6:	9dfa                	add	s11,s11,t5
     cb8:	01edbf33          	sltu	t5,s11,t5
     cbc:	99fe                	add	s3,s3,t6
     cbe:	013f0e33          	add	t3,t5,s3
     cc2:	02978fb3          	mul	t6,a5,s1
     cc6:	c4f2                	sw	t3,72(sp)
     cc8:	03858f33          	mul	t5,a1,s8
     ccc:	029799b3          	mulh	s3,a5,s1
     cd0:	9f7e                	add	t5,t5,t6
     cd2:	01ff3fb3          	sltu	t6,t5,t6
     cd6:	01498e33          	add	t3,s3,s4
     cda:	031709b3          	mul	s3,a4,a7
     cde:	9e7e                	add	t3,t3,t6
     ce0:	03171fb3          	mulh	t6,a4,a7
     ce4:	99fa                	add	s3,s3,t5
     ce6:	01e9bf33          	sltu	t5,s3,t5
     cea:	02828a33          	mul	s4,t0,s0
     cee:	9e7e                	add	t3,t3,t6
     cf0:	9e7a                	add	t3,t3,t5
     cf2:	02829f33          	mulh	t5,t0,s0
     cf6:	9a4e                	add	s4,s4,s3
     cf8:	013a39b3          	sltu	s3,s4,s3
     cfc:	02d50fb3          	mul	t6,a0,a3
     d00:	9e7a                	add	t3,t3,t5
     d02:	9e4e                	add	t3,t3,s3
     d04:	02d519b3          	mulh	s3,a0,a3
     d08:	9fd2                	add	t6,t6,s4
     d0a:	014fba33          	sltu	s4,t6,s4
     d0e:	9e4e                	add	t3,t3,s3
     d10:	9a72                	add	s4,s4,t3
     d12:	4e52                	lw	t3,20(sp)
     d14:	03c819b3          	mulh	s3,a6,t3
     d18:	03c80f33          	mul	t5,a6,t3
     d1c:	9a4e                	add	s4,s4,s3
     d1e:	03d38e33          	mul	t3,t2,t4
     d22:	9f7e                	add	t5,t5,t6
     d24:	01ff3fb3          	sltu	t6,t5,t6
     d28:	9fd2                	add	t6,t6,s4
     d2a:	03d399b3          	mulh	s3,t2,t4
     d2e:	9e7a                	add	t3,t3,t5
     d30:	01ee3f33          	sltu	t5,t3,t5
     d34:	9fce                	add	t6,t6,s3
     d36:	9f7e                	add	t5,t5,t6
     d38:	4fe2                	lw	t6,24(sp)
     d3a:	03749a33          	mulh	s4,s1,s7
     d3e:	03f909b3          	mul	s3,s2,t6
     d42:	03f91fb3          	mulh	t6,s2,t6
     d46:	99f2                	add	s3,s3,t3
     d48:	01c9be33          	sltu	t3,s3,t3
     d4c:	9f7e                	add	t5,t5,t6
     d4e:	9e7a                	add	t3,t3,t5
     d50:	026c8f33          	mul	t5,s9,t1
     d54:	026c9fb3          	mulh	t6,s9,t1
     d58:	9f4e                	add	t5,t5,s3
     d5a:	013f39b3          	sltu	s3,t5,s3
     d5e:	9e7e                	add	t3,t3,t6
     d60:	99f2                	add	s3,s3,t3
     d62:	4e72                	lw	t3,28(sp)
     d64:	03cd0fb3          	mul	t6,s10,t3
     d68:	03cd1d33          	mulh	s10,s10,t3
     d6c:	01ff0e33          	add	t3,t5,t6
     d70:	01ee3f33          	sltu	t5,t3,t5
     d74:	c0f2                	sw	t3,64(sp)
     d76:	99ea                	add	s3,s3,s10
     d78:	013f0e33          	add	t3,t5,s3
     d7c:	03578fb3          	mul	t6,a5,s5
     d80:	c6f2                	sw	t3,76(sp)
     d82:	03748f33          	mul	t5,s1,s7
     d86:	035799b3          	mulh	s3,a5,s5
     d8a:	9f7e                	add	t5,t5,t6
     d8c:	01ff3fb3          	sltu	t6,t5,t6
     d90:	01498e33          	add	t3,s3,s4
     d94:	031589b3          	mul	s3,a1,a7
     d98:	9e7e                	add	t3,t3,t6
     d9a:	03159fb3          	mulh	t6,a1,a7
     d9e:	99fa                	add	s3,s3,t5
     da0:	01e9bf33          	sltu	t5,s3,t5
     da4:	9e7e                	add	t3,t3,t6
     da6:	9e7a                	add	t3,t3,t5
     da8:	4f02                	lw	t5,0(sp)
     daa:	02d28fb3          	mul	t6,t0,a3
     dae:	03e70a33          	mul	s4,a4,t5
     db2:	03e71f33          	mulh	t5,a4,t5
     db6:	9a4e                	add	s4,s4,s3
     db8:	013a39b3          	sltu	s3,s4,s3
     dbc:	9fd2                	add	t6,t6,s4
     dbe:	014fba33          	sltu	s4,t6,s4
     dc2:	9e7a                	add	t3,t3,t5
     dc4:	9e4e                	add	t3,t3,s3
     dc6:	02d299b3          	mulh	s3,t0,a3
     dca:	9e4e                	add	t3,t3,s3
     dcc:	9a72                	add	s4,s4,t3
     dce:	4e12                	lw	t3,4(sp)
     dd0:	03c519b3          	mulh	s3,a0,t3
     dd4:	03c50f33          	mul	t5,a0,t3
     dd8:	9a4e                	add	s4,s4,s3
     dda:	03d80e33          	mul	t3,a6,t4
     dde:	9f7e                	add	t5,t5,t6
     de0:	01ff3fb3          	sltu	t6,t5,t6
     de4:	9fd2                	add	t6,t6,s4
     de6:	03d819b3          	mulh	s3,a6,t4
     dea:	9e7a                	add	t3,t3,t5
     dec:	01ee3f33          	sltu	t5,t3,t5
     df0:	9fce                	add	t6,t6,s3
     df2:	9f7e                	add	t5,t5,t6
     df4:	4fa2                	lw	t6,8(sp)
     df6:	038a9a33          	mulh	s4,s5,s8
     dfa:	03f389b3          	mul	s3,t2,t6
     dfe:	03f39fb3          	mulh	t6,t2,t6
     e02:	99f2                	add	s3,s3,t3
     e04:	01c9be33          	sltu	t3,s3,t3
     e08:	9f7e                	add	t5,t5,t6
     e0a:	02690fb3          	mul	t6,s2,t1
     e0e:	9e7a                	add	t3,t3,t5
     e10:	02691f33          	mulh	t5,s2,t1
     e14:	9fce                	add	t6,t6,s3
     e16:	013fb9b3          	sltu	s3,t6,s3
     e1a:	9e7a                	add	t3,t3,t5
     e1c:	99f2                	add	s3,s3,t3
     e1e:	4e32                	lw	t3,12(sp)
     e20:	03cc8f33          	mul	t5,s9,t3
     e24:	03cc9cb3          	mulh	s9,s9,t3
     e28:	01ef8e33          	add	t3,t6,t5
     e2c:	01fe3fb3          	sltu	t6,t3,t6
     e30:	c2f2                	sw	t3,68(sp)
     e32:	99e6                	add	s3,s3,s9
     e34:	013f8e33          	add	t3,t6,s3
     e38:	038a8f33          	mul	t5,s5,s8
     e3c:	c8f2                	sw	t3,80(sp)
     e3e:	03678fb3          	mul	t6,a5,s6
     e42:	036799b3          	mulh	s3,a5,s6
     e46:	9f7e                	add	t5,t5,t6
     e48:	01ff3fb3          	sltu	t6,t5,t6
     e4c:	01498e33          	add	t3,s3,s4
     e50:	031489b3          	mul	s3,s1,a7
     e54:	9e7e                	add	t3,t3,t6
     e56:	03149fb3          	mulh	t6,s1,a7
     e5a:	99fa                	add	s3,s3,t5
     e5c:	01e9bf33          	sltu	t5,s3,t5
     e60:	02858a33          	mul	s4,a1,s0
     e64:	9e7e                	add	t3,t3,t6
     e66:	9e7a                	add	t3,t3,t5
     e68:	02859f33          	mulh	t5,a1,s0
     e6c:	9a4e                	add	s4,s4,s3
     e6e:	013a39b3          	sltu	s3,s4,s3
     e72:	02d70fb3          	mul	t6,a4,a3
     e76:	9e7a                	add	t3,t3,t5
     e78:	9e4e                	add	t3,t3,s3
     e7a:	02d719b3          	mulh	s3,a4,a3
     e7e:	9fd2                	add	t6,t6,s4
     e80:	014fba33          	sltu	s4,t6,s4
     e84:	9e4e                	add	t3,t3,s3
     e86:	9a72                	add	s4,s4,t3
     e88:	4e52                	lw	t3,20(sp)
     e8a:	03c299b3          	mulh	s3,t0,t3
     e8e:	03c28f33          	mul	t5,t0,t3
     e92:	9a4e                	add	s4,s4,s3
     e94:	03d50e33          	mul	t3,a0,t4
     e98:	9f7e                	add	t5,t5,t6
     e9a:	01ff3fb3          	sltu	t6,t5,t6
     e9e:	9fd2                	add	t6,t6,s4
     ea0:	03d519b3          	mulh	s3,a0,t4
     ea4:	9e7a                	add	t3,t3,t5
     ea6:	01ee3f33          	sltu	t5,t3,t5
     eaa:	9fce                	add	t6,t6,s3
     eac:	9f7e                	add	t5,t5,t6
     eae:	4fe2                	lw	t6,24(sp)
     eb0:	03f809b3          	mul	s3,a6,t6
     eb4:	03f81fb3          	mulh	t6,a6,t6
     eb8:	99f2                	add	s3,s3,t3
     eba:	01c9be33          	sltu	t3,s3,t3
     ebe:	9f7e                	add	t5,t5,t6
     ec0:	9e7a                	add	t3,t3,t5
     ec2:	02638f33          	mul	t5,t2,t1
     ec6:	02639fb3          	mulh	t6,t2,t1
     eca:	9f4e                	add	t5,t5,s3
     ecc:	013f39b3          	sltu	s3,t5,s3
     ed0:	9e7e                	add	t3,t3,t6
     ed2:	99f2                	add	s3,s3,t3
     ed4:	4e72                	lw	t3,28(sp)
     ed6:	03c90a33          	mul	s4,s2,t3
     eda:	03c91933          	mulh	s2,s2,t3
     ede:	014f0cb3          	add	s9,t5,s4
     ee2:	01ecbf33          	sltu	t5,s9,t5
     ee6:	99ca                	add	s3,s3,s2
     ee8:	013f0e33          	add	t3,t5,s3
     eec:	de72                	sw	t3,60(sp)
     eee:	4e42                	lw	t3,16(sp)
     ef0:	037b0f33          	mul	t5,s6,s7
     ef4:	03c78fb3          	mul	t6,a5,t3
     ef8:	037b19b3          	mulh	s3,s6,s7
     efc:	9f7e                	add	t5,t5,t6
     efe:	01ff3fb3          	sltu	t6,t5,t6
     f02:	03c79933          	mulh	s2,a5,t3
     f06:	01390e33          	add	t3,s2,s3
     f0a:	031a8933          	mul	s2,s5,a7
     f0e:	9e7e                	add	t3,t3,t6
     f10:	031a9fb3          	mulh	t6,s5,a7
     f14:	997a                	add	s2,s2,t5
     f16:	01e93f33          	sltu	t5,s2,t5
     f1a:	9e7e                	add	t3,t3,t6
     f1c:	9e7a                	add	t3,t3,t5
     f1e:	4f02                	lw	t5,0(sp)
     f20:	02d58fb3          	mul	t6,a1,a3
     f24:	03e489b3          	mul	s3,s1,t5
     f28:	03e49f33          	mulh	t5,s1,t5
     f2c:	99ca                	add	s3,s3,s2
     f2e:	0129b933          	sltu	s2,s3,s2
     f32:	9fce                	add	t6,t6,s3
     f34:	013fb9b3          	sltu	s3,t6,s3
     f38:	9e7a                	add	t3,t3,t5
     f3a:	9e4a                	add	t3,t3,s2
     f3c:	02d59933          	mulh	s2,a1,a3
     f40:	9e4a                	add	t3,t3,s2
     f42:	99f2                	add	s3,s3,t3
     f44:	4e12                	lw	t3,4(sp)
     f46:	03c71933          	mulh	s2,a4,t3
     f4a:	03c70f33          	mul	t5,a4,t3
     f4e:	99ca                	add	s3,s3,s2
     f50:	03d28e33          	mul	t3,t0,t4
     f54:	9f7e                	add	t5,t5,t6
     f56:	01ff3fb3          	sltu	t6,t5,t6
     f5a:	9fce                	add	t6,t6,s3
     f5c:	03d29933          	mulh	s2,t0,t4
     f60:	9e7a                	add	t3,t3,t5
     f62:	01ee3f33          	sltu	t5,t3,t5
     f66:	9fca                	add	t6,t6,s2
     f68:	9f7e                	add	t5,t5,t6
     f6a:	4fa2                	lw	t6,8(sp)
     f6c:	03f50933          	mul	s2,a0,t6
     f70:	03f51fb3          	mulh	t6,a0,t6
     f74:	9972                	add	s2,s2,t3
     f76:	01c93e33          	sltu	t3,s2,t3
     f7a:	9f7e                	add	t5,t5,t6
     f7c:	9e7a                	add	t3,t3,t5
     f7e:	02680f33          	mul	t5,a6,t1
     f82:	02681fb3          	mulh	t6,a6,t1
     f86:	9f4a                	add	t5,t5,s2
     f88:	012f3933          	sltu	s2,t5,s2
     f8c:	9e7e                	add	t3,t3,t6
     f8e:	9972                	add	s2,s2,t3
     f90:	4e32                	lw	t3,12(sp)
     f92:	03c389b3          	mul	s3,t2,t3
     f96:	03c393b3          	mulh	t2,t2,t3
     f9a:	99fa                	add	s3,s3,t5
     f9c:	01e9bf33          	sltu	t5,s3,t5
     fa0:	991e                	add	s2,s2,t2
     fa2:	012f0e33          	add	t3,t5,s2
     fa6:	caf2                	sw	t3,84(sp)
     fa8:	5e12                	lw	t3,36(sp)
     faa:	03c78fb3          	mul	t6,a5,t3
     fae:	03c793b3          	mulh	t2,a5,t3
     fb2:	4e42                	lw	t3,16(sp)
     fb4:	038e0f33          	mul	t5,t3,s8
     fb8:	038e1933          	mulh	s2,t3,s8
     fbc:	9f7e                	add	t5,t5,t6
     fbe:	01ff3fb3          	sltu	t6,t5,t6
     fc2:	01238e33          	add	t3,t2,s2
     fc6:	031b03b3          	mul	t2,s6,a7
     fca:	9e7e                	add	t3,t3,t6
     fcc:	031b1fb3          	mulh	t6,s6,a7
     fd0:	93fa                	add	t2,t2,t5
     fd2:	01e3bf33          	sltu	t5,t2,t5
     fd6:	028a8933          	mul	s2,s5,s0
     fda:	9e7e                	add	t3,t3,t6
     fdc:	9e7a                	add	t3,t3,t5
     fde:	028a9f33          	mulh	t5,s5,s0
     fe2:	991e                	add	s2,s2,t2
     fe4:	007933b3          	sltu	t2,s2,t2
     fe8:	02d48fb3          	mul	t6,s1,a3
     fec:	9e7a                	add	t3,t3,t5
     fee:	9e1e                	add	t3,t3,t2
     ff0:	02d493b3          	mulh	t2,s1,a3
     ff4:	9fca                	add	t6,t6,s2
     ff6:	012fb933          	sltu	s2,t6,s2
     ffa:	9e1e                	add	t3,t3,t2
     ffc:	9972                	add	s2,s2,t3
     ffe:	4e52                	lw	t3,20(sp)
    1000:	03c593b3          	mulh	t2,a1,t3
    1004:	03c58f33          	mul	t5,a1,t3
    1008:	991e                	add	s2,s2,t2
    100a:	03d70e33          	mul	t3,a4,t4
    100e:	9f7e                	add	t5,t5,t6
    1010:	01ff3fb3          	sltu	t6,t5,t6
    1014:	9fca                	add	t6,t6,s2
    1016:	03d713b3          	mulh	t2,a4,t4
    101a:	9e7a                	add	t3,t3,t5
    101c:	01ee3f33          	sltu	t5,t3,t5
    1020:	9f9e                	add	t6,t6,t2
    1022:	9f7e                	add	t5,t5,t6
    1024:	4fe2                	lw	t6,24(sp)
    1026:	03d59933          	mulh	s2,a1,t4
    102a:	03f283b3          	mul	t2,t0,t6
    102e:	03f29fb3          	mulh	t6,t0,t6
    1032:	93f2                	add	t2,t2,t3
    1034:	01c3be33          	sltu	t3,t2,t3
    1038:	9f7e                	add	t5,t5,t6
    103a:	9e7a                	add	t3,t3,t5
    103c:	02650f33          	mul	t5,a0,t1
    1040:	02651fb3          	mulh	t6,a0,t1
    1044:	9f1e                	add	t5,t5,t2
    1046:	007f33b3          	sltu	t2,t5,t2
    104a:	9e7e                	add	t3,t3,t6
    104c:	93f2                	add	t2,t2,t3
    104e:	4e72                	lw	t3,28(sp)
    1050:	4ff2                	lw	t6,28(sp)
    1052:	03c80e33          	mul	t3,a6,t3
    1056:	03f81833          	mulh	a6,a6,t6
    105a:	01cf0d33          	add	s10,t5,t3
    105e:	01ed3f33          	sltu	t5,s10,t5
    1062:	93c2                	add	t2,t2,a6
    1064:	007f0833          	add	a6,t5,t2
    1068:	ccc2                	sw	a6,88(sp)
    106a:	5822                	lw	a6,40(sp)
    106c:	03078f33          	mul	t5,a5,a6
    1070:	03079fb3          	mulh	t6,a5,a6
    1074:	5812                	lw	a6,36(sp)
    1076:	03780e33          	mul	t3,a6,s7
    107a:	037813b3          	mulh	t2,a6,s7
    107e:	9e7a                	add	t3,t3,t5
    1080:	01ee3f33          	sltu	t5,t3,t5
    1084:	007f8833          	add	a6,t6,t2
    1088:	987a                	add	a6,a6,t5
    108a:	4f42                	lw	t5,16(sp)
    108c:	4fc2                	lw	t6,16(sp)
    108e:	031f0f33          	mul	t5,t5,a7
    1092:	031f9fb3          	mulh	t6,t6,a7
    1096:	9f72                	add	t5,t5,t3
    1098:	01cf3e33          	sltu	t3,t5,t3
    109c:	987e                	add	a6,a6,t6
    109e:	9872                	add	a6,a6,t3
    10a0:	4e02                	lw	t3,0(sp)
    10a2:	03cb0fb3          	mul	t6,s6,t3
    10a6:	03cb1e33          	mulh	t3,s6,t3
    10aa:	9ffa                	add	t6,t6,t5
    10ac:	01efbf33          	sltu	t5,t6,t5
    10b0:	9872                	add	a6,a6,t3
    10b2:	987a                	add	a6,a6,t5
    10b4:	02da8e33          	mul	t3,s5,a3
    10b8:	02da9f33          	mulh	t5,s5,a3
    10bc:	9e7e                	add	t3,t3,t6
    10be:	01fe3fb3          	sltu	t6,t3,t6
    10c2:	987a                	add	a6,a6,t5
    10c4:	4f12                	lw	t5,4(sp)
    10c6:	9fc2                	add	t6,t6,a6
    10c8:	4812                	lw	a6,4(sp)
    10ca:	03e49f33          	mulh	t5,s1,t5
    10ce:	03048833          	mul	a6,s1,a6
    10d2:	9ffa                	add	t6,t6,t5
    10d4:	03d58f33          	mul	t5,a1,t4
    10d8:	9872                	add	a6,a6,t3
    10da:	01c83e33          	sltu	t3,a6,t3
    10de:	01fe03b3          	add	t2,t3,t6
    10e2:	4fa2                	lw	t6,8(sp)
    10e4:	01238e33          	add	t3,t2,s2
    10e8:	03f713b3          	mulh	t2,a4,t6
    10ec:	9f42                	add	t5,t5,a6
    10ee:	010f3833          	sltu	a6,t5,a6
    10f2:	9e42                	add	t3,t3,a6
    10f4:	4822                	lw	a6,8(sp)
    10f6:	03070833          	mul	a6,a4,a6
    10fa:	007e0fb3          	add	t6,t3,t2
    10fe:	02628e33          	mul	t3,t0,t1
    1102:	987a                	add	a6,a6,t5
    1104:	01e83f33          	sltu	t5,a6,t5
    1108:	9ffa                	add	t6,t6,t5
    110a:	026293b3          	mulh	t2,t0,t1
    110e:	9e42                	add	t3,t3,a6
    1110:	010e3833          	sltu	a6,t3,a6
    1114:	007f8f33          	add	t5,t6,t2
    1118:	9f42                	add	t5,t5,a6
    111a:	4832                	lw	a6,12(sp)
    111c:	4fb2                	lw	t6,12(sp)
    111e:	02db0933          	mul	s2,s6,a3
    1122:	03050833          	mul	a6,a0,a6
    1126:	03f51533          	mulh	a0,a0,t6
    112a:	9872                	add	a6,a6,t3
    112c:	01c83e33          	sltu	t3,a6,t3
    1130:	5fa2                	lw	t6,40(sp)
    1132:	957a                	add	a0,a0,t5
    1134:	9572                	add	a0,a0,t3
    1136:	5e32                	lw	t3,44(sp)
    1138:	ceaa                	sw	a0,92(sp)
    113a:	5532                	lw	a0,44(sp)
    113c:	03c79f33          	mulh	t5,a5,t3
    1140:	5e22                	lw	t3,40(sp)
    1142:	02a78533          	mul	a0,a5,a0
    1146:	038e0e33          	mul	t3,t3,s8
    114a:	038f9c33          	mulh	s8,t6,s8
    114e:	9e2a                	add	t3,t3,a0
    1150:	00ae3533          	sltu	a0,t3,a0
    1154:	9c7a                	add	s8,s8,t5
    1156:	01850f33          	add	t5,a0,s8
    115a:	5512                	lw	a0,36(sp)
    115c:	03150fb3          	mul	t6,a0,a7
    1160:	03151533          	mulh	a0,a0,a7
    1164:	9ff2                	add	t6,t6,t3
    1166:	01cfbe33          	sltu	t3,t6,t3
    116a:	9f2a                	add	t5,t5,a0
    116c:	4542                	lw	a0,16(sp)
    116e:	9e7a                	add	t3,t3,t5
    1170:	03d48f33          	mul	t5,s1,t4
    1174:	028503b3          	mul	t2,a0,s0
    1178:	02851433          	mulh	s0,a0,s0
    117c:	93fe                	add	t2,t2,t6
    117e:	01f3bfb3          	sltu	t6,t2,t6
    1182:	991e                	add	s2,s2,t2
    1184:	007933b3          	sltu	t2,s2,t2
    1188:	4552                	lw	a0,20(sp)
    118a:	9e22                	add	t3,t3,s0
    118c:	9e7e                	add	t3,t3,t6
    118e:	02db1fb3          	mulh	t6,s6,a3
    1192:	4452                	lw	s0,20(sp)
    1194:	9e7e                	add	t3,t3,t6
    1196:	93f2                	add	t2,t2,t3
    1198:	028a9e33          	mulh	t3,s5,s0
    119c:	4462                	lw	s0,24(sp)
    119e:	02aa8533          	mul	a0,s5,a0
    11a2:	93f2                	add	t2,t2,t3
    11a4:	03d49e33          	mulh	t3,s1,t4
    11a8:	954a                	add	a0,a0,s2
    11aa:	01253933          	sltu	s2,a0,s2
    11ae:	93ca                	add	t2,t2,s2
    11b0:	9f2a                	add	t5,t5,a0
    11b2:	00af3533          	sltu	a0,t5,a0
    11b6:	93f2                	add	t2,t2,t3
    11b8:	02859e33          	mulh	t3,a1,s0
    11bc:	951e                	add	a0,a0,t2
    11be:	02858fb3          	mul	t6,a1,s0
    11c2:	9572                	add	a0,a0,t3
    11c4:	02670433          	mul	s0,a4,t1
    11c8:	9ffa                	add	t6,t6,t5
    11ca:	01efbf33          	sltu	t5,t6,t5
    11ce:	957a                	add	a0,a0,t5
    11d0:	02671e33          	mulh	t3,a4,t1
    11d4:	947e                	add	s0,s0,t6
    11d6:	01f43fb3          	sltu	t6,s0,t6
    11da:	9572                	add	a0,a0,t3
    11dc:	9faa                	add	t6,t6,a0
    11de:	4572                	lw	a0,28(sp)
    11e0:	4e72                	lw	t3,28(sp)
    11e2:	02a28533          	mul	a0,t0,a0
    11e6:	03c292b3          	mulh	t0,t0,t3
    11ea:	9522                	add	a0,a0,s0
    11ec:	00853433          	sltu	s0,a0,s0
    11f0:	9f96                	add	t6,t6,t0
    11f2:	01f403b3          	add	t2,s0,t6
    11f6:	5452                	lw	s0,52(sp)
    11f8:	02878e33          	mul	t3,a5,s0
    11fc:	028797b3          	mulh	a5,a5,s0
    1200:	5432                	lw	s0,44(sp)
    1202:	03740f33          	mul	t5,s0,s7
    1206:	03741bb3          	mulh	s7,s0,s7
    120a:	9f72                	add	t5,t5,t3
    120c:	01cf3e33          	sltu	t3,t5,t3
    1210:	4402                	lw	s0,0(sp)
    1212:	97de                	add	a5,a5,s7
    1214:	9e3e                	add	t3,t3,a5
    1216:	57a2                	lw	a5,40(sp)
    1218:	03178fb3          	mul	t6,a5,a7
    121c:	031798b3          	mulh	a7,a5,a7
    1220:	5792                	lw	a5,36(sp)
    1222:	9ffa                	add	t6,t6,t5
    1224:	01efbf33          	sltu	t5,t6,t5
    1228:	9e46                	add	t3,t3,a7
    122a:	028787b3          	mul	a5,a5,s0
    122e:	4882                	lw	a7,0(sp)
    1230:	5412                	lw	s0,36(sp)
    1232:	9f72                	add	t5,t5,t3
    1234:	03141e33          	mulh	t3,s0,a7
    1238:	4442                	lw	s0,16(sp)
    123a:	97fe                	add	a5,a5,t6
    123c:	01f7bfb3          	sltu	t6,a5,t6
    1240:	02d408b3          	mul	a7,s0,a3
    1244:	9f72                	add	t5,t5,t3
    1246:	9ffa                	add	t6,t6,t5
    1248:	02d416b3          	mulh	a3,s0,a3
    124c:	98be                	add	a7,a7,a5
    124e:	00f8b7b3          	sltu	a5,a7,a5
    1252:	9fb6                	add	t6,t6,a3
    1254:	4692                	lw	a3,4(sp)
    1256:	97fe                	add	a5,a5,t6
    1258:	02db0e33          	mul	t3,s6,a3
    125c:	02db1b33          	mulh	s6,s6,a3
    1260:	9e46                	add	t3,t3,a7
    1262:	011e38b3          	sltu	a7,t3,a7
    1266:	97da                	add	a5,a5,s6
    1268:	98be                	add	a7,a7,a5
    126a:	47a2                	lw	a5,8(sp)
    126c:	03da86b3          	mul	a3,s5,t4
    1270:	4426                	lw	s0,72(sp)
    1272:	03da9eb3          	mulh	t4,s5,t4
    1276:	96f2                	add	a3,a3,t3
    1278:	01c6be33          	sltu	t3,a3,t3
    127c:	02f48f33          	mul	t5,s1,a5
    1280:	98f6                	add	a7,a7,t4
    1282:	9e46                	add	t3,t3,a7
    1284:	02f494b3          	mulh	s1,s1,a5
    1288:	9f36                	add	t5,t5,a3
    128a:	00df36b3          	sltu	a3,t5,a3
    128e:	026587b3          	mul	a5,a1,t1
    1292:	9e26                	add	t3,t3,s1
    1294:	96f2                	add	a3,a3,t3
    1296:	54f2                	lw	s1,60(sp)
    1298:	026595b3          	mulh	a1,a1,t1
    129c:	97fa                	add	a5,a5,t5
    129e:	01e7bf33          	sltu	t5,a5,t5
    12a2:	fc000337          	lui	t1,0xfc000
    12a6:	96ae                	add	a3,a3,a1
    12a8:	9f36                	add	t5,t5,a3
    12aa:	46b2                	lw	a3,12(sp)
    12ac:	02d705b3          	mul	a1,a4,a3
    12b0:	02d71733          	mulh	a4,a4,a3
    12b4:	95be                	add	a1,a1,a5
    12b6:	00f5b7b3          	sltu	a5,a1,a5
    12ba:	977a                	add	a4,a4,t5
    12bc:	00e782b3          	add	t0,a5,a4
    12c0:	5742                	lw	a4,48(sp)
    12c2:	020007b7          	lui	a5,0x2000
    12c6:	00f706b3          	add	a3,a4,a5
    12ca:	00e6bf33          	sltu	t5,a3,a4
    12ce:	5762                	lw	a4,56(sp)
    12d0:	9f3a                	add	t5,t5,a4
    12d2:	006f1893          	slli	a7,t5,0x6
    12d6:	01a6d713          	srli	a4,a3,0x1a
    12da:	00e8e733          	or	a4,a7,a4
    12de:	01b70ab3          	add	s5,a4,s11
    12e2:	41af5893          	srai	a7,t5,0x1a
    12e6:	00eab733          	sltu	a4,s5,a4
    12ea:	00888fb3          	add	t6,a7,s0
    12ee:	9fba                	add	t6,t6,a4
    12f0:	5742                	lw	a4,48(sp)
    12f2:	00d376b3          	and	a3,t1,a3
    12f6:	40d706b3          	sub	a3,a4,a3
    12fa:	00d73a33          	sltu	s4,a4,a3
    12fe:	5762                	lw	a4,56(sp)
    1300:	41e70f33          	sub	t5,a4,t5
    1304:	00fc8733          	add	a4,s9,a5
    1308:	01973433          	sltu	s0,a4,s9
    130c:	9426                	add	s0,s0,s1
    130e:	44d6                	lw	s1,84(sp)
    1310:	00641893          	slli	a7,s0,0x6
    1314:	01a75c13          	srli	s8,a4,0x1a
    1318:	0188ec33          	or	s8,a7,s8
    131c:	41a45913          	srai	s2,s0,0x1a
    1320:	010008b7          	lui	a7,0x1000
    1324:	011a8e33          	add	t3,s5,a7
    1328:	9926                	add	s2,s2,s1
    132a:	54f2                	lw	s1,60(sp)
    132c:	015e3b33          	sltu	s6,t3,s5
    1330:	9fda                	add	t6,t6,s6
    1332:	414f0a33          	sub	s4,t5,s4
    1336:	40848433          	sub	s0,s1,s0
    133a:	007f9f13          	slli	t5,t6,0x7
    133e:	019e5493          	srli	s1,t3,0x19
    1342:	009f64b3          	or	s1,t5,s1
    1346:	4f06                	lw	t5,64(sp)
    1348:	013c0eb3          	add	t4,s8,s3
    134c:	419fd993          	srai	s3,t6,0x19
    1350:	01e48fb3          	add	t6,s1,t5
    1354:	4f36                	lw	t5,76(sp)
    1356:	009fb4b3          	sltu	s1,t6,s1
    135a:	018ebc33          	sltu	s8,t4,s8
    135e:	99fa                	add	s3,s3,t5
    1360:	00e37733          	and	a4,t1,a4
    1364:	01348b33          	add	s6,s1,s3
    1368:	9c4a                	add	s8,s8,s2
    136a:	fe0004b7          	lui	s1,0xfe000
    136e:	011e8933          	add	s2,t4,a7
    1372:	40ec8733          	sub	a4,s9,a4
    1376:	01d93f33          	sltu	t5,s2,t4
    137a:	00ecbcb3          	sltu	s9,s9,a4
    137e:	01c4f9b3          	and	s3,s1,t3
    1382:	413a89b3          	sub	s3,s5,s3
    1386:	9c7a                	add	s8,s8,t5
    1388:	41940433          	sub	s0,s0,s9
    138c:	4f66                	lw	t5,88(sp)
    138e:	00ff8cb3          	add	s9,t6,a5
    1392:	01995a93          	srli	s5,s2,0x19
    1396:	0124f933          	and	s2,s1,s2
    139a:	007c1e13          	slli	t3,s8,0x7
    139e:	412e8933          	sub	s2,t4,s2
    13a2:	01fcbeb3          	sltu	t4,s9,t6
    13a6:	9b76                	add	s6,s6,t4
    13a8:	015e6ab3          	or	s5,t3,s5
    13ac:	419c5c13          	srai	s8,s8,0x19
    13b0:	01aa8e33          	add	t3,s5,s10
    13b4:	9c7a                	add	s8,s8,t5
    13b6:	01acde93          	srli	t4,s9,0x1a
    13ba:	006b1f13          	slli	t5,s6,0x6
    13be:	015e3ab3          	sltu	s5,t3,s5
    13c2:	01df6eb3          	or	t4,t5,t4
    13c6:	4f16                	lw	t5,68(sp)
    13c8:	9c56                	add	s8,s8,s5
    13ca:	4ac6                	lw	s5,80(sp)
    13cc:	9f76                	add	t5,t5,t4
    13ce:	41ab5b13          	srai	s6,s6,0x1a
    13d2:	9b56                	add	s6,s6,s5
    13d4:	01df3eb3          	sltu	t4,t5,t4
    13d8:	9eda                	add	t4,t4,s6
    13da:	00fe0b33          	add	s6,t3,a5
    13de:	01cb3ab3          	sltu	s5,s6,t3
    13e2:	9c56                	add	s8,s8,s5
    13e4:	006c1b93          	slli	s7,s8,0x6
    13e8:	01ab5a93          	srli	s5,s6,0x1a
    13ec:	015beab3          	or	s5,s7,s5
    13f0:	4bf6                	lw	s7,92(sp)
    13f2:	41ac5c13          	srai	s8,s8,0x1a
    13f6:	9856                	add	a6,a6,s5
    13f8:	017c0db3          	add	s11,s8,s7
    13fc:	011f0c33          	add	s8,t5,a7
    1400:	01ec3bb3          	sltu	s7,s8,t5
    1404:	01583ab3          	sltu	s5,a6,s5
    1408:	9ede                	add	t4,t4,s7
    140a:	9dd6                	add	s11,s11,s5
    140c:	019c5b93          	srli	s7,s8,0x19
    1410:	007e9a93          	slli	s5,t4,0x7
    1414:	017aebb3          	or	s7,s5,s7
    1418:	975e                	add	a4,a4,s7
    141a:	419ede93          	srai	t4,t4,0x19
    141e:	01180ab3          	add	s5,a6,a7
    1422:	9476                	add	s0,s0,t4
    1424:	01773bb3          	sltu	s7,a4,s7
    1428:	9ba2                	add	s7,s7,s0
    142a:	010ab433          	sltu	s0,s5,a6
    142e:	9da2                	add	s11,s11,s0
    1430:	007d9e93          	slli	t4,s11,0x7
    1434:	019ad413          	srli	s0,s5,0x19
    1438:	008ee433          	or	s0,t4,s0
    143c:	9522                	add	a0,a0,s0
    143e:	419ddd93          	srai	s11,s11,0x19
    1442:	00f50d33          	add	s10,a0,a5
    1446:	00853433          	sltu	s0,a0,s0
    144a:	9d9e                	add	s11,s11,t2
    144c:	00f70eb3          	add	t4,a4,a5
    1450:	9da2                	add	s11,s11,s0
    1452:	00ad3433          	sltu	s0,s10,a0
    1456:	00eeb3b3          	sltu	t2,t4,a4
    145a:	946e                	add	s0,s0,s11
    145c:	00641d93          	slli	s11,s0,0x6
    1460:	9b9e                	add	s7,s7,t2
    1462:	01ad5393          	srli	t2,s10,0x1a
    1466:	007de3b3          	or	t2,s11,t2
    146a:	959e                	add	a1,a1,t2
    146c:	8469                	srai	s0,s0,0x1a
    146e:	98ae                	add	a7,a7,a1
    1470:	0075b3b3          	sltu	t2,a1,t2
    1474:	9416                	add	s0,s0,t0
    1476:	941e                	add	s0,s0,t2
    1478:	00b8b2b3          	sltu	t0,a7,a1
    147c:	92a2                	add	t0,t0,s0
    147e:	00729393          	slli	t2,t0,0x7
    1482:	0198dd93          	srli	s11,a7,0x19
    1486:	01b3edb3          	or	s11,t2,s11
    148a:	4192d293          	srai	t0,t0,0x19
    148e:	03b603b3          	mul	t2,a2,s11
    1492:	443a                	lw	s0,140(sp)
    1494:	0b9a                	slli	s7,s7,0x6
    1496:	01937cb3          	and	s9,t1,s9
    149a:	0184fc33          	and	s8,s1,s8
    149e:	01637b33          	and	s6,t1,s6
    14a2:	0154fab3          	and	s5,s1,s5
    14a6:	0114f8b3          	and	a7,s1,a7
    14aa:	419f8fb3          	sub	t6,t6,s9
    14ae:	418f0f33          	sub	t5,t5,s8
    14b2:	025602b3          	mul	t0,a2,t0
    14b6:	969e                	add	a3,a3,t2
    14b8:	97b6                	add	a5,a5,a3
    14ba:	0076b3b3          	sltu	t2,a3,t2
    14be:	416e0e33          	sub	t3,t3,s6
    14c2:	41580833          	sub	a6,a6,s5
    14c6:	411588b3          	sub	a7,a1,a7
    14ca:	44aa                	lw	s1,136(sp)
    14cc:	03b63633          	mulhu	a2,a2,s11
    14d0:	9616                	add	a2,a2,t0
    14d2:	9a32                	add	s4,s4,a2
    14d4:	93d2                	add	t2,t2,s4
    14d6:	00d7ba33          	sltu	s4,a5,a3
    14da:	00f37633          	and	a2,t1,a5
    14de:	93d2                	add	t2,t2,s4
    14e0:	8e91                	sub	a3,a3,a2
    14e2:	039a                	slli	t2,t2,0x6
    14e4:	5602                	lw	a2,32(sp)
    14e6:	83e9                	srli	a5,a5,0x1a
    14e8:	00f3e7b3          	or	a5,t2,a5
    14ec:	97ce                	add	a5,a5,s3
    14ee:	c25c                	sw	a5,4(a2)
    14f0:	01d377b3          	and	a5,t1,t4
    14f4:	01aede93          	srli	t4,t4,0x1a
    14f8:	01dbeeb3          	or	t4,s7,t4
    14fc:	01a37333          	and	t1,t1,s10
    1500:	9eca                	add	t4,t4,s2
    1502:	8f1d                	sub	a4,a4,a5
    1504:	40650333          	sub	t1,a0,t1
    1508:	491a                	lw	s2,132(sp)
    150a:	498a                	lw	s3,128(sp)
    150c:	5a76                	lw	s4,124(sp)
    150e:	c214                	sw	a3,0(a2)
    1510:	01f62423          	sw	t6,8(a2)
    1514:	01e62623          	sw	t5,12(a2)
    1518:	ca18                	sw	a4,16(a2)
    151a:	01d62a23          	sw	t4,20(a2)
    151e:	01c62c23          	sw	t3,24(a2)
    1522:	01062e23          	sw	a6,28(a2)
    1526:	02662023          	sw	t1,32(a2)
    152a:	03162223          	sw	a7,36(a2)
    152e:	5ae6                	lw	s5,120(sp)
    1530:	5b56                	lw	s6,116(sp)
    1532:	5bc6                	lw	s7,112(sp)
    1534:	5c36                	lw	s8,108(sp)
    1536:	5ca6                	lw	s9,104(sp)
    1538:	5d16                	lw	s10,100(sp)
    153a:	5d86                	lw	s11,96(sp)
    153c:	6149                	addi	sp,sp,144
    153e:	8082                	ret

00001540 <fe_neg>:
    1540:	0045ae83          	lw	t4,4(a1)
    1544:	0085ae03          	lw	t3,8(a1)
    1548:	00c5a303          	lw	t1,12(a1)
    154c:	0105a883          	lw	a7,16(a1)
    1550:	0145a803          	lw	a6,20(a1)
    1554:	4d90                	lw	a2,24(a1)
    1556:	4dd4                	lw	a3,28(a1)
    1558:	5198                	lw	a4,32(a1)
    155a:	51dc                	lw	a5,36(a1)
    155c:	418c                	lw	a1,0(a1)
    155e:	41d00eb3          	neg	t4,t4
    1562:	41c00e33          	neg	t3,t3
    1566:	40600333          	neg	t1,t1
    156a:	411008b3          	neg	a7,a7
    156e:	41000833          	neg	a6,a6
    1572:	40c00633          	neg	a2,a2
    1576:	40d006b3          	neg	a3,a3
    157a:	40e00733          	neg	a4,a4
    157e:	40f007b3          	neg	a5,a5
    1582:	40b005b3          	neg	a1,a1
    1586:	c10c                	sw	a1,0(a0)
    1588:	01d52223          	sw	t4,4(a0)
    158c:	01c52423          	sw	t3,8(a0)
    1590:	00652623          	sw	t1,12(a0)
    1594:	01152823          	sw	a7,16(a0)
    1598:	01052a23          	sw	a6,20(a0)
    159c:	cd10                	sw	a2,24(a0)
    159e:	cd54                	sw	a3,28(a0)
    15a0:	d118                	sw	a4,32(a0)
    15a2:	d15c                	sw	a5,36(a0)
    15a4:	8082                	ret

000015a6 <fe_sq>:
    15a6:	0245a383          	lw	t2,36(a1)
    15aa:	715d                	addi	sp,sp,-80
    15ac:	d26a                	sw	s10,36(sp)
    15ae:	02600d13          	li	s10,38
    15b2:	03a386b3          	mul	a3,t2,s10
    15b6:	d85e                	sw	s7,48(sp)
    15b8:	0045ab83          	lw	s7,4(a1)
    15bc:	da5a                	sw	s6,52(sp)
    15be:	0005af03          	lw	t5,0(a1)
    15c2:	0205ab03          	lw	s6,32(a1)
    15c6:	001b9713          	slli	a4,s7,0x1
    15ca:	d06e                	sw	s11,32(sp)
    15cc:	4dcd                	li	s11,19
    15ce:	001f1793          	slli	a5,t5,0x1
    15d2:	de52                	sw	s4,60(sp)
    15d4:	03bb0833          	mul	a6,s6,s11
    15d8:	c0ce                	sw	s3,64(sp)
    15da:	d662                	sw	s8,44(sp)
    15dc:	0085a883          	lw	a7,8(a1)
    15e0:	01c5ac03          	lw	s8,28(a1)
    15e4:	c2ca                	sw	s2,68(sp)
    15e6:	00189913          	slli	s2,a7,0x1
    15ea:	c6a2                	sw	s0,76(sp)
    15ec:	45c0                	lw	s0,12(a1)
    15ee:	0185ae83          	lw	t4,24(a1)
    15f2:	02d71a33          	mulh	s4,a4,a3
    15f6:	00141e13          	slli	t3,s0,0x1
    15fa:	4990                	lw	a2,16(a1)
    15fc:	d466                	sw	s9,40(sp)
    15fe:	dc56                	sw	s5,56(sp)
    1600:	00161c93          	slli	s9,a2,0x1
    1604:	0145aa83          	lw	s5,20(a1)
    1608:	c4a6                	sw	s1,72(sp)
    160a:	001c1493          	slli	s1,s8,0x1
    160e:	001a9593          	slli	a1,s5,0x1
    1612:	03ef02b3          	mul	t0,t5,t5
    1616:	03ef1f33          	mulh	t5,t5,t5
    161a:	02d709b3          	mul	s3,a4,a3
    161e:	9f52                	add	t5,t5,s4
    1620:	03ac0333          	mul	t1,s8,s10
    1624:	9996                	add	s3,s3,t0
    1626:	0059b2b3          	sltu	t0,s3,t0
    162a:	9f16                	add	t5,t5,t0
    162c:	03091a33          	mulh	s4,s2,a6
    1630:	030902b3          	mul	t0,s2,a6
    1634:	9f52                	add	t5,t5,s4
    1636:	03be8fb3          	mul	t6,t4,s11
    163a:	92ce                	add	t0,t0,s3
    163c:	0132b9b3          	sltu	s3,t0,s3
    1640:	99fa                	add	s3,s3,t5
    1642:	026e0db3          	mul	s11,t3,t1
    1646:	026e1a33          	mulh	s4,t3,t1
    164a:	9d96                	add	s11,s11,t0
    164c:	005db2b3          	sltu	t0,s11,t0
    1650:	99d2                	add	s3,s3,s4
    1652:	92ce                	add	t0,t0,s3
    1654:	03fc89b3          	mul	s3,s9,t6
    1658:	03fc9a33          	mulh	s4,s9,t6
    165c:	99ee                	add	s3,s3,s11
    165e:	01b9bdb3          	sltu	s11,s3,s11
    1662:	92d2                	add	t0,t0,s4
    1664:	005d8f33          	add	t5,s11,t0
    1668:	03aa82b3          	mul	t0,s5,s10
    166c:	03528a33          	mul	s4,t0,s5
    1670:	035292b3          	mulh	t0,t0,s5
    1674:	9a4e                	add	s4,s4,s3
    1676:	013a39b3          	sltu	s3,s4,s3
    167a:	92fa                	add	t0,t0,t5
    167c:	00598f33          	add	t5,s3,t0
    1680:	c27a                	sw	t5,4(sp)
    1682:	02d889b3          	mul	s3,a7,a3
    1686:	03778f33          	mul	t5,a5,s7
    168a:	03779d33          	mulh	s10,a5,s7
    168e:	99fa                	add	s3,s3,t5
    1690:	01e9bf33          	sltu	t5,s3,t5
    1694:	02d89db3          	mulh	s11,a7,a3
    1698:	01bd02b3          	add	t0,s10,s11
    169c:	92fa                	add	t0,t0,t5
    169e:	030e0f33          	mul	t5,t3,a6
    16a2:	030e1d33          	mulh	s10,t3,a6
    16a6:	9f4e                	add	t5,t5,s3
    16a8:	013f39b3          	sltu	s3,t5,s3
    16ac:	92ea                	add	t0,t0,s10
    16ae:	02660d33          	mul	s10,a2,t1
    16b2:	92ce                	add	t0,t0,s3
    16b4:	026619b3          	mulh	s3,a2,t1
    16b8:	9d7a                	add	s10,s10,t5
    16ba:	01ed3f33          	sltu	t5,s10,t5
    16be:	92ce                	add	t0,t0,s3
    16c0:	03f589b3          	mul	s3,a1,t6
    16c4:	92fa                	add	t0,t0,t5
    16c6:	03f59f33          	mulh	t5,a1,t6
    16ca:	99ea                	add	s3,s3,s10
    16cc:	01a9bd33          	sltu	s10,s3,s10
    16d0:	c44e                	sw	s3,8(sp)
    16d2:	92fa                	add	t0,t0,t5
    16d4:	005d0f33          	add	t5,s10,t0
    16d8:	ca7a                	sw	t5,20(sp)
    16da:	031789b3          	mul	s3,a5,a7
    16de:	02eb8f33          	mul	t5,s7,a4
    16e2:	03179d33          	mulh	s10,a5,a7
    16e6:	9f4e                	add	t5,t5,s3
    16e8:	013f39b3          	sltu	s3,t5,s3
    16ec:	02eb9bb3          	mulh	s7,s7,a4
    16f0:	9bea                	add	s7,s7,s10
    16f2:	01798d33          	add	s10,s3,s7
    16f6:	02de1bb3          	mulh	s7,t3,a3
    16fa:	02de0db3          	mul	s11,t3,a3
    16fe:	017d09b3          	add	s3,s10,s7
    1702:	03981bb3          	mulh	s7,a6,s9
    1706:	9dfa                	add	s11,s11,t5
    1708:	01edbf33          	sltu	t5,s11,t5
    170c:	99fa                	add	s3,s3,t5
    170e:	03980f33          	mul	t5,a6,s9
    1712:	017982b3          	add	t0,s3,s7
    1716:	026589b3          	mul	s3,a1,t1
    171a:	9f6e                	add	t5,t5,s11
    171c:	01bf3db3          	sltu	s11,t5,s11
    1720:	92ee                	add	t0,t0,s11
    1722:	02659bb3          	mulh	s7,a1,t1
    1726:	99fa                	add	s3,s3,t5
    1728:	01e9bf33          	sltu	t5,s3,t5
    172c:	92de                	add	t0,t0,s7
    172e:	9f16                	add	t5,t5,t0
    1730:	03fe82b3          	mul	t0,t4,t6
    1734:	03fe9fb3          	mulh	t6,t4,t6
    1738:	92ce                	add	t0,t0,s3
    173a:	0132b9b3          	sltu	s3,t0,s3
    173e:	c616                	sw	t0,12(sp)
    1740:	9ffa                	add	t6,t6,t5
    1742:	01f98f33          	add	t5,s3,t6
    1746:	cc7a                	sw	t5,24(sp)
    1748:	02878fb3          	mul	t6,a5,s0
    174c:	02e88f33          	mul	t5,a7,a4
    1750:	028799b3          	mulh	s3,a5,s0
    1754:	9f7e                	add	t5,t5,t6
    1756:	01ff3fb3          	sltu	t6,t5,t6
    175a:	02e89bb3          	mulh	s7,a7,a4
    175e:	017982b3          	add	t0,s3,s7
    1762:	92fe                	add	t0,t0,t6
    1764:	02d60fb3          	mul	t6,a2,a3
    1768:	02d619b3          	mulh	s3,a2,a3
    176c:	9ffa                	add	t6,t6,t5
    176e:	01efbf33          	sltu	t5,t6,t5
    1772:	92ce                	add	t0,t0,s3
    1774:	9f16                	add	t5,t5,t0
    1776:	030582b3          	mul	t0,a1,a6
    177a:	030599b3          	mulh	s3,a1,a6
    177e:	92fe                	add	t0,t0,t6
    1780:	01f2bfb3          	sltu	t6,t0,t6
    1784:	9f4e                	add	t5,t5,s3
    1786:	9f7e                	add	t5,t5,t6
    1788:	026e8fb3          	mul	t6,t4,t1
    178c:	026e99b3          	mulh	s3,t4,t1
    1790:	9f96                	add	t6,t6,t0
    1792:	005fb2b3          	sltu	t0,t6,t0
    1796:	c87e                	sw	t6,16(sp)
    1798:	9f4e                	add	t5,t5,s3
    179a:	9f16                	add	t5,t5,t0
    179c:	ce7a                	sw	t5,28(sp)
    179e:	02c782b3          	mul	t0,a5,a2
    17a2:	03c70f33          	mul	t5,a4,t3
    17a6:	03c719b3          	mulh	s3,a4,t3
    17aa:	9f16                	add	t5,t5,t0
    17ac:	005f32b3          	sltu	t0,t5,t0
    17b0:	02c79fb3          	mulh	t6,a5,a2
    17b4:	03188bb3          	mul	s7,a7,a7
    17b8:	9fce                	add	t6,t6,s3
    17ba:	92fe                	add	t0,t0,t6
    17bc:	031898b3          	mulh	a7,a7,a7
    17c0:	9bfa                	add	s7,s7,t5
    17c2:	01ebbf33          	sltu	t5,s7,t5
    17c6:	92c6                	add	t0,t0,a7
    17c8:	02d598b3          	mulh	a7,a1,a3
    17cc:	92fa                	add	t0,t0,t5
    17ce:	001e9f13          	slli	t5,t4,0x1
    17d2:	02d58d33          	mul	s10,a1,a3
    17d6:	92c6                	add	t0,t0,a7
    17d8:	030f08b3          	mul	a7,t5,a6
    17dc:	9d5e                	add	s10,s10,s7
    17de:	017d3bb3          	sltu	s7,s10,s7
    17e2:	9b96                	add	s7,s7,t0
    17e4:	030f1f33          	mulh	t5,t5,a6
    17e8:	98ea                	add	a7,a7,s10
    17ea:	01a8bd33          	sltu	s10,a7,s10
    17ee:	9bfa                	add	s7,s7,t5
    17f0:	9d5e                	add	s10,s10,s7
    17f2:	026c0bb3          	mul	s7,s8,t1
    17f6:	026c1333          	mulh	t1,s8,t1
    17fa:	9bc6                	add	s7,s7,a7
    17fc:	011bb8b3          	sltu	a7,s7,a7
    1800:	936a                	add	t1,t1,s10
    1802:	006882b3          	add	t0,a7,t1
    1806:	02e60f33          	mul	t5,a2,a4
    180a:	035788b3          	mul	a7,a5,s5
    180e:	03579fb3          	mulh	t6,a5,s5
    1812:	9f46                	add	t5,t5,a7
    1814:	011f38b3          	sltu	a7,t5,a7
    1818:	02e619b3          	mulh	s3,a2,a4
    181c:	013f8333          	add	t1,t6,s3
    1820:	9346                	add	t1,t1,a7
    1822:	032408b3          	mul	a7,s0,s2
    1826:	03241fb3          	mulh	t6,s0,s2
    182a:	98fa                	add	a7,a7,t5
    182c:	01e8bf33          	sltu	t5,a7,t5
    1830:	937e                	add	t1,t1,t6
    1832:	02de8fb3          	mul	t6,t4,a3
    1836:	937a                	add	t1,t1,t5
    1838:	02de9f33          	mulh	t5,t4,a3
    183c:	9fc6                	add	t6,t6,a7
    183e:	011fb8b3          	sltu	a7,t6,a7
    1842:	937a                	add	t1,t1,t5
    1844:	989a                	add	a7,a7,t1
    1846:	03048333          	mul	t1,s1,a6
    184a:	03049f33          	mulh	t5,s1,a6
    184e:	937e                	add	t1,t1,t6
    1850:	01f33fb3          	sltu	t6,t1,t6
    1854:	98fa                	add	a7,a7,t5
    1856:	011f8db3          	add	s11,t6,a7
    185a:	03d78f33          	mul	t5,a5,t4
    185e:	02b70fb3          	mul	t6,a4,a1
    1862:	03d799b3          	mulh	s3,a5,t4
    1866:	9ffa                	add	t6,t6,t5
    1868:	01efbf33          	sltu	t5,t6,t5
    186c:	02b71d33          	mulh	s10,a4,a1
    1870:	01a988b3          	add	a7,s3,s10
    1874:	98fa                	add	a7,a7,t5
    1876:	03260f33          	mul	t5,a2,s2
    187a:	032619b3          	mulh	s3,a2,s2
    187e:	9f7e                	add	t5,t5,t6
    1880:	01ff3fb3          	sltu	t6,t5,t6
    1884:	03c40d33          	mul	s10,s0,t3
    1888:	98ce                	add	a7,a7,s3
    188a:	9fc6                	add	t6,t6,a7
    188c:	03c41433          	mulh	s0,s0,t3
    1890:	9d7a                	add	s10,s10,t5
    1892:	01ed3f33          	sltu	t5,s10,t5
    1896:	02d489b3          	mul	s3,s1,a3
    189a:	947e                	add	s0,s0,t6
    189c:	947a                	add	s0,s0,t5
    189e:	02d49f33          	mulh	t5,s1,a3
    18a2:	99ea                	add	s3,s3,s10
    18a4:	01a9bd33          	sltu	s10,s3,s10
    18a8:	030b08b3          	mul	a7,s6,a6
    18ac:	947a                	add	s0,s0,t5
    18ae:	9d22                	add	s10,s10,s0
    18b0:	030b1833          	mulh	a6,s6,a6
    18b4:	98ce                	add	a7,a7,s3
    18b6:	0138b9b3          	sltu	s3,a7,s3
    18ba:	986a                	add	a6,a6,s10
    18bc:	01098fb3          	add	t6,s3,a6
    18c0:	03878833          	mul	a6,a5,s8
    18c4:	02ee89b3          	mul	s3,t4,a4
    18c8:	03879433          	mulh	s0,a5,s8
    18cc:	99c2                	add	s3,s3,a6
    18ce:	0109b833          	sltu	a6,s3,a6
    18d2:	02ee9d33          	mulh	s10,t4,a4
    18d6:	01a40f33          	add	t5,s0,s10
    18da:	9f42                	add	t5,t5,a6
    18dc:	032a8833          	mul	a6,s5,s2
    18e0:	032a9d33          	mulh	s10,s5,s2
    18e4:	984e                	add	a6,a6,s3
    18e6:	013839b3          	sltu	s3,a6,s3
    18ea:	9f6a                	add	t5,t5,s10
    18ec:	03c60d33          	mul	s10,a2,t3
    18f0:	9f4e                	add	t5,t5,s3
    18f2:	03c619b3          	mulh	s3,a2,t3
    18f6:	9d42                	add	s10,s10,a6
    18f8:	010d3833          	sltu	a6,s10,a6
    18fc:	9f4e                	add	t5,t5,s3
    18fe:	9f42                	add	t5,t5,a6
    1900:	02db0833          	mul	a6,s6,a3
    1904:	02db19b3          	mulh	s3,s6,a3
    1908:	986a                	add	a6,a6,s10
    190a:	01a83d33          	sltu	s10,a6,s10
    190e:	9f4e                	add	t5,t5,s3
    1910:	01ed0433          	add	s0,s10,t5
    1914:	029709b3          	mul	s3,a4,s1
    1918:	03679d33          	mulh	s10,a5,s6
    191c:	029714b3          	mulh	s1,a4,s1
    1920:	03678f33          	mul	t5,a5,s6
    1924:	94ea                	add	s1,s1,s10
    1926:	032e9d33          	mulh	s10,t4,s2
    192a:	99fa                	add	s3,s3,t5
    192c:	01e9bf33          	sltu	t5,s3,t5
    1930:	9f26                	add	t5,t5,s1
    1932:	032e84b3          	mul	s1,t4,s2
    1936:	9f6a                	add	t5,t5,s10
    1938:	02be0d33          	mul	s10,t3,a1
    193c:	94ce                	add	s1,s1,s3
    193e:	0134b9b3          	sltu	s3,s1,s3
    1942:	99fa                	add	s3,s3,t5
    1944:	02be15b3          	mulh	a1,t3,a1
    1948:	9d26                	add	s10,s10,s1
    194a:	009d34b3          	sltu	s1,s10,s1
    194e:	02c60f33          	mul	t5,a2,a2
    1952:	99ae                	add	s3,s3,a1
    1954:	99a6                	add	s3,s3,s1
    1956:	02c61633          	mulh	a2,a2,a2
    195a:	9f6a                	add	t5,t5,s10
    195c:	01af3d33          	sltu	s10,t5,s10
    1960:	02d385b3          	mul	a1,t2,a3
    1964:	964e                	add	a2,a2,s3
    1966:	9d32                	add	s10,s10,a2
    1968:	02d396b3          	mulh	a3,t2,a3
    196c:	95fa                	add	a1,a1,t5
    196e:	01e5bf33          	sltu	t5,a1,t5
    1972:	96ea                	add	a3,a3,s10
    1974:	9f36                	add	t5,t5,a3
    1976:	02eb0633          	mul	a2,s6,a4
    197a:	027786b3          	mul	a3,a5,t2
    197e:	02eb1733          	mulh	a4,s6,a4
    1982:	9636                	add	a2,a2,a3
    1984:	00d636b3          	sltu	a3,a2,a3
    1988:	027797b3          	mulh	a5,a5,t2
    198c:	032c04b3          	mul	s1,s8,s2
    1990:	97ba                	add	a5,a5,a4
    1992:	96be                	add	a3,a3,a5
    1994:	020007b7          	lui	a5,0x2000
    1998:	032c1933          	mulh	s2,s8,s2
    199c:	94b2                	add	s1,s1,a2
    199e:	00c4b633          	sltu	a2,s1,a2
    19a2:	03ce89b3          	mul	s3,t4,t3
    19a6:	96ca                	add	a3,a3,s2
    19a8:	9636                	add	a2,a2,a3
    19aa:	00fa06b3          	add	a3,s4,a5
    19ae:	0146b733          	sltu	a4,a3,s4
    19b2:	01a6d913          	srli	s2,a3,0x1a
    19b6:	03ce9e33          	mulh	t3,t4,t3
    19ba:	99a6                	add	s3,s3,s1
    19bc:	0099b4b3          	sltu	s1,s3,s1
    19c0:	fc000eb7          	lui	t4,0xfc000
    19c4:	00def6b3          	and	a3,t4,a3
    19c8:	40da06b3          	sub	a3,s4,a3
    19cc:	00da3a33          	sltu	s4,s4,a3
    19d0:	9672                	add	a2,a2,t3
    19d2:	94b2                	add	s1,s1,a2
    19d4:	039a8633          	mul	a2,s5,s9
    19d8:	039a9ab3          	mulh	s5,s5,s9
    19dc:	964e                	add	a2,a2,s3
    19de:	013639b3          	sltu	s3,a2,s3
    19e2:	9aa6                	add	s5,s5,s1
    19e4:	4492                	lw	s1,4(sp)
    19e6:	015983b3          	add	t2,s3,s5
    19ea:	9726                	add	a4,a4,s1
    19ec:	44a2                	lw	s1,8(sp)
    19ee:	00671e13          	slli	t3,a4,0x6
    19f2:	012e6933          	or	s2,t3,s2
    19f6:	009909b3          	add	s3,s2,s1
    19fa:	44d2                	lw	s1,20(sp)
    19fc:	41a75d13          	srai	s10,a4,0x1a
    1a00:	0129b933          	sltu	s2,s3,s2
    1a04:	9d26                	add	s10,s10,s1
    1a06:	4492                	lw	s1,4(sp)
    1a08:	996a                	add	s2,s2,s10
    1a0a:	40e48733          	sub	a4,s1,a4
    1a0e:	41470a33          	sub	s4,a4,s4
    1a12:	00fb8733          	add	a4,s7,a5
    1a16:	01773ab3          	sltu	s5,a4,s7
    1a1a:	9a96                	add	s5,s5,t0
    1a1c:	006a9493          	slli	s1,s5,0x6
    1a20:	01a75e13          	srli	t3,a4,0x1a
    1a24:	01c4ee33          	or	t3,s1,t3
    1a28:	9372                	add	t1,t1,t3
    1a2a:	41aad493          	srai	s1,s5,0x1a
    1a2e:	01c33e33          	sltu	t3,t1,t3
    1a32:	9da6                	add	s11,s11,s1
    1a34:	9df2                	add	s11,s11,t3
    1a36:	01000e37          	lui	t3,0x1000
    1a3a:	01c98b33          	add	s6,s3,t3
    1a3e:	00eef733          	and	a4,t4,a4
    1a42:	415284b3          	sub	s1,t0,s5
    1a46:	40eb8733          	sub	a4,s7,a4
    1a4a:	013b3ab3          	sltu	s5,s6,s3
    1a4e:	00ebbbb3          	sltu	s7,s7,a4
    1a52:	9956                	add	s2,s2,s5
    1a54:	00791293          	slli	t0,s2,0x7
    1a58:	417484b3          	sub	s1,s1,s7
    1a5c:	019b5b93          	srli	s7,s6,0x19
    1a60:	0172ebb3          	or	s7,t0,s7
    1a64:	42b2                	lw	t0,12(sp)
    1a66:	4ae2                	lw	s5,24(sp)
    1a68:	41995913          	srai	s2,s2,0x19
    1a6c:	92de                	add	t0,t0,s7
    1a6e:	0172bbb3          	sltu	s7,t0,s7
    1a72:	9956                	add	s2,s2,s5
    1a74:	012b8ab3          	add	s5,s7,s2
    1a78:	fe000937          	lui	s2,0xfe000
    1a7c:	01697b33          	and	s6,s2,s6
    1a80:	416989b3          	sub	s3,s3,s6
    1a84:	01c30b33          	add	s6,t1,t3
    1a88:	006b3bb3          	sltu	s7,s6,t1
    1a8c:	00f28cb3          	add	s9,t0,a5
    1a90:	9dde                	add	s11,s11,s7
    1a92:	019b5b93          	srli	s7,s6,0x19
    1a96:	01697b33          	and	s6,s2,s6
    1a9a:	007d9c13          	slli	s8,s11,0x7
    1a9e:	41630333          	sub	t1,t1,s6
    1aa2:	005cbb33          	sltu	s6,s9,t0
    1aa6:	017c6bb3          	or	s7,s8,s7
    1aaa:	9b56                	add	s6,s6,s5
    1aac:	419ddd93          	srai	s11,s11,0x19
    1ab0:	98de                	add	a7,a7,s7
    1ab2:	9dfe                	add	s11,s11,t6
    1ab4:	01acda93          	srli	s5,s9,0x1a
    1ab8:	006b1f93          	slli	t6,s6,0x6
    1abc:	0178bbb3          	sltu	s7,a7,s7
    1ac0:	015feab3          	or	s5,t6,s5
    1ac4:	4fc2                	lw	t6,16(sp)
    1ac6:	9dde                	add	s11,s11,s7
    1ac8:	4bf2                	lw	s7,28(sp)
    1aca:	9fd6                	add	t6,t6,s5
    1acc:	41ab5b13          	srai	s6,s6,0x1a
    1ad0:	9b5e                	add	s6,s6,s7
    1ad2:	015fbab3          	sltu	s5,t6,s5
    1ad6:	9ada                	add	s5,s5,s6
    1ad8:	00f88b33          	add	s6,a7,a5
    1adc:	011b3bb3          	sltu	s7,s6,a7
    1ae0:	9dde                	add	s11,s11,s7
    1ae2:	006d9c13          	slli	s8,s11,0x6
    1ae6:	01ab5b93          	srli	s7,s6,0x1a
    1aea:	017c6bb3          	or	s7,s8,s7
    1aee:	985e                	add	a6,a6,s7
    1af0:	41addd93          	srai	s11,s11,0x1a
    1af4:	01cf8c33          	add	s8,t6,t3
    1af8:	01783bb3          	sltu	s7,a6,s7
    1afc:	946e                	add	s0,s0,s11
    1afe:	945e                	add	s0,s0,s7
    1b00:	01fc3bb3          	sltu	s7,s8,t6
    1b04:	9ade                	add	s5,s5,s7
    1b06:	007a9d13          	slli	s10,s5,0x7
    1b0a:	019c5b93          	srli	s7,s8,0x19
    1b0e:	017d6bb3          	or	s7,s10,s7
    1b12:	975e                	add	a4,a4,s7
    1b14:	419ada93          	srai	s5,s5,0x19
    1b18:	94d6                	add	s1,s1,s5
    1b1a:	01773bb3          	sltu	s7,a4,s7
    1b1e:	01c80ab3          	add	s5,a6,t3
    1b22:	9ba6                	add	s7,s7,s1
    1b24:	010ab4b3          	sltu	s1,s5,a6
    1b28:	9426                	add	s0,s0,s1
    1b2a:	00741d13          	slli	s10,s0,0x7
    1b2e:	019ad493          	srli	s1,s5,0x19
    1b32:	009d64b3          	or	s1,s10,s1
    1b36:	95a6                	add	a1,a1,s1
    1b38:	8465                	srai	s0,s0,0x19
    1b3a:	0095b4b3          	sltu	s1,a1,s1
    1b3e:	947a                	add	s0,s0,t5
    1b40:	00f70f33          	add	t5,a4,a5
    1b44:	00f58d33          	add	s10,a1,a5
    1b48:	9426                	add	s0,s0,s1
    1b4a:	00ef34b3          	sltu	s1,t5,a4
    1b4e:	9ba6                	add	s7,s7,s1
    1b50:	00bd34b3          	sltu	s1,s10,a1
    1b54:	94a2                	add	s1,s1,s0
    1b56:	00649d93          	slli	s11,s1,0x6
    1b5a:	01ad5413          	srli	s0,s10,0x1a
    1b5e:	008de433          	or	s0,s11,s0
    1b62:	9622                	add	a2,a2,s0
    1b64:	84e9                	srai	s1,s1,0x1a
    1b66:	9e32                	add	t3,t3,a2
    1b68:	00863433          	sltu	s0,a2,s0
    1b6c:	949e                	add	s1,s1,t2
    1b6e:	94a2                	add	s1,s1,s0
    1b70:	00ce33b3          	sltu	t2,t3,a2
    1b74:	93a6                	add	t2,t2,s1
    1b76:	00739493          	slli	s1,t2,0x7
    1b7a:	019e5413          	srli	s0,t3,0x19
    1b7e:	4dcd                	li	s11,19
    1b80:	8c45                	or	s0,s0,s1
    1b82:	4193d393          	srai	t2,t2,0x19
    1b86:	028d84b3          	mul	s1,s11,s0
    1b8a:	0b9a                	slli	s7,s7,0x6
    1b8c:	019efcb3          	and	s9,t4,s9
    1b90:	01897c33          	and	s8,s2,s8
    1b94:	016efb33          	and	s6,t4,s6
    1b98:	01597ab3          	and	s5,s2,s5
    1b9c:	01c97e33          	and	t3,s2,t3
    1ba0:	419282b3          	sub	t0,t0,s9
    1ba4:	418f8fb3          	sub	t6,t6,s8
    1ba8:	416888b3          	sub	a7,a7,s6
    1bac:	028db433          	mulhu	s0,s11,s0
    1bb0:	96a6                	add	a3,a3,s1
    1bb2:	97b6                	add	a5,a5,a3
    1bb4:	0096b4b3          	sltu	s1,a3,s1
    1bb8:	41580833          	sub	a6,a6,s5
    1bbc:	41c60e33          	sub	t3,a2,t3
    1bc0:	00552423          	sw	t0,8(a0)
    1bc4:	01f52623          	sw	t6,12(a0)
    1bc8:	01152c23          	sw	a7,24(a0)
    1bcc:	01052e23          	sw	a6,28(a0)
    1bd0:	027d83b3          	mul	t2,s11,t2
    1bd4:	03c52223          	sw	t3,36(a0)
    1bd8:	4916                	lw	s2,68(sp)
    1bda:	5ae2                	lw	s5,56(sp)
    1bdc:	5b52                	lw	s6,52(sp)
    1bde:	5c32                	lw	s8,44(sp)
    1be0:	5ca2                	lw	s9,40(sp)
    1be2:	5d82                	lw	s11,32(sp)
    1be4:	93a2                	add	t2,t2,s0
    1be6:	9a1e                	add	s4,s4,t2
    1be8:	94d2                	add	s1,s1,s4
    1bea:	00d7ba33          	sltu	s4,a5,a3
    1bee:	94d2                	add	s1,s1,s4
    1bf0:	00fef3b3          	and	t2,t4,a5
    1bf4:	049a                	slli	s1,s1,0x6
    1bf6:	83e9                	srli	a5,a5,0x1a
    1bf8:	8fc5                	or	a5,a5,s1
    1bfa:	97ce                	add	a5,a5,s3
    1bfc:	c15c                	sw	a5,4(a0)
    1bfe:	01eef7b3          	and	a5,t4,t5
    1c02:	01af5f13          	srli	t5,t5,0x1a
    1c06:	01ebef33          	or	t5,s7,t5
    1c0a:	01aefeb3          	and	t4,t4,s10
    1c0e:	4436                	lw	s0,76(sp)
    1c10:	407686b3          	sub	a3,a3,t2
    1c14:	8f1d                	sub	a4,a4,a5
    1c16:	9f1a                	add	t5,t5,t1
    1c18:	41d58eb3          	sub	t4,a1,t4
    1c1c:	c114                	sw	a3,0(a0)
    1c1e:	c918                	sw	a4,16(a0)
    1c20:	01e52a23          	sw	t5,20(a0)
    1c24:	03d52023          	sw	t4,32(a0)
    1c28:	44a6                	lw	s1,72(sp)
    1c2a:	4986                	lw	s3,64(sp)
    1c2c:	5a72                	lw	s4,60(sp)
    1c2e:	5bc2                	lw	s7,48(sp)
    1c30:	5d12                	lw	s10,36(sp)
    1c32:	6161                	addi	sp,sp,80
    1c34:	8082                	ret

00001c36 <fe_invert>:
    1c36:	8e1fe2ef          	jal	t0,516 <__riscv_save_0>
    1c3a:	7135                	addi	sp,sp,-160
    1c3c:	84aa                	mv	s1,a0
    1c3e:	850a                	mv	a0,sp
    1c40:	842e                	mv	s0,a1
    1c42:	3295                	jal	15a6 <fe_sq>
    1c44:	858a                	mv	a1,sp
    1c46:	1028                	addi	a0,sp,40
    1c48:	3ab9                	jal	15a6 <fe_sq>
    1c4a:	102c                	addi	a1,sp,40
    1c4c:	852e                	mv	a0,a1
    1c4e:	3aa1                	jal	15a6 <fe_sq>
    1c50:	1030                	addi	a2,sp,40
    1c52:	85a2                	mv	a1,s0
    1c54:	8532                	mv	a0,a2
    1c56:	e3ffe0ef          	jal	ra,a94 <fe_mul>
    1c5a:	1030                	addi	a2,sp,40
    1c5c:	858a                	mv	a1,sp
    1c5e:	850a                	mv	a0,sp
    1c60:	e35fe0ef          	jal	ra,a94 <fe_mul>
    1c64:	858a                	mv	a1,sp
    1c66:	0888                	addi	a0,sp,80
    1c68:	3a3d                	jal	15a6 <fe_sq>
    1c6a:	102c                	addi	a1,sp,40
    1c6c:	852e                	mv	a0,a1
    1c6e:	0890                	addi	a2,sp,80
    1c70:	e25fe0ef          	jal	ra,a94 <fe_mul>
    1c74:	102c                	addi	a1,sp,40
    1c76:	0888                	addi	a0,sp,80
    1c78:	323d                	jal	15a6 <fe_sq>
    1c7a:	4411                	li	s0,4
    1c7c:	088c                	addi	a1,sp,80
    1c7e:	852e                	mv	a0,a1
    1c80:	147d                	addi	s0,s0,-1
    1c82:	3215                	jal	15a6 <fe_sq>
    1c84:	fc65                	bnez	s0,1c7c <fe_invert+0x46>
    1c86:	1030                	addi	a2,sp,40
    1c88:	8532                	mv	a0,a2
    1c8a:	088c                	addi	a1,sp,80
    1c8c:	e09fe0ef          	jal	ra,a94 <fe_mul>
    1c90:	102c                	addi	a1,sp,40
    1c92:	0888                	addi	a0,sp,80
    1c94:	3a09                	jal	15a6 <fe_sq>
    1c96:	4425                	li	s0,9
    1c98:	088c                	addi	a1,sp,80
    1c9a:	852e                	mv	a0,a1
    1c9c:	147d                	addi	s0,s0,-1
    1c9e:	3221                	jal	15a6 <fe_sq>
    1ca0:	fc65                	bnez	s0,1c98 <fe_invert+0x62>
    1ca2:	088c                	addi	a1,sp,80
    1ca4:	852e                	mv	a0,a1
    1ca6:	1030                	addi	a2,sp,40
    1ca8:	dedfe0ef          	jal	ra,a94 <fe_mul>
    1cac:	088c                	addi	a1,sp,80
    1cae:	18a8                	addi	a0,sp,120
    1cb0:	38dd                	jal	15a6 <fe_sq>
    1cb2:	444d                	li	s0,19
    1cb4:	18ac                	addi	a1,sp,120
    1cb6:	852e                	mv	a0,a1
    1cb8:	147d                	addi	s0,s0,-1
    1cba:	30f5                	jal	15a6 <fe_sq>
    1cbc:	fc65                	bnez	s0,1cb4 <fe_invert+0x7e>
    1cbe:	0890                	addi	a2,sp,80
    1cc0:	8532                	mv	a0,a2
    1cc2:	18ac                	addi	a1,sp,120
    1cc4:	dd1fe0ef          	jal	ra,a94 <fe_mul>
    1cc8:	088c                	addi	a1,sp,80
    1cca:	852e                	mv	a0,a1
    1ccc:	38e9                	jal	15a6 <fe_sq>
    1cce:	4425                	li	s0,9
    1cd0:	088c                	addi	a1,sp,80
    1cd2:	852e                	mv	a0,a1
    1cd4:	147d                	addi	s0,s0,-1
    1cd6:	38c1                	jal	15a6 <fe_sq>
    1cd8:	fc65                	bnez	s0,1cd0 <fe_invert+0x9a>
    1cda:	1030                	addi	a2,sp,40
    1cdc:	8532                	mv	a0,a2
    1cde:	088c                	addi	a1,sp,80
    1ce0:	db5fe0ef          	jal	ra,a94 <fe_mul>
    1ce4:	102c                	addi	a1,sp,40
    1ce6:	0888                	addi	a0,sp,80
    1ce8:	387d                	jal	15a6 <fe_sq>
    1cea:	03100413          	li	s0,49
    1cee:	088c                	addi	a1,sp,80
    1cf0:	852e                	mv	a0,a1
    1cf2:	147d                	addi	s0,s0,-1
    1cf4:	384d                	jal	15a6 <fe_sq>
    1cf6:	fc65                	bnez	s0,1cee <fe_invert+0xb8>
    1cf8:	088c                	addi	a1,sp,80
    1cfa:	852e                	mv	a0,a1
    1cfc:	1030                	addi	a2,sp,40
    1cfe:	d97fe0ef          	jal	ra,a94 <fe_mul>
    1d02:	088c                	addi	a1,sp,80
    1d04:	18a8                	addi	a0,sp,120
    1d06:	3045                	jal	15a6 <fe_sq>
    1d08:	06300413          	li	s0,99
    1d0c:	18ac                	addi	a1,sp,120
    1d0e:	852e                	mv	a0,a1
    1d10:	147d                	addi	s0,s0,-1
    1d12:	3851                	jal	15a6 <fe_sq>
    1d14:	fc65                	bnez	s0,1d0c <fe_invert+0xd6>
    1d16:	0890                	addi	a2,sp,80
    1d18:	8532                	mv	a0,a2
    1d1a:	18ac                	addi	a1,sp,120
    1d1c:	d79fe0ef          	jal	ra,a94 <fe_mul>
    1d20:	088c                	addi	a1,sp,80
    1d22:	852e                	mv	a0,a1
    1d24:	3049                	jal	15a6 <fe_sq>
    1d26:	03100413          	li	s0,49
    1d2a:	088c                	addi	a1,sp,80
    1d2c:	852e                	mv	a0,a1
    1d2e:	147d                	addi	s0,s0,-1
    1d30:	389d                	jal	15a6 <fe_sq>
    1d32:	fc65                	bnez	s0,1d2a <fe_invert+0xf4>
    1d34:	1030                	addi	a2,sp,40
    1d36:	8532                	mv	a0,a2
    1d38:	088c                	addi	a1,sp,80
    1d3a:	d5bfe0ef          	jal	ra,a94 <fe_mul>
    1d3e:	102c                	addi	a1,sp,40
    1d40:	852e                	mv	a0,a1
    1d42:	3095                	jal	15a6 <fe_sq>
    1d44:	4411                	li	s0,4
    1d46:	102c                	addi	a1,sp,40
    1d48:	852e                	mv	a0,a1
    1d4a:	147d                	addi	s0,s0,-1
    1d4c:	38a9                	jal	15a6 <fe_sq>
    1d4e:	fc65                	bnez	s0,1d46 <fe_invert+0x110>
    1d50:	860a                	mv	a2,sp
    1d52:	102c                	addi	a1,sp,40
    1d54:	8526                	mv	a0,s1
    1d56:	d3ffe0ef          	jal	ra,a94 <fe_mul>
    1d5a:	610d                	addi	sp,sp,160
    1d5c:	fdefe06f          	j	53a <__riscv_restore_0>

00001d60 <fe_pow22523>:
    1d60:	fb6fe2ef          	jal	t0,516 <__riscv_save_0>
    1d64:	7119                	addi	sp,sp,-128
    1d66:	892a                	mv	s2,a0
    1d68:	0028                	addi	a0,sp,8
    1d6a:	84ae                	mv	s1,a1
    1d6c:	83bff0ef          	jal	ra,15a6 <fe_sq>
    1d70:	002c                	addi	a1,sp,8
    1d72:	1808                	addi	a0,sp,48
    1d74:	833ff0ef          	jal	ra,15a6 <fe_sq>
    1d78:	180c                	addi	a1,sp,48
    1d7a:	852e                	mv	a0,a1
    1d7c:	82bff0ef          	jal	ra,15a6 <fe_sq>
    1d80:	1810                	addi	a2,sp,48
    1d82:	8532                	mv	a0,a2
    1d84:	85a6                	mv	a1,s1
    1d86:	d0ffe0ef          	jal	ra,a94 <fe_mul>
    1d8a:	002c                	addi	a1,sp,8
    1d8c:	1810                	addi	a2,sp,48
    1d8e:	852e                	mv	a0,a1
    1d90:	d05fe0ef          	jal	ra,a94 <fe_mul>
    1d94:	002c                	addi	a1,sp,8
    1d96:	852e                	mv	a0,a1
    1d98:	80fff0ef          	jal	ra,15a6 <fe_sq>
    1d9c:	0030                	addi	a2,sp,8
    1d9e:	8532                	mv	a0,a2
    1da0:	180c                	addi	a1,sp,48
    1da2:	cf3fe0ef          	jal	ra,a94 <fe_mul>
    1da6:	002c                	addi	a1,sp,8
    1da8:	1808                	addi	a0,sp,48
    1daa:	ffcff0ef          	jal	ra,15a6 <fe_sq>
    1dae:	4411                	li	s0,4
    1db0:	180c                	addi	a1,sp,48
    1db2:	852e                	mv	a0,a1
    1db4:	147d                	addi	s0,s0,-1
    1db6:	ff0ff0ef          	jal	ra,15a6 <fe_sq>
    1dba:	f87d                	bnez	s0,1db0 <fe_pow22523+0x50>
    1dbc:	0030                	addi	a2,sp,8
    1dbe:	8532                	mv	a0,a2
    1dc0:	180c                	addi	a1,sp,48
    1dc2:	cd3fe0ef          	jal	ra,a94 <fe_mul>
    1dc6:	002c                	addi	a1,sp,8
    1dc8:	1808                	addi	a0,sp,48
    1dca:	fdcff0ef          	jal	ra,15a6 <fe_sq>
    1dce:	4425                	li	s0,9
    1dd0:	180c                	addi	a1,sp,48
    1dd2:	852e                	mv	a0,a1
    1dd4:	147d                	addi	s0,s0,-1
    1dd6:	fd0ff0ef          	jal	ra,15a6 <fe_sq>
    1dda:	f87d                	bnez	s0,1dd0 <fe_pow22523+0x70>
    1ddc:	180c                	addi	a1,sp,48
    1dde:	852e                	mv	a0,a1
    1de0:	0030                	addi	a2,sp,8
    1de2:	cb3fe0ef          	jal	ra,a94 <fe_mul>
    1de6:	180c                	addi	a1,sp,48
    1de8:	08a8                	addi	a0,sp,88
    1dea:	fbcff0ef          	jal	ra,15a6 <fe_sq>
    1dee:	444d                	li	s0,19
    1df0:	08ac                	addi	a1,sp,88
    1df2:	852e                	mv	a0,a1
    1df4:	147d                	addi	s0,s0,-1
    1df6:	fb0ff0ef          	jal	ra,15a6 <fe_sq>
    1dfa:	f87d                	bnez	s0,1df0 <fe_pow22523+0x90>
    1dfc:	1810                	addi	a2,sp,48
    1dfe:	8532                	mv	a0,a2
    1e00:	08ac                	addi	a1,sp,88
    1e02:	c93fe0ef          	jal	ra,a94 <fe_mul>
    1e06:	180c                	addi	a1,sp,48
    1e08:	852e                	mv	a0,a1
    1e0a:	f9cff0ef          	jal	ra,15a6 <fe_sq>
    1e0e:	4425                	li	s0,9
    1e10:	180c                	addi	a1,sp,48
    1e12:	852e                	mv	a0,a1
    1e14:	147d                	addi	s0,s0,-1
    1e16:	f90ff0ef          	jal	ra,15a6 <fe_sq>
    1e1a:	f87d                	bnez	s0,1e10 <fe_pow22523+0xb0>
    1e1c:	0030                	addi	a2,sp,8
    1e1e:	8532                	mv	a0,a2
    1e20:	180c                	addi	a1,sp,48
    1e22:	c73fe0ef          	jal	ra,a94 <fe_mul>
    1e26:	002c                	addi	a1,sp,8
    1e28:	1808                	addi	a0,sp,48
    1e2a:	f7cff0ef          	jal	ra,15a6 <fe_sq>
    1e2e:	03100413          	li	s0,49
    1e32:	180c                	addi	a1,sp,48
    1e34:	852e                	mv	a0,a1
    1e36:	147d                	addi	s0,s0,-1
    1e38:	f6eff0ef          	jal	ra,15a6 <fe_sq>
    1e3c:	f87d                	bnez	s0,1e32 <fe_pow22523+0xd2>
    1e3e:	180c                	addi	a1,sp,48
    1e40:	852e                	mv	a0,a1
    1e42:	0030                	addi	a2,sp,8
    1e44:	c51fe0ef          	jal	ra,a94 <fe_mul>
    1e48:	180c                	addi	a1,sp,48
    1e4a:	08a8                	addi	a0,sp,88
    1e4c:	f5aff0ef          	jal	ra,15a6 <fe_sq>
    1e50:	06300413          	li	s0,99
    1e54:	08ac                	addi	a1,sp,88
    1e56:	852e                	mv	a0,a1
    1e58:	147d                	addi	s0,s0,-1
    1e5a:	f4cff0ef          	jal	ra,15a6 <fe_sq>
    1e5e:	f87d                	bnez	s0,1e54 <fe_pow22523+0xf4>
    1e60:	1810                	addi	a2,sp,48
    1e62:	8532                	mv	a0,a2
    1e64:	08ac                	addi	a1,sp,88
    1e66:	c2ffe0ef          	jal	ra,a94 <fe_mul>
    1e6a:	180c                	addi	a1,sp,48
    1e6c:	852e                	mv	a0,a1
    1e6e:	f38ff0ef          	jal	ra,15a6 <fe_sq>
    1e72:	03100413          	li	s0,49
    1e76:	180c                	addi	a1,sp,48
    1e78:	852e                	mv	a0,a1
    1e7a:	147d                	addi	s0,s0,-1
    1e7c:	f2aff0ef          	jal	ra,15a6 <fe_sq>
    1e80:	f87d                	bnez	s0,1e76 <fe_pow22523+0x116>
    1e82:	0030                	addi	a2,sp,8
    1e84:	8532                	mv	a0,a2
    1e86:	180c                	addi	a1,sp,48
    1e88:	c0dfe0ef          	jal	ra,a94 <fe_mul>
    1e8c:	002c                	addi	a1,sp,8
    1e8e:	852e                	mv	a0,a1
    1e90:	f16ff0ef          	jal	ra,15a6 <fe_sq>
    1e94:	002c                	addi	a1,sp,8
    1e96:	852e                	mv	a0,a1
    1e98:	f0eff0ef          	jal	ra,15a6 <fe_sq>
    1e9c:	002c                	addi	a1,sp,8
    1e9e:	8626                	mv	a2,s1
    1ea0:	854a                	mv	a0,s2
    1ea2:	bf3fe0ef          	jal	ra,a94 <fe_mul>
    1ea6:	6109                	addi	sp,sp,128
    1ea8:	e92fe06f          	j	53a <__riscv_restore_0>

00001eac <fe_sq2>:
    1eac:	715d                	addi	sp,sp,-80
    1eae:	d26a                	sw	s10,36(sp)
    1eb0:	0245ad03          	lw	s10,36(a1)
    1eb4:	d662                	sw	s8,44(sp)
    1eb6:	02600c13          	li	s8,38
    1eba:	038d06b3          	mul	a3,s10,s8
    1ebe:	0045a303          	lw	t1,4(a1)
    1ec2:	0205ae83          	lw	t4,32(a1)
    1ec6:	0005ae03          	lw	t3,0(a1)
    1eca:	00131713          	slli	a4,t1,0x1
    1ece:	d06e                	sw	s11,32(sp)
    1ed0:	4dcd                	li	s11,19
    1ed2:	001e1793          	slli	a5,t3,0x1
    1ed6:	dc56                	sw	s5,56(sp)
    1ed8:	c6a2                	sw	s0,76(sp)
    1eda:	03be8833          	mul	a6,t4,s11
    1ede:	c0ce                	sw	s3,64(sp)
    1ee0:	0085a883          	lw	a7,8(a1)
    1ee4:	01c5a983          	lw	s3,28(a1)
    1ee8:	d466                	sw	s9,40(sp)
    1eea:	00189c93          	slli	s9,a7,0x1
    1eee:	00c5af83          	lw	t6,12(a1)
    1ef2:	da5a                	sw	s6,52(sp)
    1ef4:	0185ab03          	lw	s6,24(a1)
    1ef8:	c2ca                	sw	s2,68(sp)
    1efa:	02d71ab3          	mulh	s5,a4,a3
    1efe:	001f9913          	slli	s2,t6,0x1
    1f02:	4990                	lw	a2,16(a1)
    1f04:	d85e                	sw	s7,48(sp)
    1f06:	de52                	sw	s4,60(sp)
    1f08:	00161b93          	slli	s7,a2,0x1
    1f0c:	0145aa03          	lw	s4,20(a1)
    1f10:	c4a6                	sw	s1,72(sp)
    1f12:	00199493          	slli	s1,s3,0x1
    1f16:	001a1593          	slli	a1,s4,0x1
    1f1a:	03ce03b3          	mul	t2,t3,t3
    1f1e:	03ce1e33          	mulh	t3,t3,t3
    1f22:	02d70433          	mul	s0,a4,a3
    1f26:	9e56                	add	t3,t3,s5
    1f28:	03898f33          	mul	t5,s3,s8
    1f2c:	941e                	add	s0,s0,t2
    1f2e:	007433b3          	sltu	t2,s0,t2
    1f32:	9e1e                	add	t3,t3,t2
    1f34:	030c9ab3          	mulh	s5,s9,a6
    1f38:	030c83b3          	mul	t2,s9,a6
    1f3c:	9e56                	add	t3,t3,s5
    1f3e:	03bb02b3          	mul	t0,s6,s11
    1f42:	93a2                	add	t2,t2,s0
    1f44:	0083b433          	sltu	s0,t2,s0
    1f48:	9472                	add	s0,s0,t3
    1f4a:	03e90db3          	mul	s11,s2,t5
    1f4e:	03e91ab3          	mulh	s5,s2,t5
    1f52:	9d9e                	add	s11,s11,t2
    1f54:	007db3b3          	sltu	t2,s11,t2
    1f58:	9456                	add	s0,s0,s5
    1f5a:	025b8ab3          	mul	s5,s7,t0
    1f5e:	93a2                	add	t2,t2,s0
    1f60:	025b9433          	mulh	s0,s7,t0
    1f64:	9aee                	add	s5,s5,s11
    1f66:	01babdb3          	sltu	s11,s5,s11
    1f6a:	93a2                	add	t2,t2,s0
    1f6c:	007d8e33          	add	t3,s11,t2
    1f70:	038a03b3          	mul	t2,s4,s8
    1f74:	03438433          	mul	s0,t2,s4
    1f78:	034393b3          	mulh	t2,t2,s4
    1f7c:	9456                	add	s0,s0,s5
    1f7e:	01543ab3          	sltu	s5,s0,s5
    1f82:	c022                	sw	s0,0(sp)
    1f84:	93f2                	add	t2,t2,t3
    1f86:	007a8433          	add	s0,s5,t2
    1f8a:	c422                	sw	s0,8(sp)
    1f8c:	02678e33          	mul	t3,a5,t1
    1f90:	02d88433          	mul	s0,a7,a3
    1f94:	02679ab3          	mulh	s5,a5,t1
    1f98:	9472                	add	s0,s0,t3
    1f9a:	01c43e33          	sltu	t3,s0,t3
    1f9e:	02d89c33          	mulh	s8,a7,a3
    1fa2:	018a83b3          	add	t2,s5,s8
    1fa6:	93f2                	add	t2,t2,t3
    1fa8:	03090e33          	mul	t3,s2,a6
    1fac:	03091ab3          	mulh	s5,s2,a6
    1fb0:	9e22                	add	t3,t3,s0
    1fb2:	008e3433          	sltu	s0,t3,s0
    1fb6:	93d6                	add	t2,t2,s5
    1fb8:	03e60ab3          	mul	s5,a2,t5
    1fbc:	93a2                	add	t2,t2,s0
    1fbe:	03e61433          	mulh	s0,a2,t5
    1fc2:	9af2                	add	s5,s5,t3
    1fc4:	01cabe33          	sltu	t3,s5,t3
    1fc8:	93a2                	add	t2,t2,s0
    1fca:	02558433          	mul	s0,a1,t0
    1fce:	93f2                	add	t2,t2,t3
    1fd0:	02559e33          	mulh	t3,a1,t0
    1fd4:	9456                	add	s0,s0,s5
    1fd6:	01543ab3          	sltu	s5,s0,s5
    1fda:	c222                	sw	s0,4(sp)
    1fdc:	93f2                	add	t2,t2,t3
    1fde:	007a8433          	add	s0,s5,t2
    1fe2:	c622                	sw	s0,12(sp)
    1fe4:	03178ab3          	mul	s5,a5,a7
    1fe8:	02e30433          	mul	s0,t1,a4
    1fec:	03179c33          	mulh	s8,a5,a7
    1ff0:	9456                	add	s0,s0,s5
    1ff2:	01543ab3          	sltu	s5,s0,s5
    1ff6:	02e31333          	mulh	t1,t1,a4
    1ffa:	006c03b3          	add	t2,s8,t1
    1ffe:	93d6                	add	t2,t2,s5
    2000:	02d90ab3          	mul	s5,s2,a3
    2004:	02d91c33          	mulh	s8,s2,a3
    2008:	9aa2                	add	s5,s5,s0
    200a:	008ab433          	sltu	s0,s5,s0
    200e:	03780333          	mul	t1,a6,s7
    2012:	93e2                	add	t2,t2,s8
    2014:	93a2                	add	t2,t2,s0
    2016:	03781433          	mulh	s0,a6,s7
    201a:	9356                	add	t1,t1,s5
    201c:	01533ab3          	sltu	s5,t1,s5
    2020:	93a2                	add	t2,t2,s0
    2022:	03e58c33          	mul	s8,a1,t5
    2026:	007a8e33          	add	t3,s5,t2
    202a:	03e593b3          	mulh	t2,a1,t5
    202e:	9c1a                	add	s8,s8,t1
    2030:	006c3333          	sltu	t1,s8,t1
    2034:	9e1e                	add	t3,t3,t2
    2036:	9372                	add	t1,t1,t3
    2038:	025b0e33          	mul	t3,s6,t0
    203c:	025b12b3          	mulh	t0,s6,t0
    2040:	9e62                	add	t3,t3,s8
    2042:	018e3c33          	sltu	s8,t3,s8
    2046:	929a                	add	t0,t0,t1
    2048:	005c0433          	add	s0,s8,t0
    204c:	03f78333          	mul	t1,a5,t6
    2050:	c822                	sw	s0,16(sp)
    2052:	02e883b3          	mul	t2,a7,a4
    2056:	03f79433          	mulh	s0,a5,t6
    205a:	939a                	add	t2,t2,t1
    205c:	0063b333          	sltu	t1,t2,t1
    2060:	02e89ab3          	mulh	s5,a7,a4
    2064:	015402b3          	add	t0,s0,s5
    2068:	929a                	add	t0,t0,t1
    206a:	02d60333          	mul	t1,a2,a3
    206e:	02d61433          	mulh	s0,a2,a3
    2072:	931e                	add	t1,t1,t2
    2074:	007333b3          	sltu	t2,t1,t2
    2078:	92a2                	add	t0,t0,s0
    207a:	03058433          	mul	s0,a1,a6
    207e:	929e                	add	t0,t0,t2
    2080:	030593b3          	mulh	t2,a1,a6
    2084:	941a                	add	s0,s0,t1
    2086:	00643333          	sltu	t1,s0,t1
    208a:	929e                	add	t0,t0,t2
    208c:	929a                	add	t0,t0,t1
    208e:	03eb0333          	mul	t1,s6,t5
    2092:	03eb13b3          	mulh	t2,s6,t5
    2096:	9322                	add	t1,t1,s0
    2098:	00833433          	sltu	s0,t1,s0
    209c:	929e                	add	t0,t0,t2
    209e:	9416                	add	s0,s0,t0
    20a0:	ca22                	sw	s0,20(sp)
    20a2:	032702b3          	mul	t0,a4,s2
    20a6:	02c78433          	mul	s0,a5,a2
    20aa:	03271ab3          	mulh	s5,a4,s2
    20ae:	92a2                	add	t0,t0,s0
    20b0:	0082b433          	sltu	s0,t0,s0
    20b4:	02c793b3          	mulh	t2,a5,a2
    20b8:	03188c33          	mul	s8,a7,a7
    20bc:	93d6                	add	t2,t2,s5
    20be:	941e                	add	s0,s0,t2
    20c0:	031898b3          	mulh	a7,a7,a7
    20c4:	9c16                	add	s8,s8,t0
    20c6:	005c32b3          	sltu	t0,s8,t0
    20ca:	02d58db3          	mul	s11,a1,a3
    20ce:	9446                	add	s0,s0,a7
    20d0:	9416                	add	s0,s0,t0
    20d2:	001b1293          	slli	t0,s6,0x1
    20d6:	02d598b3          	mulh	a7,a1,a3
    20da:	9de2                	add	s11,s11,s8
    20dc:	018dbc33          	sltu	s8,s11,s8
    20e0:	9446                	add	s0,s0,a7
    20e2:	030288b3          	mul	a7,t0,a6
    20e6:	9c22                	add	s8,s8,s0
    20e8:	030292b3          	mulh	t0,t0,a6
    20ec:	98ee                	add	a7,a7,s11
    20ee:	01b8bdb3          	sltu	s11,a7,s11
    20f2:	03e98433          	mul	s0,s3,t5
    20f6:	9c16                	add	s8,s8,t0
    20f8:	9de2                	add	s11,s11,s8
    20fa:	03e99f33          	mulh	t5,s3,t5
    20fe:	9446                	add	s0,s0,a7
    2100:	011438b3          	sltu	a7,s0,a7
    2104:	9f6e                	add	t5,t5,s11
    2106:	98fa                	add	a7,a7,t5
    2108:	cc46                	sw	a7,24(sp)
    210a:	02e602b3          	mul	t0,a2,a4
    210e:	034788b3          	mul	a7,a5,s4
    2112:	034793b3          	mulh	t2,a5,s4
    2116:	92c6                	add	t0,t0,a7
    2118:	0112b8b3          	sltu	a7,t0,a7
    211c:	02e61ab3          	mulh	s5,a2,a4
    2120:	01538f33          	add	t5,t2,s5
    2124:	9f46                	add	t5,t5,a7
    2126:	039f88b3          	mul	a7,t6,s9
    212a:	039f93b3          	mulh	t2,t6,s9
    212e:	9896                	add	a7,a7,t0
    2130:	0058b2b3          	sltu	t0,a7,t0
    2134:	02db0ab3          	mul	s5,s6,a3
    2138:	9f1e                	add	t5,t5,t2
    213a:	9f16                	add	t5,t5,t0
    213c:	02db12b3          	mulh	t0,s6,a3
    2140:	9ac6                	add	s5,s5,a7
    2142:	011ab8b3          	sltu	a7,s5,a7
    2146:	030483b3          	mul	t2,s1,a6
    214a:	9f16                	add	t5,t5,t0
    214c:	9f46                	add	t5,t5,a7
    214e:	030498b3          	mulh	a7,s1,a6
    2152:	93d6                	add	t2,t2,s5
    2154:	0153bab3          	sltu	s5,t2,s5
    2158:	9f46                	add	t5,t5,a7
    215a:	01ea88b3          	add	a7,s5,t5
    215e:	02b702b3          	mul	t0,a4,a1
    2162:	ce46                	sw	a7,28(sp)
    2164:	03678f33          	mul	t5,a5,s6
    2168:	03679ab3          	mulh	s5,a5,s6
    216c:	92fa                	add	t0,t0,t5
    216e:	01e2bf33          	sltu	t5,t0,t5
    2172:	02b71c33          	mulh	s8,a4,a1
    2176:	018a88b3          	add	a7,s5,s8
    217a:	98fa                	add	a7,a7,t5
    217c:	03960f33          	mul	t5,a2,s9
    2180:	03961ab3          	mulh	s5,a2,s9
    2184:	9f16                	add	t5,t5,t0
    2186:	005f32b3          	sltu	t0,t5,t0
    218a:	032f8c33          	mul	s8,t6,s2
    218e:	98d6                	add	a7,a7,s5
    2190:	92c6                	add	t0,t0,a7
    2192:	032f9fb3          	mulh	t6,t6,s2
    2196:	9c7a                	add	s8,s8,t5
    2198:	01ec3f33          	sltu	t5,s8,t5
    219c:	02d48db3          	mul	s11,s1,a3
    21a0:	9f96                	add	t6,t6,t0
    21a2:	9ffa                	add	t6,t6,t5
    21a4:	02d49f33          	mulh	t5,s1,a3
    21a8:	9de2                	add	s11,s11,s8
    21aa:	018dbc33          	sltu	s8,s11,s8
    21ae:	030e88b3          	mul	a7,t4,a6
    21b2:	9ffa                	add	t6,t6,t5
    21b4:	9c7e                	add	s8,s8,t6
    21b6:	030e9833          	mulh	a6,t4,a6
    21ba:	98ee                	add	a7,a7,s11
    21bc:	01b8b2b3          	sltu	t0,a7,s11
    21c0:	9862                	add	a6,a6,s8
    21c2:	02eb0ab3          	mul	s5,s6,a4
    21c6:	92c2                	add	t0,t0,a6
    21c8:	0286                	slli	t0,t0,0x1
    21ca:	03378833          	mul	a6,a5,s3
    21ce:	03379fb3          	mulh	t6,a5,s3
    21d2:	9ac2                	add	s5,s5,a6
    21d4:	010ab833          	sltu	a6,s5,a6
    21d8:	02eb1c33          	mulh	s8,s6,a4
    21dc:	018f8f33          	add	t5,t6,s8
    21e0:	9f42                	add	t5,t5,a6
    21e2:	039a0833          	mul	a6,s4,s9
    21e6:	039a1c33          	mulh	s8,s4,s9
    21ea:	9856                	add	a6,a6,s5
    21ec:	01583ab3          	sltu	s5,a6,s5
    21f0:	9f62                	add	t5,t5,s8
    21f2:	03260c33          	mul	s8,a2,s2
    21f6:	9f56                	add	t5,t5,s5
    21f8:	03261ab3          	mulh	s5,a2,s2
    21fc:	9c42                	add	s8,s8,a6
    21fe:	010c3833          	sltu	a6,s8,a6
    2202:	9f56                	add	t5,t5,s5
    2204:	9f42                	add	t5,t5,a6
    2206:	02de8833          	mul	a6,t4,a3
    220a:	02de9ab3          	mulh	s5,t4,a3
    220e:	9862                	add	a6,a6,s8
    2210:	01883fb3          	sltu	t6,a6,s8
    2214:	9f56                	add	t5,t5,s5
    2216:	9ffa                	add	t6,t6,t5
    2218:	02970ab3          	mul	s5,a4,s1
    221c:	0f86                	slli	t6,t6,0x1
    221e:	03d78f33          	mul	t5,a5,t4
    2222:	03d79c33          	mulh	s8,a5,t4
    2226:	9afa                	add	s5,s5,t5
    2228:	01eabf33          	sltu	t5,s5,t5
    222c:	029714b3          	mulh	s1,a4,s1
    2230:	94e2                	add	s1,s1,s8
    2232:	9f26                	add	t5,t5,s1
    2234:	039b04b3          	mul	s1,s6,s9
    2238:	039b1c33          	mulh	s8,s6,s9
    223c:	94d6                	add	s1,s1,s5
    223e:	0154bab3          	sltu	s5,s1,s5
    2242:	02b90db3          	mul	s11,s2,a1
    2246:	9f62                	add	t5,t5,s8
    2248:	9afa                	add	s5,s5,t5
    224a:	02b915b3          	mulh	a1,s2,a1
    224e:	9da6                	add	s11,s11,s1
    2250:	009db4b3          	sltu	s1,s11,s1
    2254:	02c60c33          	mul	s8,a2,a2
    2258:	9aae                	add	s5,s5,a1
    225a:	9aa6                	add	s5,s5,s1
    225c:	02c61633          	mulh	a2,a2,a2
    2260:	9c6e                	add	s8,s8,s11
    2262:	01bc3db3          	sltu	s11,s8,s11
    2266:	02dd05b3          	mul	a1,s10,a3
    226a:	9656                	add	a2,a2,s5
    226c:	9db2                	add	s11,s11,a2
    226e:	02dd16b3          	mulh	a3,s10,a3
    2272:	95e2                	add	a1,a1,s8
    2274:	0185bf33          	sltu	t5,a1,s8
    2278:	96ee                	add	a3,a3,s11
    227a:	02ee8633          	mul	a2,t4,a4
    227e:	9f36                	add	t5,t5,a3
    2280:	0f06                	slli	t5,t5,0x1
    2282:	03a786b3          	mul	a3,a5,s10
    2286:	02ee9733          	mulh	a4,t4,a4
    228a:	9636                	add	a2,a2,a3
    228c:	00d636b3          	sltu	a3,a2,a3
    2290:	03a797b3          	mulh	a5,a5,s10
    2294:	039984b3          	mul	s1,s3,s9
    2298:	97ba                	add	a5,a5,a4
    229a:	96be                	add	a3,a3,a5
    229c:	4722                	lw	a4,8(sp)
    229e:	4782                	lw	a5,0(sp)
    22a0:	83fd                	srli	a5,a5,0x1f
    22a2:	03999cb3          	mulh	s9,s3,s9
    22a6:	94b2                	add	s1,s1,a2
    22a8:	00c4b633          	sltu	a2,s1,a2
    22ac:	032b0ab3          	mul	s5,s6,s2
    22b0:	96e6                	add	a3,a3,s9
    22b2:	9636                	add	a2,a2,a3
    22b4:	032b1933          	mulh	s2,s6,s2
    22b8:	9aa6                	add	s5,s5,s1
    22ba:	009ab4b3          	sltu	s1,s5,s1
    22be:	964a                	add	a2,a2,s2
    22c0:	94b2                	add	s1,s1,a2
    22c2:	037a0633          	mul	a2,s4,s7
    22c6:	9656                	add	a2,a2,s5
    22c8:	01563eb3          	sltu	t4,a2,s5
    22cc:	00171a93          	slli	s5,a4,0x1
    22d0:	0157eab3          	or	s5,a5,s5
    22d4:	4782                	lw	a5,0(sp)
    22d6:	46b2                	lw	a3,12(sp)
    22d8:	037a1a33          	mulh	s4,s4,s7
    22dc:	00179713          	slli	a4,a5,0x1
    22e0:	00169d93          	slli	s11,a3,0x1
    22e4:	46c2                	lw	a3,16(sp)
    22e6:	4792                	lw	a5,4(sp)
    22e8:	00169c13          	slli	s8,a3,0x1
    22ec:	46d2                	lw	a3,20(sp)
    22ee:	83fd                	srli	a5,a5,0x1f
    22f0:	01b7edb3          	or	s11,a5,s11
    22f4:	00169d13          	slli	s10,a3,0x1
    22f8:	4792                	lw	a5,4(sp)
    22fa:	46e2                	lw	a3,24(sp)
    22fc:	9a26                	add	s4,s4,s1
    22fe:	00179993          	slli	s3,a5,0x1
    2302:	00169493          	slli	s1,a3,0x1
    2306:	01fe5793          	srli	a5,t3,0x1f
    230a:	46f2                	lw	a3,28(sp)
    230c:	0187ec33          	or	s8,a5,s8
    2310:	01f35793          	srli	a5,t1,0x1f
    2314:	01a7ed33          	or	s10,a5,s10
    2318:	01f45793          	srli	a5,s0,0x1f
    231c:	8cdd                	or	s1,s1,a5
    231e:	00169b93          	slli	s7,a3,0x1
    2322:	01f3d793          	srli	a5,t2,0x1f
    2326:	0177ebb3          	or	s7,a5,s7
    232a:	01f8d793          	srli	a5,a7,0x1f
    232e:	0057e2b3          	or	t0,a5,t0
    2332:	01f85793          	srli	a5,a6,0x1f
    2336:	9ed2                	add	t4,t4,s4
    2338:	01f7efb3          	or	t6,a5,t6
    233c:	01f5d793          	srli	a5,a1,0x1f
    2340:	01e7ef33          	or	t5,a5,t5
    2344:	0e86                	slli	t4,t4,0x1
    2346:	01f65793          	srli	a5,a2,0x1f
    234a:	01d7eeb3          	or	t4,a5,t4
    234e:	020007b7          	lui	a5,0x2000
    2352:	00f706b3          	add	a3,a4,a5
    2356:	00e6bcb3          	sltu	s9,a3,a4
    235a:	9cd6                	add	s9,s9,s5
    235c:	006c9a13          	slli	s4,s9,0x6
    2360:	01a6d913          	srli	s2,a3,0x1a
    2364:	012a6933          	or	s2,s4,s2
    2368:	99ca                	add	s3,s3,s2
    236a:	41acda13          	srai	s4,s9,0x1a
    236e:	0129b933          	sltu	s2,s3,s2
    2372:	01ba0b33          	add	s6,s4,s11
    2376:	9b4a                	add	s6,s6,s2
    2378:	fc000937          	lui	s2,0xfc000
    237c:	00d976b3          	and	a3,s2,a3
    2380:	40d706b3          	sub	a3,a4,a3
    2384:	0406                	slli	s0,s0,0x1
    2386:	00d73733          	sltu	a4,a4,a3
    238a:	419a8a33          	sub	s4,s5,s9
    238e:	40ea0a33          	sub	s4,s4,a4
    2392:	00f40733          	add	a4,s0,a5
    2396:	00873db3          	sltu	s11,a4,s0
    239a:	9da6                	add	s11,s11,s1
    239c:	006d9a93          	slli	s5,s11,0x6
    23a0:	01a75c93          	srli	s9,a4,0x1a
    23a4:	00e97733          	and	a4,s2,a4
    23a8:	019aecb3          	or	s9,s5,s9
    23ac:	40e40733          	sub	a4,s0,a4
    23b0:	0386                	slli	t2,t2,0x1
    23b2:	93e6                	add	t2,t2,s9
    23b4:	41b484b3          	sub	s1,s1,s11
    23b8:	41adda93          	srai	s5,s11,0x1a
    23bc:	00e43433          	sltu	s0,s0,a4
    23c0:	0193bcb3          	sltu	s9,t2,s9
    23c4:	9ade                	add	s5,s5,s7
    23c6:	40848433          	sub	s0,s1,s0
    23ca:	010004b7          	lui	s1,0x1000
    23ce:	9ae6                	add	s5,s5,s9
    23d0:	00998cb3          	add	s9,s3,s1
    23d4:	013cbbb3          	sltu	s7,s9,s3
    23d8:	9bda                	add	s7,s7,s6
    23da:	007b9b13          	slli	s6,s7,0x7
    23de:	019cdd93          	srli	s11,s9,0x19
    23e2:	419bdb93          	srai	s7,s7,0x19
    23e6:	01bb6db3          	or	s11,s6,s11
    23ea:	9be2                	add	s7,s7,s8
    23ec:	0e06                	slli	t3,t3,0x1
    23ee:	fe000c37          	lui	s8,0xfe000
    23f2:	9e6e                	add	t3,t3,s11
    23f4:	019c7cb3          	and	s9,s8,s9
    23f8:	01be3db3          	sltu	s11,t3,s11
    23fc:	419989b3          	sub	s3,s3,s9
    2400:	00938cb3          	add	s9,t2,s1
    2404:	017d8b33          	add	s6,s11,s7
    2408:	007cbbb3          	sltu	s7,s9,t2
    240c:	9bd6                	add	s7,s7,s5
    240e:	007b9d93          	slli	s11,s7,0x7
    2412:	019cda93          	srli	s5,s9,0x19
    2416:	019c7cb3          	and	s9,s8,s9
    241a:	015deab3          	or	s5,s11,s5
    241e:	419383b3          	sub	t2,t2,s9
    2422:	0886                	slli	a7,a7,0x1
    2424:	00fe0cb3          	add	s9,t3,a5
    2428:	419bdb93          	srai	s7,s7,0x19
    242c:	98d6                	add	a7,a7,s5
    242e:	9b96                	add	s7,s7,t0
    2430:	01ccb2b3          	sltu	t0,s9,t3
    2434:	0158bab3          	sltu	s5,a7,s5
    2438:	9b16                	add	s6,s6,t0
    243a:	9bd6                	add	s7,s7,s5
    243c:	01acd293          	srli	t0,s9,0x1a
    2440:	006b1a93          	slli	s5,s6,0x6
    2444:	005ae2b3          	or	t0,s5,t0
    2448:	0306                	slli	t1,t1,0x1
    244a:	9316                	add	t1,t1,t0
    244c:	41ab5b13          	srai	s6,s6,0x1a
    2450:	005332b3          	sltu	t0,t1,t0
    2454:	9d5a                	add	s10,s10,s6
    2456:	00f88b33          	add	s6,a7,a5
    245a:	9d16                	add	s10,s10,t0
    245c:	011b32b3          	sltu	t0,s6,a7
    2460:	9b96                	add	s7,s7,t0
    2462:	00930ab3          	add	s5,t1,s1
    2466:	006b9293          	slli	t0,s7,0x6
    246a:	01ab5d93          	srli	s11,s6,0x1a
    246e:	01b2edb3          	or	s11,t0,s11
    2472:	006ab2b3          	sltu	t0,s5,t1
    2476:	9d16                	add	s10,s10,t0
    2478:	41abdb93          	srai	s7,s7,0x1a
    247c:	9fde                	add	t6,t6,s7
    247e:	019ad293          	srli	t0,s5,0x19
    2482:	007d1b93          	slli	s7,s10,0x7
    2486:	005be2b3          	or	t0,s7,t0
    248a:	0806                	slli	a6,a6,0x1
    248c:	986e                	add	a6,a6,s11
    248e:	9716                	add	a4,a4,t0
    2490:	419d5d13          	srai	s10,s10,0x19
    2494:	00980bb3          	add	s7,a6,s1
    2498:	01b83db3          	sltu	s11,a6,s11
    249c:	005732b3          	sltu	t0,a4,t0
    24a0:	946a                	add	s0,s0,s10
    24a2:	9fee                	add	t6,t6,s11
    24a4:	9416                	add	s0,s0,t0
    24a6:	010bb2b3          	sltu	t0,s7,a6
    24aa:	9f96                	add	t6,t6,t0
    24ac:	007f9d13          	slli	s10,t6,0x7
    24b0:	019bd293          	srli	t0,s7,0x19
    24b4:	005d62b3          	or	t0,s10,t0
    24b8:	0586                	slli	a1,a1,0x1
    24ba:	9596                	add	a1,a1,t0
    24bc:	419fdf93          	srai	t6,t6,0x19
    24c0:	0055b2b3          	sltu	t0,a1,t0
    24c4:	9f7e                	add	t5,t5,t6
    24c6:	00f70fb3          	add	t6,a4,a5
    24ca:	00f58d33          	add	s10,a1,a5
    24ce:	9f16                	add	t5,t5,t0
    24d0:	00efb2b3          	sltu	t0,t6,a4
    24d4:	9416                	add	s0,s0,t0
    24d6:	00bd32b3          	sltu	t0,s10,a1
    24da:	9f16                	add	t5,t5,t0
    24dc:	006f1d93          	slli	s11,t5,0x6
    24e0:	01ad5293          	srli	t0,s10,0x1a
    24e4:	005de2b3          	or	t0,s11,t0
    24e8:	0606                	slli	a2,a2,0x1
    24ea:	9616                	add	a2,a2,t0
    24ec:	41af5f13          	srai	t5,t5,0x1a
    24f0:	94b2                	add	s1,s1,a2
    24f2:	005632b3          	sltu	t0,a2,t0
    24f6:	9f76                	add	t5,t5,t4
    24f8:	9f16                	add	t5,t5,t0
    24fa:	00c4beb3          	sltu	t4,s1,a2
    24fe:	9efa                	add	t4,t4,t5
    2500:	007e9293          	slli	t0,t4,0x7
    2504:	0194df13          	srli	t5,s1,0x19
    2508:	4dcd                	li	s11,19
    250a:	01e2ef33          	or	t5,t0,t5
    250e:	419ede93          	srai	t4,t4,0x19
    2512:	03ed82b3          	mul	t0,s11,t5
    2516:	041a                	slli	s0,s0,0x6
    2518:	01997cb3          	and	s9,s2,s9
    251c:	015c7ab3          	and	s5,s8,s5
    2520:	01697b33          	and	s6,s2,s6
    2524:	017c7bb3          	and	s7,s8,s7
    2528:	009c74b3          	and	s1,s8,s1
    252c:	419e0e33          	sub	t3,t3,s9
    2530:	41530333          	sub	t1,t1,s5
    2534:	416888b3          	sub	a7,a7,s6
    2538:	03dd8eb3          	mul	t4,s11,t4
    253c:	9696                	add	a3,a3,t0
    253e:	97b6                	add	a5,a5,a3
    2540:	0056b2b3          	sltu	t0,a3,t0
    2544:	41780833          	sub	a6,a6,s7
    2548:	409604b3          	sub	s1,a2,s1
    254c:	d144                	sw	s1,36(a0)
    254e:	01c52423          	sw	t3,8(a0)
    2552:	00652623          	sw	t1,12(a0)
    2556:	01152c23          	sw	a7,24(a0)
    255a:	03edbf33          	mulhu	t5,s11,t5
    255e:	01052e23          	sw	a6,28(a0)
    2562:	44a6                	lw	s1,72(sp)
    2564:	5ae2                	lw	s5,56(sp)
    2566:	5b52                	lw	s6,52(sp)
    2568:	5bc2                	lw	s7,48(sp)
    256a:	5c32                	lw	s8,44(sp)
    256c:	5ca2                	lw	s9,40(sp)
    256e:	5d82                	lw	s11,32(sp)
    2570:	9efa                	add	t4,t4,t5
    2572:	9a76                	add	s4,s4,t4
    2574:	92d2                	add	t0,t0,s4
    2576:	00d7ba33          	sltu	s4,a5,a3
    257a:	92d2                	add	t0,t0,s4
    257c:	00f97eb3          	and	t4,s2,a5
    2580:	029a                	slli	t0,t0,0x6
    2582:	83e9                	srli	a5,a5,0x1a
    2584:	00f2e7b3          	or	a5,t0,a5
    2588:	97ce                	add	a5,a5,s3
    258a:	c15c                	sw	a5,4(a0)
    258c:	01f977b3          	and	a5,s2,t6
    2590:	01afdf93          	srli	t6,t6,0x1a
    2594:	01a97933          	and	s2,s2,s10
    2598:	01f46fb3          	or	t6,s0,t6
    259c:	4436                	lw	s0,76(sp)
    259e:	412585b3          	sub	a1,a1,s2
    25a2:	41d686b3          	sub	a3,a3,t4
    25a6:	8f1d                	sub	a4,a4,a5
    25a8:	93fe                	add	t2,t2,t6
    25aa:	c114                	sw	a3,0(a0)
    25ac:	c918                	sw	a4,16(a0)
    25ae:	00752a23          	sw	t2,20(a0)
    25b2:	d10c                	sw	a1,32(a0)
    25b4:	4916                	lw	s2,68(sp)
    25b6:	4986                	lw	s3,64(sp)
    25b8:	5a72                	lw	s4,60(sp)
    25ba:	5d12                	lw	s10,36(sp)
    25bc:	6161                	addi	sp,sp,80
    25be:	8082                	ret

000025c0 <fe_sub>:
    25c0:	425c                	lw	a5,4(a2)
    25c2:	0045af03          	lw	t5,4(a1)
    25c6:	0085ae83          	lw	t4,8(a1)
    25ca:	00c5ae03          	lw	t3,12(a1)
    25ce:	40ff0f33          	sub	t5,t5,a5
    25d2:	461c                	lw	a5,8(a2)
    25d4:	0105a303          	lw	t1,16(a1)
    25d8:	0145a883          	lw	a7,20(a1)
    25dc:	40fe8eb3          	sub	t4,t4,a5
    25e0:	465c                	lw	a5,12(a2)
    25e2:	0185a803          	lw	a6,24(a1)
    25e6:	4dd4                	lw	a3,28(a1)
    25e8:	40fe0e33          	sub	t3,t3,a5
    25ec:	4a1c                	lw	a5,16(a2)
    25ee:	5198                	lw	a4,32(a1)
    25f0:	02462f83          	lw	t6,36(a2)
    25f4:	40f30333          	sub	t1,t1,a5
    25f8:	4a5c                	lw	a5,20(a2)
    25fa:	40f888b3          	sub	a7,a7,a5
    25fe:	4e1c                	lw	a5,24(a2)
    2600:	40f80833          	sub	a6,a6,a5
    2604:	4e5c                	lw	a5,28(a2)
    2606:	8e9d                	sub	a3,a3,a5
    2608:	521c                	lw	a5,32(a2)
    260a:	4210                	lw	a2,0(a2)
    260c:	8f1d                	sub	a4,a4,a5
    260e:	51dc                	lw	a5,36(a1)
    2610:	418c                	lw	a1,0(a1)
    2612:	01e52223          	sw	t5,4(a0)
    2616:	41f787b3          	sub	a5,a5,t6
    261a:	8d91                	sub	a1,a1,a2
    261c:	c10c                	sw	a1,0(a0)
    261e:	01d52423          	sw	t4,8(a0)
    2622:	01c52623          	sw	t3,12(a0)
    2626:	00652823          	sw	t1,16(a0)
    262a:	01152a23          	sw	a7,20(a0)
    262e:	01052c23          	sw	a6,24(a0)
    2632:	cd54                	sw	a3,28(a0)
    2634:	d118                	sw	a4,32(a0)
    2636:	d15c                	sw	a5,36(a0)
    2638:	8082                	ret

0000263a <fe_tobytes>:
    263a:	51d8                	lw	a4,36(a1)
    263c:	0005af83          	lw	t6,0(a1)
    2640:	0045af03          	lw	t5,4(a1)
    2644:	0085ae83          	lw	t4,8(a1)
    2648:	00c5ae03          	lw	t3,12(a1)
    264c:	0105a303          	lw	t1,16(a1)
    2650:	0145a883          	lw	a7,20(a1)
    2654:	0185a803          	lw	a6,24(a1)
    2658:	4dd0                	lw	a2,28(a1)
    265a:	5194                	lw	a3,32(a1)
    265c:	45cd                	li	a1,19
    265e:	02b707b3          	mul	a5,a4,a1
    2662:	010002b7          	lui	t0,0x1000
    2666:	9796                	add	a5,a5,t0
    2668:	87e5                	srai	a5,a5,0x19
    266a:	97fe                	add	a5,a5,t6
    266c:	87e9                	srai	a5,a5,0x1a
    266e:	97fa                	add	a5,a5,t5
    2670:	87e5                	srai	a5,a5,0x19
    2672:	97f6                	add	a5,a5,t4
    2674:	87e9                	srai	a5,a5,0x1a
    2676:	97f2                	add	a5,a5,t3
    2678:	87e5                	srai	a5,a5,0x19
    267a:	979a                	add	a5,a5,t1
    267c:	87e9                	srai	a5,a5,0x1a
    267e:	97c6                	add	a5,a5,a7
    2680:	87e5                	srai	a5,a5,0x19
    2682:	97c2                	add	a5,a5,a6
    2684:	87e9                	srai	a5,a5,0x1a
    2686:	97b2                	add	a5,a5,a2
    2688:	87e5                	srai	a5,a5,0x19
    268a:	97b6                	add	a5,a5,a3
    268c:	87e9                	srai	a5,a5,0x1a
    268e:	97ba                	add	a5,a5,a4
    2690:	87e5                	srai	a5,a5,0x19
    2692:	02b787b3          	mul	a5,a5,a1
    2696:	97fe                	add	a5,a5,t6
    2698:	41a7d593          	srai	a1,a5,0x1a
    269c:	9f2e                	add	t5,t5,a1
    269e:	419f5593          	srai	a1,t5,0x19
    26a2:	9eae                	add	t4,t4,a1
    26a4:	41aed593          	srai	a1,t4,0x1a
    26a8:	9e2e                	add	t3,t3,a1
    26aa:	419e5593          	srai	a1,t3,0x19
    26ae:	932e                	add	t1,t1,a1
    26b0:	41a35593          	srai	a1,t1,0x1a
    26b4:	98ae                	add	a7,a7,a1
    26b6:	4198d593          	srai	a1,a7,0x19
    26ba:	982e                	add	a6,a6,a1
    26bc:	41a85593          	srai	a1,a6,0x1a
    26c0:	962e                	add	a2,a2,a1
    26c2:	41965593          	srai	a1,a2,0x19
    26c6:	96ae                	add	a3,a3,a1
    26c8:	079a                	slli	a5,a5,0x6
    26ca:	8399                	srli	a5,a5,0x6
    26cc:	41a6d593          	srai	a1,a3,0x1a
    26d0:	972e                	add	a4,a4,a1
    26d2:	4087d593          	srai	a1,a5,0x8
    26d6:	b10c                	sb	a1,1(a0)
    26d8:	08000fb7          	lui	t6,0x8000
    26dc:	4107d593          	srai	a1,a5,0x10
    26e0:	a12c                	sb	a1,2(a0)
    26e2:	ffcf8293          	addi	t0,t6,-4 # 7fffffc <_data_lma+0x7feb114>
    26e6:	002f1593          	slli	a1,t5,0x2
    26ea:	a11c                	sb	a5,0(a0)
    26ec:	0055f5b3          	and	a1,a1,t0
    26f0:	87e1                	srai	a5,a5,0x18
    26f2:	8fcd                	or	a5,a5,a1
    26f4:	b13c                	sb	a5,3(a0)
    26f6:	406f5793          	srai	a5,t5,0x6
    26fa:	a15c                	sb	a5,4(a0)
    26fc:	200005b7          	lui	a1,0x20000
    2700:	40ef5793          	srai	a5,t5,0xe
    2704:	b15c                	sb	a5,5(a0)
    2706:	15e1                	addi	a1,a1,-8
    2708:	003e9793          	slli	a5,t4,0x3
    270c:	416f5f13          	srai	t5,t5,0x16
    2710:	8fed                	and	a5,a5,a1
    2712:	007f7f13          	andi	t5,t5,7
    2716:	00ff6f33          	or	t5,t5,a5
    271a:	006e9793          	slli	a5,t4,0x6
    271e:	83ad                	srli	a5,a5,0xb
    2720:	b17c                	sb	a5,7(a0)
    2722:	006e9793          	slli	a5,t4,0x6
    2726:	83cd                	srli	a5,a5,0x13
    2728:	400005b7          	lui	a1,0x40000
    272c:	01e50323          	sb	t5,6(a0)
    2730:	a51c                	sb	a5,8(a0)
    2732:	fe058f13          	addi	t5,a1,-32 # 3fffffe0 <__freertos_irq_stack_top+0x1fff7fe0>
    2736:	005e1793          	slli	a5,t3,0x5
    273a:	415ede93          	srai	t4,t4,0x15
    273e:	01e7f7b3          	and	a5,a5,t5
    2742:	01fefe93          	andi	t4,t4,31
    2746:	00feeeb3          	or	t4,t4,a5
    274a:	403e5793          	srai	a5,t3,0x3
    274e:	a53c                	sb	a5,10(a0)
    2750:	40be5793          	srai	a5,t3,0xb
    2754:	413e5e13          	srai	t3,t3,0x13
    2758:	b53c                	sb	a5,11(a0)
    275a:	03fe7e13          	andi	t3,t3,63
    275e:	00631793          	slli	a5,t1,0x6
    2762:	00fe6e33          	or	t3,t3,a5
    2766:	089e                	slli	a7,a7,0x7
    2768:	40235793          	srai	a5,t1,0x2
    276c:	0078d893          	srli	a7,a7,0x7
    2770:	b55c                	sb	a5,13(a0)
    2772:	40a35793          	srai	a5,t1,0xa
    2776:	a57c                	sb	a5,14(a0)
    2778:	4088d793          	srai	a5,a7,0x8
    277c:	b91c                	sb	a5,17(a0)
    277e:	4108d793          	srai	a5,a7,0x10
    2782:	a93c                	sb	a5,18(a0)
    2784:	1ff9                	addi	t6,t6,-2
    2786:	00181793          	slli	a5,a6,0x1
    278a:	01150823          	sb	a7,16(a0)
    278e:	01f7f7b3          	and	a5,a5,t6
    2792:	4188d893          	srai	a7,a7,0x18
    2796:	0117e8b3          	or	a7,a5,a7
    279a:	00681793          	slli	a5,a6,0x6
    279e:	83b5                	srli	a5,a5,0xd
    27a0:	011509a3          	sb	a7,19(a0)
    27a4:	a95c                	sb	a5,20(a0)
    27a6:	100008b7          	lui	a7,0x10000
    27aa:	40f85793          	srai	a5,a6,0xf
    27ae:	b95c                	sb	a5,21(a0)
    27b0:	41785813          	srai	a6,a6,0x17
    27b4:	00361793          	slli	a5,a2,0x3
    27b8:	18e1                	addi	a7,a7,-8
    27ba:	0117f7b3          	and	a5,a5,a7
    27be:	00787813          	andi	a6,a6,7
    27c2:	00f86833          	or	a6,a6,a5
    27c6:	41235313          	srai	t1,t1,0x12
    27ca:	00761793          	slli	a5,a2,0x7
    27ce:	83b1                	srli	a5,a5,0xc
    27d0:	01d504a3          	sb	t4,9(a0)
    27d4:	01c50623          	sb	t3,12(a0)
    27d8:	006507a3          	sb	t1,15(a0)
    27dc:	01050b23          	sb	a6,22(a0)
    27e0:	b97c                	sb	a5,23(a0)
    27e2:	00761793          	slli	a5,a2,0x7
    27e6:	83d1                	srli	a5,a5,0x14
    27e8:	ad1c                	sb	a5,24(a0)
    27ea:	15c1                	addi	a1,a1,-16
    27ec:	00469793          	slli	a5,a3,0x4
    27f0:	8dfd                	and	a1,a1,a5
    27f2:	8655                	srai	a2,a2,0x15
    27f4:	00669793          	slli	a5,a3,0x6
    27f8:	83a9                	srli	a5,a5,0xa
    27fa:	8a3d                	andi	a2,a2,15
    27fc:	8e4d                	or	a2,a2,a1
    27fe:	ad3c                	sb	a5,26(a0)
    2800:	00669793          	slli	a5,a3,0x6
    2804:	83c9                	srli	a5,a5,0x12
    2806:	bd10                	sb	a2,25(a0)
    2808:	80000637          	lui	a2,0x80000
    280c:	bd3c                	sb	a5,27(a0)
    280e:	86d1                	srai	a3,a3,0x14
    2810:	00671793          	slli	a5,a4,0x6
    2814:	fc064613          	xori	a2,a2,-64
    2818:	8ff1                	and	a5,a5,a2
    281a:	03f6f693          	andi	a3,a3,63
    281e:	8edd                	or	a3,a3,a5
    2820:	00771793          	slli	a5,a4,0x7
    2824:	83a5                	srli	a5,a5,0x9
    2826:	bd5c                	sb	a5,29(a0)
    2828:	00771793          	slli	a5,a4,0x7
    282c:	8749                	srai	a4,a4,0x12
    282e:	83c5                	srli	a5,a5,0x11
    2830:	07f77713          	andi	a4,a4,127
    2834:	ad54                	sb	a3,28(a0)
    2836:	ad7c                	sb	a5,30(a0)
    2838:	bd78                	sb	a4,31(a0)
    283a:	8082                	ret

0000283c <fe_isnegative>:
    283c:	cdbfd2ef          	jal	t0,516 <__riscv_save_0>
    2840:	1101                	addi	sp,sp,-32
    2842:	85aa                	mv	a1,a0
    2844:	850a                	mv	a0,sp
    2846:	3bd5                	jal	263a <fe_tobytes>
    2848:	8008                	lbu	a0,0(sp)
    284a:	6105                	addi	sp,sp,32
    284c:	8905                	andi	a0,a0,1
    284e:	cedfd06f          	j	53a <__riscv_restore_0>

00002852 <fe_isnonzero>:
    2852:	cc5fd2ef          	jal	t0,516 <__riscv_save_0>
    2856:	1101                	addi	sp,sp,-32
    2858:	85aa                	mv	a1,a0
    285a:	850a                	mv	a0,sp
    285c:	3bf9                	jal	263a <fe_tobytes>
    285e:	809c                	lbu	a5,1(sp)
    2860:	8008                	lbu	a0,0(sp)
    2862:	8d5d                	or	a0,a0,a5
    2864:	811c                	lbu	a5,2(sp)
    2866:	8d5d                	or	a0,a0,a5
    2868:	819c                	lbu	a5,3(sp)
    286a:	8d5d                	or	a0,a0,a5
    286c:	821c                	lbu	a5,4(sp)
    286e:	8d5d                	or	a0,a0,a5
    2870:	829c                	lbu	a5,5(sp)
    2872:	8d5d                	or	a0,a0,a5
    2874:	831c                	lbu	a5,6(sp)
    2876:	8d5d                	or	a0,a0,a5
    2878:	839c                	lbu	a5,7(sp)
    287a:	8d5d                	or	a0,a0,a5
    287c:	841c                	lbu	a5,8(sp)
    287e:	8d5d                	or	a0,a0,a5
    2880:	849c                	lbu	a5,9(sp)
    2882:	8d5d                	or	a0,a0,a5
    2884:	851c                	lbu	a5,10(sp)
    2886:	8d5d                	or	a0,a0,a5
    2888:	859c                	lbu	a5,11(sp)
    288a:	8d5d                	or	a0,a0,a5
    288c:	861c                	lbu	a5,12(sp)
    288e:	8d5d                	or	a0,a0,a5
    2890:	869c                	lbu	a5,13(sp)
    2892:	8d5d                	or	a0,a0,a5
    2894:	871c                	lbu	a5,14(sp)
    2896:	8d5d                	or	a0,a0,a5
    2898:	879c                	lbu	a5,15(sp)
    289a:	8d5d                	or	a0,a0,a5
    289c:	01014783          	lbu	a5,16(sp)
    28a0:	8d5d                	or	a0,a0,a5
    28a2:	01114783          	lbu	a5,17(sp)
    28a6:	8d5d                	or	a0,a0,a5
    28a8:	01214783          	lbu	a5,18(sp)
    28ac:	8d5d                	or	a0,a0,a5
    28ae:	01314783          	lbu	a5,19(sp)
    28b2:	8d5d                	or	a0,a0,a5
    28b4:	01414783          	lbu	a5,20(sp)
    28b8:	8d5d                	or	a0,a0,a5
    28ba:	01514783          	lbu	a5,21(sp)
    28be:	8d5d                	or	a0,a0,a5
    28c0:	01614783          	lbu	a5,22(sp)
    28c4:	8d5d                	or	a0,a0,a5
    28c6:	01714783          	lbu	a5,23(sp)
    28ca:	8d5d                	or	a0,a0,a5
    28cc:	01814783          	lbu	a5,24(sp)
    28d0:	8d5d                	or	a0,a0,a5
    28d2:	01914783          	lbu	a5,25(sp)
    28d6:	8d5d                	or	a0,a0,a5
    28d8:	01a14783          	lbu	a5,26(sp)
    28dc:	8d5d                	or	a0,a0,a5
    28de:	01b14783          	lbu	a5,27(sp)
    28e2:	8d5d                	or	a0,a0,a5
    28e4:	01c14783          	lbu	a5,28(sp)
    28e8:	8d5d                	or	a0,a0,a5
    28ea:	01d14783          	lbu	a5,29(sp)
    28ee:	8d5d                	or	a0,a0,a5
    28f0:	01e14783          	lbu	a5,30(sp)
    28f4:	8d5d                	or	a0,a0,a5
    28f6:	01f14783          	lbu	a5,31(sp)
    28fa:	6105                	addi	sp,sp,32
    28fc:	8d5d                	or	a0,a0,a5
    28fe:	00a03533          	snez	a0,a0
    2902:	c39fd06f          	j	53a <__riscv_restore_0>

00002906 <slide>:
    2906:	c11fd2ef          	jal	t0,516 <__riscv_save_0>
    290a:	4781                	li	a5,0
    290c:	10000693          	li	a3,256
    2910:	4037d713          	srai	a4,a5,0x3
    2914:	972e                	add	a4,a4,a1
    2916:	2318                	lbu	a4,0(a4)
    2918:	0077f813          	andi	a6,a5,7
    291c:	00f50633          	add	a2,a0,a5
    2920:	41075733          	sra	a4,a4,a6
    2924:	8b05                	andi	a4,a4,1
    2926:	a218                	sb	a4,0(a2)
    2928:	0785                	addi	a5,a5,1
    292a:	fed793e3          	bne	a5,a3,2910 <slide+0xa>
    292e:	4781                	li	a5,0
    2930:	0ff00e13          	li	t3,255
    2934:	4ebd                	li	t4,15
    2936:	5f45                	li	t5,-15
    2938:	10050f93          	addi	t6,a0,256
    293c:	4285                	li	t0,1
    293e:	439d                	li	t2,7
    2940:	10000413          	li	s0,256
    2944:	00f508b3          	add	a7,a0,a5
    2948:	00088683          	lb	a3,0(a7) # 10000000 <_data_lma+0xffeb118>
    294c:	00178713          	addi	a4,a5,1 # 2000001 <_data_lma+0x1feb119>
    2950:	ca95                	beqz	a3,2984 <slide+0x7e>
    2952:	85ba                	mv	a1,a4
    2954:	4805                	li	a6,1
    2956:	02be4763          	blt	t3,a1,2984 <slide+0x7e>
    295a:	00b507b3          	add	a5,a0,a1
    295e:	00078603          	lb	a2,0(a5)
    2962:	ce09                	beqz	a2,297c <slide+0x76>
    2964:	00088683          	lb	a3,0(a7)
    2968:	01061633          	sll	a2,a2,a6
    296c:	00c68333          	add	t1,a3,a2
    2970:	006ecf63          	blt	t4,t1,298e <slide+0x88>
    2974:	00688023          	sb	t1,0(a7)
    2978:	00078023          	sb	zero,0(a5)
    297c:	0805                	addi	a6,a6,1
    297e:	0585                	addi	a1,a1,1
    2980:	fc781be3          	bne	a6,t2,2956 <slide+0x50>
    2984:	87ba                	mv	a5,a4
    2986:	fa871fe3          	bne	a4,s0,2944 <slide+0x3e>
    298a:	bb1fd06f          	j	53a <__riscv_restore_0>
    298e:	8e91                	sub	a3,a3,a2
    2990:	ffe6cae3          	blt	a3,t5,2984 <slide+0x7e>
    2994:	00d88023          	sb	a3,0(a7)
    2998:	00078683          	lb	a3,0(a5)
    299c:	e681                	bnez	a3,29a4 <slide+0x9e>
    299e:	00578023          	sb	t0,0(a5)
    29a2:	bfe9                	j	297c <slide+0x76>
    29a4:	00078023          	sb	zero,0(a5)
    29a8:	0785                	addi	a5,a5,1
    29aa:	feff97e3          	bne	t6,a5,2998 <slide+0x92>
    29ae:	b7f9                	j	297c <slide+0x76>

000029b0 <cmov>:
    29b0:	b67fd2ef          	jal	t0,516 <__riscv_save_0>
    29b4:	842a                	mv	s0,a0
    29b6:	84ae                	mv	s1,a1
    29b8:	8932                	mv	s2,a2
    29ba:	d09fd0ef          	jal	ra,6c2 <fe_cmov>
    29be:	864a                	mv	a2,s2
    29c0:	02848593          	addi	a1,s1,40 # 1000028 <_data_lma+0xfeb140>
    29c4:	02840513          	addi	a0,s0,40
    29c8:	cfbfd0ef          	jal	ra,6c2 <fe_cmov>
    29cc:	864a                	mv	a2,s2
    29ce:	05048593          	addi	a1,s1,80
    29d2:	05040513          	addi	a0,s0,80
    29d6:	cedfd0ef          	jal	ra,6c2 <fe_cmov>
    29da:	b61fd06f          	j	53a <__riscv_restore_0>

000029de <select>:
    29de:	b1ffd2ef          	jal	t0,4fc <__riscv_save_4>
    29e2:	01f65a13          	srli	s4,a2,0x1f
    29e6:	41400433          	neg	s0,s4
    29ea:	8c71                	and	s0,s0,a2
    29ec:	0406                	slli	s0,s0,0x1
    29ee:	7119                	addi	sp,sp,-128
    29f0:	84aa                	mv	s1,a0
    29f2:	8e01                	sub	a2,a2,s0
    29f4:	0ff67413          	andi	s0,a2,255
    29f8:	892e                	mv	s2,a1
    29fa:	02848b13          	addi	s6,s1,40
    29fe:	c2ffd0ef          	jal	ra,62c <fe_1>
    2a02:	855a                	mv	a0,s6
    2a04:	c29fd0ef          	jal	ra,62c <fe_1>
    2a08:	05048a93          	addi	s5,s1,80
    2a0c:	8556                	mv	a0,s5
    2a0e:	bf5fd0ef          	jal	ra,602 <fe_0>
    2a12:	3c000793          	li	a5,960
    2a16:	02f90933          	mul	s2,s2,a5
    2a1a:	69b5                	lui	s3,0xd
    2a1c:	1c098993          	addi	s3,s3,448 # d1c0 <base>
    2a20:	00144613          	xori	a2,s0,1
    2a24:	8526                	mv	a0,s1
    2a26:	00163613          	seqz	a2,a2
    2a2a:	012985b3          	add	a1,s3,s2
    2a2e:	3749                	jal	29b0 <cmov>
    2a30:	00244613          	xori	a2,s0,2
    2a34:	07890593          	addi	a1,s2,120 # fc000078 <__freertos_irq_stack_top+0xdbff8078>
    2a38:	95ce                	add	a1,a1,s3
    2a3a:	8526                	mv	a0,s1
    2a3c:	00163613          	seqz	a2,a2
    2a40:	3f85                	jal	29b0 <cmov>
    2a42:	00344613          	xori	a2,s0,3
    2a46:	0f090593          	addi	a1,s2,240
    2a4a:	95ce                	add	a1,a1,s3
    2a4c:	8526                	mv	a0,s1
    2a4e:	00163613          	seqz	a2,a2
    2a52:	3fb9                	jal	29b0 <cmov>
    2a54:	00444613          	xori	a2,s0,4
    2a58:	16890593          	addi	a1,s2,360
    2a5c:	95ce                	add	a1,a1,s3
    2a5e:	8526                	mv	a0,s1
    2a60:	00163613          	seqz	a2,a2
    2a64:	37b1                	jal	29b0 <cmov>
    2a66:	00544613          	xori	a2,s0,5
    2a6a:	1e090593          	addi	a1,s2,480
    2a6e:	95ce                	add	a1,a1,s3
    2a70:	8526                	mv	a0,s1
    2a72:	00163613          	seqz	a2,a2
    2a76:	3f2d                	jal	29b0 <cmov>
    2a78:	00644613          	xori	a2,s0,6
    2a7c:	25890593          	addi	a1,s2,600
    2a80:	95ce                	add	a1,a1,s3
    2a82:	8526                	mv	a0,s1
    2a84:	00163613          	seqz	a2,a2
    2a88:	3725                	jal	29b0 <cmov>
    2a8a:	00744613          	xori	a2,s0,7
    2a8e:	2d090593          	addi	a1,s2,720
    2a92:	95ce                	add	a1,a1,s3
    2a94:	8526                	mv	a0,s1
    2a96:	00163613          	seqz	a2,a2
    2a9a:	3f19                	jal	29b0 <cmov>
    2a9c:	00844613          	xori	a2,s0,8
    2aa0:	34890593          	addi	a1,s2,840
    2aa4:	00163613          	seqz	a2,a2
    2aa8:	95ce                	add	a1,a1,s3
    2aaa:	8526                	mv	a0,s1
    2aac:	3711                	jal	29b0 <cmov>
    2aae:	85da                	mv	a1,s6
    2ab0:	0028                	addi	a0,sp,8
    2ab2:	d0dfd0ef          	jal	ra,7be <fe_copy>
    2ab6:	85a6                	mv	a1,s1
    2ab8:	1808                	addi	a0,sp,48
    2aba:	d05fd0ef          	jal	ra,7be <fe_copy>
    2abe:	85d6                	mv	a1,s5
    2ac0:	08a8                	addi	a0,sp,88
    2ac2:	a7ffe0ef          	jal	ra,1540 <fe_neg>
    2ac6:	002c                	addi	a1,sp,8
    2ac8:	8652                	mv	a2,s4
    2aca:	8526                	mv	a0,s1
    2acc:	35d5                	jal	29b0 <cmov>
    2ace:	6109                	addi	sp,sp,128
    2ad0:	a61fd06f          	j	530 <__riscv_restore_4>

00002ad4 <ge_add>:
    2ad4:	a29fd2ef          	jal	t0,4fc <__riscv_save_4>
    2ad8:	02858993          	addi	s3,a1,40
    2adc:	7179                	addi	sp,sp,-48
    2ade:	842a                	mv	s0,a0
    2ae0:	8a32                	mv	s4,a2
    2ae2:	892e                	mv	s2,a1
    2ae4:	862e                	mv	a2,a1
    2ae6:	85ce                	mv	a1,s3
    2ae8:	02840493          	addi	s1,s0,40
    2aec:	b6bfd0ef          	jal	ra,656 <fe_add>
    2af0:	864a                	mv	a2,s2
    2af2:	85ce                	mv	a1,s3
    2af4:	8526                	mv	a0,s1
    2af6:	34e9                	jal	25c0 <fe_sub>
    2af8:	05040993          	addi	s3,s0,80
    2afc:	8652                	mv	a2,s4
    2afe:	85a2                	mv	a1,s0
    2b00:	854e                	mv	a0,s3
    2b02:	f93fd0ef          	jal	ra,a94 <fe_mul>
    2b06:	028a0613          	addi	a2,s4,40
    2b0a:	85a6                	mv	a1,s1
    2b0c:	8526                	mv	a0,s1
    2b0e:	f87fd0ef          	jal	ra,a94 <fe_mul>
    2b12:	07840a93          	addi	s5,s0,120
    2b16:	07890613          	addi	a2,s2,120
    2b1a:	078a0593          	addi	a1,s4,120
    2b1e:	8556                	mv	a0,s5
    2b20:	f75fd0ef          	jal	ra,a94 <fe_mul>
    2b24:	050a0613          	addi	a2,s4,80
    2b28:	05090593          	addi	a1,s2,80
    2b2c:	8522                	mv	a0,s0
    2b2e:	f67fd0ef          	jal	ra,a94 <fe_mul>
    2b32:	8622                	mv	a2,s0
    2b34:	85a2                	mv	a1,s0
    2b36:	0028                	addi	a0,sp,8
    2b38:	b1ffd0ef          	jal	ra,656 <fe_add>
    2b3c:	8626                	mv	a2,s1
    2b3e:	85ce                	mv	a1,s3
    2b40:	8522                	mv	a0,s0
    2b42:	3cbd                	jal	25c0 <fe_sub>
    2b44:	8626                	mv	a2,s1
    2b46:	85ce                	mv	a1,s3
    2b48:	8526                	mv	a0,s1
    2b4a:	b0dfd0ef          	jal	ra,656 <fe_add>
    2b4e:	8656                	mv	a2,s5
    2b50:	002c                	addi	a1,sp,8
    2b52:	854e                	mv	a0,s3
    2b54:	b03fd0ef          	jal	ra,656 <fe_add>
    2b58:	002c                	addi	a1,sp,8
    2b5a:	8656                	mv	a2,s5
    2b5c:	8556                	mv	a0,s5
    2b5e:	348d                	jal	25c0 <fe_sub>
    2b60:	6145                	addi	sp,sp,48
    2b62:	9cffd06f          	j	530 <__riscv_restore_4>

00002b66 <ge_frombytes_negate_vartime>:
    2b66:	997fd2ef          	jal	t0,4fc <__riscv_save_4>
    2b6a:	02850493          	addi	s1,a0,40
    2b6e:	7155                	addi	sp,sp,-208
    2b70:	842a                	mv	s0,a0
    2b72:	8526                	mv	a0,s1
    2b74:	89ae                	mv	s3,a1
    2b76:	05040913          	addi	s2,s0,80
    2b7a:	c87fd0ef          	jal	ra,800 <fe_frombytes>
    2b7e:	854a                	mv	a0,s2
    2b80:	aadfd0ef          	jal	ra,62c <fe_1>
    2b84:	85a6                	mv	a1,s1
    2b86:	0028                	addi	a0,sp,8
    2b88:	a1ffe0ef          	jal	ra,15a6 <fe_sq>
    2b8c:	6655                	lui	a2,0x15
    2b8e:	9c060613          	addi	a2,a2,-1600 # 149c0 <d>
    2b92:	002c                	addi	a1,sp,8
    2b94:	1808                	addi	a0,sp,48
    2b96:	efffd0ef          	jal	ra,a94 <fe_mul>
    2b9a:	002c                	addi	a1,sp,8
    2b9c:	852e                	mv	a0,a1
    2b9e:	864a                	mv	a2,s2
    2ba0:	a21ff0ef          	jal	ra,25c0 <fe_sub>
    2ba4:	180c                	addi	a1,sp,48
    2ba6:	864a                	mv	a2,s2
    2ba8:	852e                	mv	a0,a1
    2baa:	aadfd0ef          	jal	ra,656 <fe_add>
    2bae:	180c                	addi	a1,sp,48
    2bb0:	08a8                	addi	a0,sp,88
    2bb2:	9f5fe0ef          	jal	ra,15a6 <fe_sq>
    2bb6:	08ac                	addi	a1,sp,88
    2bb8:	1810                	addi	a2,sp,48
    2bba:	852e                	mv	a0,a1
    2bbc:	ed9fd0ef          	jal	ra,a94 <fe_mul>
    2bc0:	08ac                	addi	a1,sp,88
    2bc2:	8522                	mv	a0,s0
    2bc4:	9e3fe0ef          	jal	ra,15a6 <fe_sq>
    2bc8:	1810                	addi	a2,sp,48
    2bca:	85a2                	mv	a1,s0
    2bcc:	8522                	mv	a0,s0
    2bce:	ec7fd0ef          	jal	ra,a94 <fe_mul>
    2bd2:	0030                	addi	a2,sp,8
    2bd4:	85a2                	mv	a1,s0
    2bd6:	8522                	mv	a0,s0
    2bd8:	ebdfd0ef          	jal	ra,a94 <fe_mul>
    2bdc:	85a2                	mv	a1,s0
    2bde:	8522                	mv	a0,s0
    2be0:	980ff0ef          	jal	ra,1d60 <fe_pow22523>
    2be4:	08b0                	addi	a2,sp,88
    2be6:	85a2                	mv	a1,s0
    2be8:	8522                	mv	a0,s0
    2bea:	eabfd0ef          	jal	ra,a94 <fe_mul>
    2bee:	0030                	addi	a2,sp,8
    2bf0:	85a2                	mv	a1,s0
    2bf2:	8522                	mv	a0,s0
    2bf4:	ea1fd0ef          	jal	ra,a94 <fe_mul>
    2bf8:	85a2                	mv	a1,s0
    2bfa:	0108                	addi	a0,sp,128
    2bfc:	9abfe0ef          	jal	ra,15a6 <fe_sq>
    2c00:	010c                	addi	a1,sp,128
    2c02:	852e                	mv	a0,a1
    2c04:	1810                	addi	a2,sp,48
    2c06:	e8ffd0ef          	jal	ra,a94 <fe_mul>
    2c0a:	1128                	addi	a0,sp,168
    2c0c:	0030                	addi	a2,sp,8
    2c0e:	010c                	addi	a1,sp,128
    2c10:	9b1ff0ef          	jal	ra,25c0 <fe_sub>
    2c14:	1128                	addi	a0,sp,168
    2c16:	3935                	jal	2852 <fe_isnonzero>
    2c18:	c10d                	beqz	a0,2c3a <ge_frombytes_negate_vartime+0xd4>
    2c1a:	0030                	addi	a2,sp,8
    2c1c:	010c                	addi	a1,sp,128
    2c1e:	1128                	addi	a0,sp,168
    2c20:	a37fd0ef          	jal	ra,656 <fe_add>
    2c24:	1128                	addi	a0,sp,168
    2c26:	3135                	jal	2852 <fe_isnonzero>
    2c28:	57fd                	li	a5,-1
    2c2a:	e915                	bnez	a0,2c5e <ge_frombytes_negate_vartime+0xf8>
    2c2c:	6655                	lui	a2,0x15
    2c2e:	a1060613          	addi	a2,a2,-1520 # 14a10 <sqrtm1>
    2c32:	85a2                	mv	a1,s0
    2c34:	8522                	mv	a0,s0
    2c36:	e5ffd0ef          	jal	ra,a94 <fe_mul>
    2c3a:	8522                	mv	a0,s0
    2c3c:	3101                	jal	283c <fe_isnegative>
    2c3e:	01f9c783          	lbu	a5,31(s3)
    2c42:	839d                	srli	a5,a5,0x7
    2c44:	00f51663          	bne	a0,a5,2c50 <ge_frombytes_negate_vartime+0xea>
    2c48:	85a2                	mv	a1,s0
    2c4a:	8522                	mv	a0,s0
    2c4c:	8f5fe0ef          	jal	ra,1540 <fe_neg>
    2c50:	8626                	mv	a2,s1
    2c52:	85a2                	mv	a1,s0
    2c54:	07840513          	addi	a0,s0,120
    2c58:	e3dfd0ef          	jal	ra,a94 <fe_mul>
    2c5c:	4781                	li	a5,0
    2c5e:	853e                	mv	a0,a5
    2c60:	6169                	addi	sp,sp,208
    2c62:	8cffd06f          	j	530 <__riscv_restore_4>

00002c66 <ge_madd>:
    2c66:	897fd2ef          	jal	t0,4fc <__riscv_save_4>
    2c6a:	02858993          	addi	s3,a1,40
    2c6e:	7179                	addi	sp,sp,-48
    2c70:	892a                	mv	s2,a0
    2c72:	842e                	mv	s0,a1
    2c74:	8ab2                	mv	s5,a2
    2c76:	862e                	mv	a2,a1
    2c78:	85ce                	mv	a1,s3
    2c7a:	02890493          	addi	s1,s2,40
    2c7e:	9d9fd0ef          	jal	ra,656 <fe_add>
    2c82:	8622                	mv	a2,s0
    2c84:	85ce                	mv	a1,s3
    2c86:	8526                	mv	a0,s1
    2c88:	939ff0ef          	jal	ra,25c0 <fe_sub>
    2c8c:	05090993          	addi	s3,s2,80
    2c90:	8656                	mv	a2,s5
    2c92:	85ca                	mv	a1,s2
    2c94:	854e                	mv	a0,s3
    2c96:	dfffd0ef          	jal	ra,a94 <fe_mul>
    2c9a:	028a8613          	addi	a2,s5,40
    2c9e:	85a6                	mv	a1,s1
    2ca0:	8526                	mv	a0,s1
    2ca2:	df3fd0ef          	jal	ra,a94 <fe_mul>
    2ca6:	07890a13          	addi	s4,s2,120
    2caa:	07840613          	addi	a2,s0,120
    2cae:	050a8593          	addi	a1,s5,80
    2cb2:	8552                	mv	a0,s4
    2cb4:	de1fd0ef          	jal	ra,a94 <fe_mul>
    2cb8:	05040613          	addi	a2,s0,80
    2cbc:	85b2                	mv	a1,a2
    2cbe:	0028                	addi	a0,sp,8
    2cc0:	997fd0ef          	jal	ra,656 <fe_add>
    2cc4:	8626                	mv	a2,s1
    2cc6:	85ce                	mv	a1,s3
    2cc8:	854a                	mv	a0,s2
    2cca:	8f7ff0ef          	jal	ra,25c0 <fe_sub>
    2cce:	8626                	mv	a2,s1
    2cd0:	85ce                	mv	a1,s3
    2cd2:	8526                	mv	a0,s1
    2cd4:	983fd0ef          	jal	ra,656 <fe_add>
    2cd8:	8652                	mv	a2,s4
    2cda:	002c                	addi	a1,sp,8
    2cdc:	854e                	mv	a0,s3
    2cde:	979fd0ef          	jal	ra,656 <fe_add>
    2ce2:	002c                	addi	a1,sp,8
    2ce4:	8652                	mv	a2,s4
    2ce6:	8552                	mv	a0,s4
    2ce8:	8d9ff0ef          	jal	ra,25c0 <fe_sub>
    2cec:	6145                	addi	sp,sp,48
    2cee:	843fd06f          	j	530 <__riscv_restore_4>

00002cf2 <ge_msub>:
    2cf2:	80bfd2ef          	jal	t0,4fc <__riscv_save_4>
    2cf6:	02858993          	addi	s3,a1,40
    2cfa:	7179                	addi	sp,sp,-48
    2cfc:	892a                	mv	s2,a0
    2cfe:	842e                	mv	s0,a1
    2d00:	8ab2                	mv	s5,a2
    2d02:	862e                	mv	a2,a1
    2d04:	85ce                	mv	a1,s3
    2d06:	02890493          	addi	s1,s2,40
    2d0a:	94dfd0ef          	jal	ra,656 <fe_add>
    2d0e:	8622                	mv	a2,s0
    2d10:	85ce                	mv	a1,s3
    2d12:	8526                	mv	a0,s1
    2d14:	8adff0ef          	jal	ra,25c0 <fe_sub>
    2d18:	05090993          	addi	s3,s2,80
    2d1c:	028a8613          	addi	a2,s5,40
    2d20:	85ca                	mv	a1,s2
    2d22:	854e                	mv	a0,s3
    2d24:	d71fd0ef          	jal	ra,a94 <fe_mul>
    2d28:	8656                	mv	a2,s5
    2d2a:	85a6                	mv	a1,s1
    2d2c:	8526                	mv	a0,s1
    2d2e:	d67fd0ef          	jal	ra,a94 <fe_mul>
    2d32:	07890a13          	addi	s4,s2,120
    2d36:	07840613          	addi	a2,s0,120
    2d3a:	050a8593          	addi	a1,s5,80
    2d3e:	8552                	mv	a0,s4
    2d40:	d55fd0ef          	jal	ra,a94 <fe_mul>
    2d44:	05040613          	addi	a2,s0,80
    2d48:	85b2                	mv	a1,a2
    2d4a:	0028                	addi	a0,sp,8
    2d4c:	90bfd0ef          	jal	ra,656 <fe_add>
    2d50:	8626                	mv	a2,s1
    2d52:	85ce                	mv	a1,s3
    2d54:	854a                	mv	a0,s2
    2d56:	86bff0ef          	jal	ra,25c0 <fe_sub>
    2d5a:	8626                	mv	a2,s1
    2d5c:	85ce                	mv	a1,s3
    2d5e:	8526                	mv	a0,s1
    2d60:	8f7fd0ef          	jal	ra,656 <fe_add>
    2d64:	8652                	mv	a2,s4
    2d66:	002c                	addi	a1,sp,8
    2d68:	854e                	mv	a0,s3
    2d6a:	857ff0ef          	jal	ra,25c0 <fe_sub>
    2d6e:	002c                	addi	a1,sp,8
    2d70:	8652                	mv	a2,s4
    2d72:	8552                	mv	a0,s4
    2d74:	8e3fd0ef          	jal	ra,656 <fe_add>
    2d78:	6145                	addi	sp,sp,48
    2d7a:	fb6fd06f          	j	530 <__riscv_restore_4>

00002d7e <ge_p1p1_to_p2>:
    2d7e:	f7efd2ef          	jal	t0,4fc <__riscv_save_4>
    2d82:	07858993          	addi	s3,a1,120
    2d86:	842e                	mv	s0,a1
    2d88:	864e                	mv	a2,s3
    2d8a:	84aa                	mv	s1,a0
    2d8c:	05040913          	addi	s2,s0,80
    2d90:	d05fd0ef          	jal	ra,a94 <fe_mul>
    2d94:	864a                	mv	a2,s2
    2d96:	02840593          	addi	a1,s0,40
    2d9a:	02848513          	addi	a0,s1,40
    2d9e:	cf7fd0ef          	jal	ra,a94 <fe_mul>
    2da2:	864e                	mv	a2,s3
    2da4:	85ca                	mv	a1,s2
    2da6:	05048513          	addi	a0,s1,80
    2daa:	cebfd0ef          	jal	ra,a94 <fe_mul>
    2dae:	f82fd06f          	j	530 <__riscv_restore_4>

00002db2 <ge_p1p1_to_p3>:
    2db2:	f4afd2ef          	jal	t0,4fc <__riscv_save_4>
    2db6:	07858a13          	addi	s4,a1,120
    2dba:	842e                	mv	s0,a1
    2dbc:	8652                	mv	a2,s4
    2dbe:	84aa                	mv	s1,a0
    2dc0:	02840913          	addi	s2,s0,40
    2dc4:	cd1fd0ef          	jal	ra,a94 <fe_mul>
    2dc8:	05040993          	addi	s3,s0,80
    2dcc:	864e                	mv	a2,s3
    2dce:	85ca                	mv	a1,s2
    2dd0:	02848513          	addi	a0,s1,40
    2dd4:	cc1fd0ef          	jal	ra,a94 <fe_mul>
    2dd8:	8652                	mv	a2,s4
    2dda:	85ce                	mv	a1,s3
    2ddc:	05048513          	addi	a0,s1,80
    2de0:	cb5fd0ef          	jal	ra,a94 <fe_mul>
    2de4:	864a                	mv	a2,s2
    2de6:	85a2                	mv	a1,s0
    2de8:	07848513          	addi	a0,s1,120
    2dec:	ca9fd0ef          	jal	ra,a94 <fe_mul>
    2df0:	f40fd06f          	j	530 <__riscv_restore_4>

00002df4 <ge_p2_0>:
    2df4:	f22fd2ef          	jal	t0,516 <__riscv_save_0>
    2df8:	842a                	mv	s0,a0
    2dfa:	809fd0ef          	jal	ra,602 <fe_0>
    2dfe:	02840513          	addi	a0,s0,40
    2e02:	82bfd0ef          	jal	ra,62c <fe_1>
    2e06:	05040513          	addi	a0,s0,80
    2e0a:	823fd0ef          	jal	ra,62c <fe_1>
    2e0e:	f2cfd06f          	j	53a <__riscv_restore_0>

00002e12 <ge_p2_dbl>:
    2e12:	eeafd2ef          	jal	t0,4fc <__riscv_save_4>
    2e16:	7139                	addi	sp,sp,-64
    2e18:	842a                	mv	s0,a0
    2e1a:	89ae                	mv	s3,a1
    2e1c:	f8afe0ef          	jal	ra,15a6 <fe_sq>
    2e20:	05040493          	addi	s1,s0,80
    2e24:	02898613          	addi	a2,s3,40
    2e28:	85b2                	mv	a1,a2
    2e2a:	8526                	mv	a0,s1
    2e2c:	c632                	sw	a2,12(sp)
    2e2e:	07840a13          	addi	s4,s0,120
    2e32:	f74fe0ef          	jal	ra,15a6 <fe_sq>
    2e36:	05098593          	addi	a1,s3,80
    2e3a:	8552                	mv	a0,s4
    2e3c:	870ff0ef          	jal	ra,1eac <fe_sq2>
    2e40:	4632                	lw	a2,12(sp)
    2e42:	02840913          	addi	s2,s0,40
    2e46:	85ce                	mv	a1,s3
    2e48:	854a                	mv	a0,s2
    2e4a:	80dfd0ef          	jal	ra,656 <fe_add>
    2e4e:	85ca                	mv	a1,s2
    2e50:	0828                	addi	a0,sp,24
    2e52:	f54fe0ef          	jal	ra,15a6 <fe_sq>
    2e56:	8622                	mv	a2,s0
    2e58:	85a6                	mv	a1,s1
    2e5a:	854a                	mv	a0,s2
    2e5c:	ffafd0ef          	jal	ra,656 <fe_add>
    2e60:	8622                	mv	a2,s0
    2e62:	85a6                	mv	a1,s1
    2e64:	8526                	mv	a0,s1
    2e66:	f5aff0ef          	jal	ra,25c0 <fe_sub>
    2e6a:	864a                	mv	a2,s2
    2e6c:	082c                	addi	a1,sp,24
    2e6e:	8522                	mv	a0,s0
    2e70:	f50ff0ef          	jal	ra,25c0 <fe_sub>
    2e74:	8626                	mv	a2,s1
    2e76:	85d2                	mv	a1,s4
    2e78:	8552                	mv	a0,s4
    2e7a:	f46ff0ef          	jal	ra,25c0 <fe_sub>
    2e7e:	6121                	addi	sp,sp,64
    2e80:	eb0fd06f          	j	530 <__riscv_restore_4>

00002e84 <ge_p3_0>:
    2e84:	e92fd2ef          	jal	t0,516 <__riscv_save_0>
    2e88:	842a                	mv	s0,a0
    2e8a:	f78fd0ef          	jal	ra,602 <fe_0>
    2e8e:	02840513          	addi	a0,s0,40
    2e92:	f9afd0ef          	jal	ra,62c <fe_1>
    2e96:	05040513          	addi	a0,s0,80
    2e9a:	f92fd0ef          	jal	ra,62c <fe_1>
    2e9e:	07840513          	addi	a0,s0,120
    2ea2:	f60fd0ef          	jal	ra,602 <fe_0>
    2ea6:	e94fd06f          	j	53a <__riscv_restore_0>

00002eaa <ge_p3_to_cached>:
    2eaa:	e6cfd2ef          	jal	t0,516 <__riscv_save_0>
    2eae:	02858913          	addi	s2,a1,40
    2eb2:	842e                	mv	s0,a1
    2eb4:	862e                	mv	a2,a1
    2eb6:	85ca                	mv	a1,s2
    2eb8:	84aa                	mv	s1,a0
    2eba:	f9cfd0ef          	jal	ra,656 <fe_add>
    2ebe:	8622                	mv	a2,s0
    2ec0:	85ca                	mv	a1,s2
    2ec2:	02848513          	addi	a0,s1,40
    2ec6:	efaff0ef          	jal	ra,25c0 <fe_sub>
    2eca:	05040593          	addi	a1,s0,80
    2ece:	05048513          	addi	a0,s1,80
    2ed2:	8edfd0ef          	jal	ra,7be <fe_copy>
    2ed6:	6655                	lui	a2,0x15
    2ed8:	9e860613          	addi	a2,a2,-1560 # 149e8 <d2>
    2edc:	07840593          	addi	a1,s0,120
    2ee0:	07848513          	addi	a0,s1,120
    2ee4:	bb1fd0ef          	jal	ra,a94 <fe_mul>
    2ee8:	e52fd06f          	j	53a <__riscv_restore_0>

00002eec <ge_p3_to_p2>:
    2eec:	e2afd2ef          	jal	t0,516 <__riscv_save_0>
    2ef0:	842a                	mv	s0,a0
    2ef2:	84ae                	mv	s1,a1
    2ef4:	8cbfd0ef          	jal	ra,7be <fe_copy>
    2ef8:	02848593          	addi	a1,s1,40
    2efc:	02840513          	addi	a0,s0,40
    2f00:	8bffd0ef          	jal	ra,7be <fe_copy>
    2f04:	05048593          	addi	a1,s1,80
    2f08:	05040513          	addi	a0,s0,80
    2f0c:	8b3fd0ef          	jal	ra,7be <fe_copy>
    2f10:	e2afd06f          	j	53a <__riscv_restore_0>

00002f14 <ge_p3_dbl>:
    2f14:	e02fd2ef          	jal	t0,516 <__riscv_save_0>
    2f18:	7119                	addi	sp,sp,-128
    2f1a:	842a                	mv	s0,a0
    2f1c:	0028                	addi	a0,sp,8
    2f1e:	37f9                	jal	2eec <ge_p3_to_p2>
    2f20:	002c                	addi	a1,sp,8
    2f22:	8522                	mv	a0,s0
    2f24:	35fd                	jal	2e12 <ge_p2_dbl>
    2f26:	6109                	addi	sp,sp,128
    2f28:	e12fd06f          	j	53a <__riscv_restore_0>

00002f2c <ge_p3_tobytes>:
    2f2c:	deafd2ef          	jal	t0,516 <__riscv_save_0>
    2f30:	7119                	addi	sp,sp,-128
    2f32:	842a                	mv	s0,a0
    2f34:	84ae                	mv	s1,a1
    2f36:	0028                	addi	a0,sp,8
    2f38:	05058593          	addi	a1,a1,80
    2f3c:	cfbfe0ef          	jal	ra,1c36 <fe_invert>
    2f40:	0030                	addi	a2,sp,8
    2f42:	85a6                	mv	a1,s1
    2f44:	1808                	addi	a0,sp,48
    2f46:	b4ffd0ef          	jal	ra,a94 <fe_mul>
    2f4a:	0030                	addi	a2,sp,8
    2f4c:	02848593          	addi	a1,s1,40
    2f50:	08a8                	addi	a0,sp,88
    2f52:	b43fd0ef          	jal	ra,a94 <fe_mul>
    2f56:	08ac                	addi	a1,sp,88
    2f58:	8522                	mv	a0,s0
    2f5a:	ee0ff0ef          	jal	ra,263a <fe_tobytes>
    2f5e:	1808                	addi	a0,sp,48
    2f60:	8ddff0ef          	jal	ra,283c <fe_isnegative>
    2f64:	3c7c                	lbu	a5,31(s0)
    2f66:	051e                	slli	a0,a0,0x7
    2f68:	8d3d                	xor	a0,a0,a5
    2f6a:	bc68                	sb	a0,31(s0)
    2f6c:	6109                	addi	sp,sp,128
    2f6e:	dccfd06f          	j	53a <__riscv_restore_0>

00002f72 <ge_scalarmult_base>:
    2f72:	d8afd2ef          	jal	t0,4fc <__riscv_save_4>
    2f76:	7145                	addi	sp,sp,-464
    2f78:	870a                	mv	a4,sp
    2f7a:	842a                	mv	s0,a0
    2f7c:	86ba                	mv	a3,a4
    2f7e:	4781                	li	a5,0
    2f80:	893a                	mv	s2,a4
    2f82:	02000513          	li	a0,32
    2f86:	00f58633          	add	a2,a1,a5
    2f8a:	2210                	lbu	a2,0(a2)
    2f8c:	0785                	addi	a5,a5,1
    2f8e:	0689                	addi	a3,a3,2
    2f90:	00f67813          	andi	a6,a2,15
    2f94:	8211                	srli	a2,a2,0x4
    2f96:	ff068f23          	sb	a6,-2(a3)
    2f9a:	fec68fa3          	sb	a2,-1(a3)
    2f9e:	fea794e3          	bne	a5,a0,2f86 <ge_scalarmult_base+0x14>
    2fa2:	03f70593          	addi	a1,a4,63
    2fa6:	4781                	li	a5,0
    2fa8:	2314                	lbu	a3,0(a4)
    2faa:	0705                	addi	a4,a4,1
    2fac:	97b6                	add	a5,a5,a3
    2fae:	0ff7f613          	andi	a2,a5,255
    2fb2:	00860793          	addi	a5,a2,8
    2fb6:	07e2                	slli	a5,a5,0x18
    2fb8:	87e1                	srai	a5,a5,0x18
    2fba:	8791                	srai	a5,a5,0x4
    2fbc:	0ff7f693          	andi	a3,a5,255
    2fc0:	00469513          	slli	a0,a3,0x4
    2fc4:	8e09                	sub	a2,a2,a0
    2fc6:	fec70fa3          	sb	a2,-1(a4)
    2fca:	fce59fe3          	bne	a1,a4,2fa8 <ge_scalarmult_base+0x36>
    2fce:	03f14783          	lbu	a5,63(sp)
    2fd2:	8522                	mv	a0,s0
    2fd4:	4485                	li	s1,1
    2fd6:	96be                	add	a3,a3,a5
    2fd8:	02d10fa3          	sb	a3,63(sp)
    2fdc:	04100993          	li	s3,65
    2fe0:	3555                	jal	2e84 <ge_p3_0>
    2fe2:	009907b3          	add	a5,s2,s1
    2fe6:	00078603          	lb	a2,0(a5)
    2fea:	4014d593          	srai	a1,s1,0x1
    2fee:	1928                	addi	a0,sp,184
    2ff0:	9efff0ef          	jal	ra,29de <select>
    2ff4:	1930                	addi	a2,sp,184
    2ff6:	85a2                	mv	a1,s0
    2ff8:	1a08                	addi	a0,sp,304
    2ffa:	31b5                	jal	2c66 <ge_madd>
    2ffc:	1a0c                	addi	a1,sp,304
    2ffe:	8522                	mv	a0,s0
    3000:	0489                	addi	s1,s1,2
    3002:	3b45                	jal	2db2 <ge_p1p1_to_p3>
    3004:	fd349fe3          	bne	s1,s3,2fe2 <ge_scalarmult_base+0x70>
    3008:	85a2                	mv	a1,s0
    300a:	1a08                	addi	a0,sp,304
    300c:	3721                	jal	2f14 <ge_p3_dbl>
    300e:	1a0c                	addi	a1,sp,304
    3010:	0088                	addi	a0,sp,64
    3012:	33b5                	jal	2d7e <ge_p1p1_to_p2>
    3014:	008c                	addi	a1,sp,64
    3016:	1a08                	addi	a0,sp,304
    3018:	3bed                	jal	2e12 <ge_p2_dbl>
    301a:	1a0c                	addi	a1,sp,304
    301c:	0088                	addi	a0,sp,64
    301e:	3385                	jal	2d7e <ge_p1p1_to_p2>
    3020:	008c                	addi	a1,sp,64
    3022:	1a08                	addi	a0,sp,304
    3024:	33fd                	jal	2e12 <ge_p2_dbl>
    3026:	1a0c                	addi	a1,sp,304
    3028:	0088                	addi	a0,sp,64
    302a:	3b91                	jal	2d7e <ge_p1p1_to_p2>
    302c:	008c                	addi	a1,sp,64
    302e:	1a08                	addi	a0,sp,304
    3030:	33cd                	jal	2e12 <ge_p2_dbl>
    3032:	1a0c                	addi	a1,sp,304
    3034:	8522                	mv	a0,s0
    3036:	3bb5                	jal	2db2 <ge_p1p1_to_p3>
    3038:	4481                	li	s1,0
    303a:	04000993          	li	s3,64
    303e:	009907b3          	add	a5,s2,s1
    3042:	00078603          	lb	a2,0(a5)
    3046:	4014d593          	srai	a1,s1,0x1
    304a:	1928                	addi	a0,sp,184
    304c:	993ff0ef          	jal	ra,29de <select>
    3050:	1930                	addi	a2,sp,184
    3052:	85a2                	mv	a1,s0
    3054:	1a08                	addi	a0,sp,304
    3056:	3901                	jal	2c66 <ge_madd>
    3058:	1a0c                	addi	a1,sp,304
    305a:	8522                	mv	a0,s0
    305c:	0489                	addi	s1,s1,2
    305e:	3b91                	jal	2db2 <ge_p1p1_to_p3>
    3060:	fd349fe3          	bne	s1,s3,303e <ge_scalarmult_base+0xcc>
    3064:	6179                	addi	sp,sp,464
    3066:	ccafd06f          	j	530 <__riscv_restore_4>

0000306a <ge_sub>:
    306a:	c92fd2ef          	jal	t0,4fc <__riscv_save_4>
    306e:	02858993          	addi	s3,a1,40
    3072:	7179                	addi	sp,sp,-48
    3074:	842a                	mv	s0,a0
    3076:	8a32                	mv	s4,a2
    3078:	892e                	mv	s2,a1
    307a:	862e                	mv	a2,a1
    307c:	85ce                	mv	a1,s3
    307e:	02840493          	addi	s1,s0,40
    3082:	dd4fd0ef          	jal	ra,656 <fe_add>
    3086:	864a                	mv	a2,s2
    3088:	85ce                	mv	a1,s3
    308a:	8526                	mv	a0,s1
    308c:	d34ff0ef          	jal	ra,25c0 <fe_sub>
    3090:	05040993          	addi	s3,s0,80
    3094:	028a0613          	addi	a2,s4,40
    3098:	85a2                	mv	a1,s0
    309a:	854e                	mv	a0,s3
    309c:	9f9fd0ef          	jal	ra,a94 <fe_mul>
    30a0:	8652                	mv	a2,s4
    30a2:	85a6                	mv	a1,s1
    30a4:	8526                	mv	a0,s1
    30a6:	9effd0ef          	jal	ra,a94 <fe_mul>
    30aa:	07840a93          	addi	s5,s0,120
    30ae:	07890613          	addi	a2,s2,120
    30b2:	078a0593          	addi	a1,s4,120
    30b6:	8556                	mv	a0,s5
    30b8:	9ddfd0ef          	jal	ra,a94 <fe_mul>
    30bc:	050a0613          	addi	a2,s4,80
    30c0:	05090593          	addi	a1,s2,80
    30c4:	8522                	mv	a0,s0
    30c6:	9cffd0ef          	jal	ra,a94 <fe_mul>
    30ca:	8622                	mv	a2,s0
    30cc:	85a2                	mv	a1,s0
    30ce:	0028                	addi	a0,sp,8
    30d0:	d86fd0ef          	jal	ra,656 <fe_add>
    30d4:	8626                	mv	a2,s1
    30d6:	85ce                	mv	a1,s3
    30d8:	8522                	mv	a0,s0
    30da:	ce6ff0ef          	jal	ra,25c0 <fe_sub>
    30de:	8626                	mv	a2,s1
    30e0:	85ce                	mv	a1,s3
    30e2:	8526                	mv	a0,s1
    30e4:	d72fd0ef          	jal	ra,656 <fe_add>
    30e8:	8656                	mv	a2,s5
    30ea:	002c                	addi	a1,sp,8
    30ec:	854e                	mv	a0,s3
    30ee:	cd2ff0ef          	jal	ra,25c0 <fe_sub>
    30f2:	002c                	addi	a1,sp,8
    30f4:	8656                	mv	a2,s5
    30f6:	8556                	mv	a0,s5
    30f8:	d5efd0ef          	jal	ra,656 <fe_add>
    30fc:	6145                	addi	sp,sp,48
    30fe:	c32fd06f          	j	530 <__riscv_restore_4>

00003102 <ge_double_scalarmult_vartime>:
    3102:	becfd2ef          	jal	t0,4ee <__riscv_save_10>
    3106:	737d                	lui	t1,0xfffff
    3108:	71030313          	addi	t1,t1,1808 # fffff710 <__freertos_irq_stack_top+0xdfff7710>
    310c:	911a                	add	sp,sp,t1
    310e:	8a2a                	mv	s4,a0
    3110:	1b88                	addi	a0,sp,496
    3112:	8932                	mv	s2,a2
    3114:	c636                	sw	a3,12(sp)
    3116:	ff0ff0ef          	jal	ra,2906 <slide>
    311a:	46b2                	lw	a3,12(sp)
    311c:	1d88                	addi	a0,sp,752
    311e:	3f010993          	addi	s3,sp,1008
    3122:	85b6                	mv	a1,a3
    3124:	fe2ff0ef          	jal	ra,2906 <slide>
    3128:	85ca                	mv	a1,s2
    312a:	854e                	mv	a0,s3
    312c:	3bbd                	jal	2eaa <ge_p3_to_cached>
    312e:	6a85                	lui	s5,0x1
    3130:	0818                	addi	a4,sp,16
    3132:	747d                	lui	s0,0xfffff
    3134:	8e0a8793          	addi	a5,s5,-1824 # 8e0 <fe_frombytes+0xe0>
    3138:	97ba                	add	a5,a5,a4
    313a:	72040493          	addi	s1,s0,1824 # fffff720 <__freertos_irq_stack_top+0xdfff7720>
    313e:	94be                	add	s1,s1,a5
    3140:	85ca                	mv	a1,s2
    3142:	8526                	mv	a0,s1
    3144:	3bc1                	jal	2f14 <ge_p3_dbl>
    3146:	85a6                	mv	a1,s1
    3148:	0a88                	addi	a0,sp,336
    314a:	c69ff0ef          	jal	ra,2db2 <ge_p1p1_to_p3>
    314e:	864e                	mv	a2,s3
    3150:	0a8c                	addi	a1,sp,336
    3152:	8526                	mv	a0,s1
    3154:	981ff0ef          	jal	ra,2ad4 <ge_add>
    3158:	0818                	addi	a4,sp,16
    315a:	8e0a8793          	addi	a5,s5,-1824
    315e:	97ba                	add	a5,a5,a4
    3160:	7c040413          	addi	s0,s0,1984
    3164:	943e                	add	s0,s0,a5
    3166:	85a6                	mv	a1,s1
    3168:	8522                	mv	a0,s0
    316a:	c49ff0ef          	jal	ra,2db2 <ge_p1p1_to_p3>
    316e:	85a2                	mv	a1,s0
    3170:	49010513          	addi	a0,sp,1168
    3174:	3b1d                	jal	2eaa <ge_p3_to_cached>
    3176:	49010613          	addi	a2,sp,1168
    317a:	0a8c                	addi	a1,sp,336
    317c:	8526                	mv	a0,s1
    317e:	957ff0ef          	jal	ra,2ad4 <ge_add>
    3182:	85a6                	mv	a1,s1
    3184:	8522                	mv	a0,s0
    3186:	c2dff0ef          	jal	ra,2db2 <ge_p1p1_to_p3>
    318a:	85a2                	mv	a1,s0
    318c:	53010513          	addi	a0,sp,1328
    3190:	3b29                	jal	2eaa <ge_p3_to_cached>
    3192:	53010613          	addi	a2,sp,1328
    3196:	0a8c                	addi	a1,sp,336
    3198:	8526                	mv	a0,s1
    319a:	93bff0ef          	jal	ra,2ad4 <ge_add>
    319e:	85a6                	mv	a1,s1
    31a0:	8522                	mv	a0,s0
    31a2:	c11ff0ef          	jal	ra,2db2 <ge_p1p1_to_p3>
    31a6:	85a2                	mv	a1,s0
    31a8:	5d010513          	addi	a0,sp,1488
    31ac:	39fd                	jal	2eaa <ge_p3_to_cached>
    31ae:	5d010613          	addi	a2,sp,1488
    31b2:	0a8c                	addi	a1,sp,336
    31b4:	8526                	mv	a0,s1
    31b6:	91fff0ef          	jal	ra,2ad4 <ge_add>
    31ba:	85a6                	mv	a1,s1
    31bc:	8522                	mv	a0,s0
    31be:	bf5ff0ef          	jal	ra,2db2 <ge_p1p1_to_p3>
    31c2:	85a2                	mv	a1,s0
    31c4:	67010513          	addi	a0,sp,1648
    31c8:	31cd                	jal	2eaa <ge_p3_to_cached>
    31ca:	67010613          	addi	a2,sp,1648
    31ce:	0a8c                	addi	a1,sp,336
    31d0:	8526                	mv	a0,s1
    31d2:	903ff0ef          	jal	ra,2ad4 <ge_add>
    31d6:	85a6                	mv	a1,s1
    31d8:	8522                	mv	a0,s0
    31da:	bd9ff0ef          	jal	ra,2db2 <ge_p1p1_to_p3>
    31de:	85a2                	mv	a1,s0
    31e0:	71010513          	addi	a0,sp,1808
    31e4:	31d9                	jal	2eaa <ge_p3_to_cached>
    31e6:	71010613          	addi	a2,sp,1808
    31ea:	0a8c                	addi	a1,sp,336
    31ec:	8526                	mv	a0,s1
    31ee:	8e7ff0ef          	jal	ra,2ad4 <ge_add>
    31f2:	85a6                	mv	a1,s1
    31f4:	8522                	mv	a0,s0
    31f6:	bbdff0ef          	jal	ra,2db2 <ge_p1p1_to_p3>
    31fa:	85a2                	mv	a1,s0
    31fc:	7b010513          	addi	a0,sp,1968
    3200:	316d                	jal	2eaa <ge_p3_to_cached>
    3202:	7b010613          	addi	a2,sp,1968
    3206:	0a8c                	addi	a1,sp,336
    3208:	8526                	mv	a0,s1
    320a:	8cbff0ef          	jal	ra,2ad4 <ge_add>
    320e:	85a6                	mv	a1,s1
    3210:	8522                	mv	a0,s0
    3212:	ba1ff0ef          	jal	ra,2db2 <ge_p1p1_to_p3>
    3216:	840a8793          	addi	a5,s5,-1984
    321a:	0818                	addi	a4,sp,16
    321c:	00f70533          	add	a0,a4,a5
    3220:	85a2                	mv	a1,s0
    3222:	3161                	jal	2eaa <ge_p3_to_cached>
    3224:	8552                	mv	a0,s4
    3226:	bcfff0ef          	jal	ra,2df4 <ge_p2_0>
    322a:	0ff00913          	li	s2,255
    322e:	57fd                	li	a5,-1
    3230:	1b98                	addi	a4,sp,496
    3232:	974a                	add	a4,a4,s2
    3234:	00070703          	lb	a4,0(a4)
    3238:	ef11                	bnez	a4,3254 <ge_double_scalarmult_vartime+0x152>
    323a:	1d98                	addi	a4,sp,752
    323c:	974a                	add	a4,a4,s2
    323e:	00070703          	lb	a4,0(a4)
    3242:	eb09                	bnez	a4,3254 <ge_double_scalarmult_vartime+0x152>
    3244:	197d                	addi	s2,s2,-1
    3246:	fef915e3          	bne	s2,a5,3230 <ge_double_scalarmult_vartime+0x12e>
    324a:	6155                	addi	sp,sp,304
    324c:	7c010113          	addi	sp,sp,1984
    3250:	ad6fd06f          	j	526 <__riscv_restore_10>
    3254:	6705                	lui	a4,0x1
    3256:	747d                	lui	s0,0xfffff
    3258:	0814                	addi	a3,sp,16
    325a:	8e070793          	addi	a5,a4,-1824 # 8e0 <fe_frombytes+0xe0>
    325e:	72040493          	addi	s1,s0,1824 # fffff720 <__freertos_irq_stack_top+0xdfff7720>
    3262:	97b6                	add	a5,a5,a3
    3264:	94be                	add	s1,s1,a5
    3266:	8e070793          	addi	a5,a4,-1824
    326a:	7c040413          	addi	s0,s0,1984
    326e:	97b6                	add	a5,a5,a3
    3270:	6b35                	lui	s6,0xd
    3272:	943e                	add	s0,s0,a5
    3274:	4a89                	li	s5,2
    3276:	0a000b93          	li	s7,160
    327a:	e00b0b13          	addi	s6,s6,-512 # ce00 <Bi>
    327e:	85d2                	mv	a1,s4
    3280:	8526                	mv	a0,s1
    3282:	b91ff0ef          	jal	ra,2e12 <ge_p2_dbl>
    3286:	1b9c                	addi	a5,sp,496
    3288:	01278c33          	add	s8,a5,s2
    328c:	000c0783          	lb	a5,0(s8) # fe000000 <__freertos_irq_stack_top+0xddff8000>
    3290:	06f05163          	blez	a5,32f2 <ge_double_scalarmult_vartime+0x1f0>
    3294:	85a6                	mv	a1,s1
    3296:	8522                	mv	a0,s0
    3298:	b1bff0ef          	jal	ra,2db2 <ge_p1p1_to_p3>
    329c:	000c0603          	lb	a2,0(s8)
    32a0:	85a2                	mv	a1,s0
    32a2:	8526                	mv	a0,s1
    32a4:	03564633          	div	a2,a2,s5
    32a8:	03760633          	mul	a2,a2,s7
    32ac:	964e                	add	a2,a2,s3
    32ae:	827ff0ef          	jal	ra,2ad4 <ge_add>
    32b2:	1d9c                	addi	a5,sp,752
    32b4:	01278c33          	add	s8,a5,s2
    32b8:	000c0783          	lb	a5,0(s8)
    32bc:	04f05c63          	blez	a5,3314 <ge_double_scalarmult_vartime+0x212>
    32c0:	85a6                	mv	a1,s1
    32c2:	8522                	mv	a0,s0
    32c4:	aefff0ef          	jal	ra,2db2 <ge_p1p1_to_p3>
    32c8:	000c0603          	lb	a2,0(s8)
    32cc:	07800793          	li	a5,120
    32d0:	85a2                	mv	a1,s0
    32d2:	03564633          	div	a2,a2,s5
    32d6:	8526                	mv	a0,s1
    32d8:	02f60633          	mul	a2,a2,a5
    32dc:	965a                	add	a2,a2,s6
    32de:	989ff0ef          	jal	ra,2c66 <ge_madd>
    32e2:	85a6                	mv	a1,s1
    32e4:	8552                	mv	a0,s4
    32e6:	197d                	addi	s2,s2,-1
    32e8:	a97ff0ef          	jal	ra,2d7e <ge_p1p1_to_p2>
    32ec:	f80959e3          	bgez	s2,327e <ge_double_scalarmult_vartime+0x17c>
    32f0:	bfa9                	j	324a <ge_double_scalarmult_vartime+0x148>
    32f2:	d3e1                	beqz	a5,32b2 <ge_double_scalarmult_vartime+0x1b0>
    32f4:	85a6                	mv	a1,s1
    32f6:	8522                	mv	a0,s0
    32f8:	abbff0ef          	jal	ra,2db2 <ge_p1p1_to_p3>
    32fc:	000c0603          	lb	a2,0(s8)
    3300:	85a2                	mv	a1,s0
    3302:	8526                	mv	a0,s1
    3304:	03564633          	div	a2,a2,s5
    3308:	03760633          	mul	a2,a2,s7
    330c:	40c98633          	sub	a2,s3,a2
    3310:	3ba9                	jal	306a <ge_sub>
    3312:	b745                	j	32b2 <ge_double_scalarmult_vartime+0x1b0>
    3314:	d7f9                	beqz	a5,32e2 <ge_double_scalarmult_vartime+0x1e0>
    3316:	85a6                	mv	a1,s1
    3318:	8522                	mv	a0,s0
    331a:	a99ff0ef          	jal	ra,2db2 <ge_p1p1_to_p3>
    331e:	000c0603          	lb	a2,0(s8)
    3322:	f8800793          	li	a5,-120
    3326:	85a2                	mv	a1,s0
    3328:	03564633          	div	a2,a2,s5
    332c:	8526                	mv	a0,s1
    332e:	02f60633          	mul	a2,a2,a5
    3332:	965a                	add	a2,a2,s6
    3334:	9bfff0ef          	jal	ra,2cf2 <ge_msub>
    3338:	b76d                	j	32e2 <ge_double_scalarmult_vartime+0x1e0>

0000333a <ge_tobytes>:
    333a:	9dcfd2ef          	jal	t0,516 <__riscv_save_0>
    333e:	7119                	addi	sp,sp,-128
    3340:	842a                	mv	s0,a0
    3342:	84ae                	mv	s1,a1
    3344:	0028                	addi	a0,sp,8
    3346:	05058593          	addi	a1,a1,80
    334a:	8edfe0ef          	jal	ra,1c36 <fe_invert>
    334e:	0030                	addi	a2,sp,8
    3350:	85a6                	mv	a1,s1
    3352:	1808                	addi	a0,sp,48
    3354:	f40fd0ef          	jal	ra,a94 <fe_mul>
    3358:	0030                	addi	a2,sp,8
    335a:	02848593          	addi	a1,s1,40
    335e:	08a8                	addi	a0,sp,88
    3360:	f34fd0ef          	jal	ra,a94 <fe_mul>
    3364:	08ac                	addi	a1,sp,88
    3366:	8522                	mv	a0,s0
    3368:	ad2ff0ef          	jal	ra,263a <fe_tobytes>
    336c:	1808                	addi	a0,sp,48
    336e:	cceff0ef          	jal	ra,283c <fe_isnegative>
    3372:	3c7c                	lbu	a5,31(s0)
    3374:	051e                	slli	a0,a0,0x7
    3376:	8d3d                	xor	a0,a0,a5
    3378:	bc68                	sb	a0,31(s0)
    337a:	6109                	addi	sp,sp,128
    337c:	9befd06f          	j	53a <__riscv_restore_0>

00003380 <ed25519_create_keypair>:
    3380:	996fd2ef          	jal	t0,516 <__riscv_save_0>
    3384:	7135                	addi	sp,sp,-160
    3386:	842e                	mv	s0,a1
    3388:	84aa                	mv	s1,a0
    338a:	8532                	mv	a0,a2
    338c:	862e                	mv	a2,a1
    338e:	02000593          	li	a1,32
    3392:	3b9040ef          	jal	ra,7f4a <sha512>
    3396:	201c                	lbu	a5,0(s0)
    3398:	85a2                	mv	a1,s0
    339a:	850a                	mv	a0,sp
    339c:	9be1                	andi	a5,a5,-8
    339e:	a01c                	sb	a5,0(s0)
    33a0:	3c7c                	lbu	a5,31(s0)
    33a2:	03f7f793          	andi	a5,a5,63
    33a6:	0407e793          	ori	a5,a5,64
    33aa:	bc7c                	sb	a5,31(s0)
    33ac:	bc7ff0ef          	jal	ra,2f72 <ge_scalarmult_base>
    33b0:	858a                	mv	a1,sp
    33b2:	8526                	mv	a0,s1
    33b4:	b79ff0ef          	jal	ra,2f2c <ge_p3_tobytes>
    33b8:	610d                	addi	sp,sp,160
    33ba:	980fd06f          	j	53a <__riscv_restore_0>

000033be <load_3>:
    33be:	311c                	lbu	a5,1(a0)
    33c0:	2138                	lbu	a4,2(a0)
    33c2:	2114                	lbu	a3,0(a0)
    33c4:	07a2                	slli	a5,a5,0x8
    33c6:	0742                	slli	a4,a4,0x10
    33c8:	8fd9                	or	a5,a5,a4
    33ca:	00d7e533          	or	a0,a5,a3
    33ce:	4581                	li	a1,0
    33d0:	8082                	ret

000033d2 <load_4>:
    33d2:	311c                	lbu	a5,1(a0)
    33d4:	2118                	lbu	a4,0(a0)
    33d6:	4581                	li	a1,0
    33d8:	07a2                	slli	a5,a5,0x8
    33da:	8f5d                	or	a4,a4,a5
    33dc:	213c                	lbu	a5,2(a0)
    33de:	3128                	lbu	a0,3(a0)
    33e0:	07c2                	slli	a5,a5,0x10
    33e2:	8fd9                	or	a5,a5,a4
    33e4:	0562                	slli	a0,a0,0x18
    33e6:	8d5d                	or	a0,a0,a5
    33e8:	8082                	ret

000033ea <sc_reduce>:
    33ea:	8fcfd2ef          	jal	t0,4e6 <__riscv_save_12>
    33ee:	711d                	addi	sp,sp,-96
    33f0:	00200b37          	lui	s6,0x200
    33f4:	842a                	mv	s0,a0
    33f6:	1b7d                	addi	s6,s6,-1
    33f8:	37d9                	jal	33be <load_3>
    33fa:	016577b3          	and	a5,a0,s6
    33fe:	00240513          	addi	a0,s0,2
    3402:	c4be                	sw	a5,72(sp)
    3404:	37f9                	jal	33d2 <load_4>
    3406:	05ee                	slli	a1,a1,0x1b
    3408:	8115                	srli	a0,a0,0x5
    340a:	8d4d                	or	a0,a0,a1
    340c:	016577b3          	and	a5,a0,s6
    3410:	00540513          	addi	a0,s0,5
    3414:	c6be                	sw	a5,76(sp)
    3416:	3765                	jal	33be <load_3>
    3418:	05fa                	slli	a1,a1,0x1e
    341a:	8109                	srli	a0,a0,0x2
    341c:	8d4d                	or	a0,a0,a1
    341e:	016577b3          	and	a5,a0,s6
    3422:	00740513          	addi	a0,s0,7
    3426:	c8be                	sw	a5,80(sp)
    3428:	376d                	jal	33d2 <load_4>
    342a:	05e6                	slli	a1,a1,0x19
    342c:	811d                	srli	a0,a0,0x7
    342e:	8d4d                	or	a0,a0,a1
    3430:	016577b3          	and	a5,a0,s6
    3434:	00a40513          	addi	a0,s0,10
    3438:	cabe                	sw	a5,84(sp)
    343a:	3f61                	jal	33d2 <load_4>
    343c:	05f2                	slli	a1,a1,0x1c
    343e:	8111                	srli	a0,a0,0x4
    3440:	8d4d                	or	a0,a0,a1
    3442:	016577b3          	and	a5,a0,s6
    3446:	00d40513          	addi	a0,s0,13
    344a:	ccbe                	sw	a5,88(sp)
    344c:	3f8d                	jal	33be <load_3>
    344e:	05fe                	slli	a1,a1,0x1f
    3450:	8105                	srli	a0,a0,0x1
    3452:	8d4d                	or	a0,a0,a1
    3454:	016577b3          	and	a5,a0,s6
    3458:	00f40513          	addi	a0,s0,15
    345c:	cebe                	sw	a5,92(sp)
    345e:	3f95                	jal	33d2 <load_4>
    3460:	05ea                	slli	a1,a1,0x1a
    3462:	8119                	srli	a0,a0,0x6
    3464:	8d4d                	or	a0,a0,a1
    3466:	016577b3          	and	a5,a0,s6
    346a:	01240513          	addi	a0,s0,18
    346e:	cc3e                	sw	a5,24(sp)
    3470:	37b9                	jal	33be <load_3>
    3472:	05f6                	slli	a1,a1,0x1d
    3474:	810d                	srli	a0,a0,0x3
    3476:	8d4d                	or	a0,a0,a1
    3478:	016577b3          	and	a5,a0,s6
    347c:	01540513          	addi	a0,s0,21
    3480:	ca3e                	sw	a5,20(sp)
    3482:	3f35                	jal	33be <load_3>
    3484:	016577b3          	and	a5,a0,s6
    3488:	01740513          	addi	a0,s0,23
    348c:	d03e                	sw	a5,32(sp)
    348e:	3791                	jal	33d2 <load_4>
    3490:	05ee                	slli	a1,a1,0x1b
    3492:	8115                	srli	a0,a0,0x5
    3494:	8d4d                	or	a0,a0,a1
    3496:	016577b3          	and	a5,a0,s6
    349a:	01a40513          	addi	a0,s0,26
    349e:	d23e                	sw	a5,36(sp)
    34a0:	3f39                	jal	33be <load_3>
    34a2:	05fa                	slli	a1,a1,0x1e
    34a4:	8109                	srli	a0,a0,0x2
    34a6:	8d4d                	or	a0,a0,a1
    34a8:	016574b3          	and	s1,a0,s6
    34ac:	01c40513          	addi	a0,s0,28
    34b0:	370d                	jal	33d2 <load_4>
    34b2:	05e6                	slli	a1,a1,0x19
    34b4:	00755893          	srli	a7,a0,0x7
    34b8:	0115e8b3          	or	a7,a1,a7
    34bc:	0168f8b3          	and	a7,a7,s6
    34c0:	01f40513          	addi	a0,s0,31
    34c4:	c446                	sw	a7,8(sp)
    34c6:	3731                	jal	33d2 <load_4>
    34c8:	05f2                	slli	a1,a1,0x1c
    34ca:	8111                	srli	a0,a0,0x4
    34cc:	8d4d                	or	a0,a0,a1
    34ce:	01657db3          	and	s11,a0,s6
    34d2:	02240513          	addi	a0,s0,34
    34d6:	35e5                	jal	33be <load_3>
    34d8:	05fe                	slli	a1,a1,0x1f
    34da:	8105                	srli	a0,a0,0x1
    34dc:	8d4d                	or	a0,a0,a1
    34de:	01657d33          	and	s10,a0,s6
    34e2:	02440513          	addi	a0,s0,36
    34e6:	35f5                	jal	33d2 <load_4>
    34e8:	05ea                	slli	a1,a1,0x1a
    34ea:	8119                	srli	a0,a0,0x6
    34ec:	8d4d                	or	a0,a0,a1
    34ee:	01657c33          	and	s8,a0,s6
    34f2:	02740513          	addi	a0,s0,39
    34f6:	35e1                	jal	33be <load_3>
    34f8:	05f6                	slli	a1,a1,0x1d
    34fa:	810d                	srli	a0,a0,0x3
    34fc:	8d4d                	or	a0,a0,a1
    34fe:	01657bb3          	and	s7,a0,s6
    3502:	02a40513          	addi	a0,s0,42
    3506:	3d65                	jal	33be <load_3>
    3508:	01657cb3          	and	s9,a0,s6
    350c:	02c40513          	addi	a0,s0,44
    3510:	35c9                	jal	33d2 <load_4>
    3512:	05ee                	slli	a1,a1,0x1b
    3514:	8115                	srli	a0,a0,0x5
    3516:	8d4d                	or	a0,a0,a1
    3518:	016577b3          	and	a5,a0,s6
    351c:	02f40513          	addi	a0,s0,47
    3520:	de3e                	sw	a5,60(sp)
    3522:	3d71                	jal	33be <load_3>
    3524:	05fa                	slli	a1,a1,0x1e
    3526:	8109                	srli	a0,a0,0x2
    3528:	8d4d                	or	a0,a0,a1
    352a:	01657933          	and	s2,a0,s6
    352e:	03140513          	addi	a0,s0,49
    3532:	3545                	jal	33d2 <load_4>
    3534:	05e6                	slli	a1,a1,0x19
    3536:	811d                	srli	a0,a0,0x7
    3538:	8d4d                	or	a0,a0,a1
    353a:	016579b3          	and	s3,a0,s6
    353e:	03440513          	addi	a0,s0,52
    3542:	3d41                	jal	33d2 <load_4>
    3544:	05f2                	slli	a1,a1,0x1c
    3546:	8111                	srli	a0,a0,0x4
    3548:	8d4d                	or	a0,a0,a1
    354a:	01657a33          	and	s4,a0,s6
    354e:	03740513          	addi	a0,s0,55
    3552:	35b5                	jal	33be <load_3>
    3554:	05fe                	slli	a1,a1,0x1f
    3556:	8105                	srli	a0,a0,0x1
    3558:	8d4d                	or	a0,a0,a1
    355a:	01657ab3          	and	s5,a0,s6
    355e:	03940513          	addi	a0,s0,57
    3562:	3d85                	jal	33d2 <load_4>
    3564:	05ea                	slli	a1,a1,0x1a
    3566:	8119                	srli	a0,a0,0x6
    3568:	8d4d                	or	a0,a0,a1
    356a:	01657b33          	and	s6,a0,s6
    356e:	03c40513          	addi	a0,s0,60
    3572:	3585                	jal	33d2 <load_4>
    3574:	01d59793          	slli	a5,a1,0x1d
    3578:	810d                	srli	a0,a0,0x3
    357a:	000a3837          	lui	a6,0xa3
    357e:	c1380813          	addi	a6,a6,-1005 # a2c13 <_data_lma+0x8dd2b>
    3582:	8d5d                	or	a0,a0,a5
    3584:	818d                	srli	a1,a1,0x3
    3586:	030507b3          	mul	a5,a0,a6
    358a:	48a2                	lw	a7,8(sp)
    358c:	00073637          	lui	a2,0x73
    3590:	d1860613          	addi	a2,a2,-744 # 72d18 <_data_lma+0x5de30>
    3594:	030586b3          	mul	a3,a1,a6
    3598:	98be                	add	a7,a7,a5
    359a:	00f8b7b3          	sltu	a5,a7,a5
    359e:	03053733          	mulhu	a4,a0,a6
    35a2:	9736                	add	a4,a4,a3
    35a4:	97ba                	add	a5,a5,a4
    35a6:	c83e                	sw	a5,16(sp)
    35a8:	02c507b3          	mul	a5,a0,a2
    35ac:	000a06b7          	lui	a3,0xa0
    35b0:	b6768693          	addi	a3,a3,-1177 # 9fb67 <_data_lma+0x8ac7f>
    35b4:	02c533b3          	mulhu	t2,a0,a2
    35b8:	01b78333          	add	t1,a5,s11
    35bc:	02c58733          	mul	a4,a1,a2
    35c0:	971e                	add	a4,a4,t2
    35c2:	00f333b3          	sltu	t2,t1,a5
    35c6:	02d507b3          	mul	a5,a0,a3
    35ca:	93ba                	add	t2,t2,a4
    35cc:	02d532b3          	mulhu	t0,a0,a3
    35d0:	01a78eb3          	add	t4,a5,s10
    35d4:	40a00d33          	neg	s10,a0
    35d8:	02d58733          	mul	a4,a1,a3
    35dc:	9716                	add	a4,a4,t0
    35de:	00feb2b3          	sltu	t0,t4,a5
    35e2:	92ba                	add	t0,t0,a4
    35e4:	fff0c737          	lui	a4,0xfff0c
    35e8:	65370713          	addi	a4,a4,1619 # fff0c653 <__freertos_irq_stack_top+0xdff04653>
    35ec:	02e507b3          	mul	a5,a0,a4
    35f0:	02e58f33          	mul	t5,a1,a4
    35f4:	01878e33          	add	t3,a5,s8
    35f8:	02e53fb3          	mulhu	t6,a0,a4
    35fc:	9f6a                	add	t5,t5,s10
    35fe:	9f7e                	add	t5,t5,t6
    3600:	00fe3fb3          	sltu	t6,t3,a5
    3604:	000217b7          	lui	a5,0x21
    3608:	5d178793          	addi	a5,a5,1489 # 215d1 <_data_lma+0xc6e9>
    360c:	9ffa                	add	t6,t6,t5
    360e:	02f50f33          	mul	t5,a0,a5
    3612:	02f58db3          	mul	s11,a1,a5
    3616:	9bfa                	add	s7,s7,t5
    3618:	01ebbf33          	sltu	t5,s7,t5
    361c:	02f53c33          	mulhu	s8,a0,a5
    3620:	9c6e                	add	s8,s8,s11
    3622:	9c7a                	add	s8,s8,t5
    3624:	fff59f37          	lui	t5,0xfff59
    3628:	083f0f13          	addi	t5,t5,131 # fff59083 <__freertos_irq_stack_top+0xdff51083>
    362c:	03e50db3          	mul	s11,a0,t5
    3630:	03e585b3          	mul	a1,a1,t5
    3634:	03e53533          	mulhu	a0,a0,t5
    3638:	9d2e                	add	s10,s10,a1
    363a:	019d85b3          	add	a1,s11,s9
    363e:	01b5bdb3          	sltu	s11,a1,s11
    3642:	c42e                	sw	a1,8(sp)
    3644:	030b0cb3          	mul	s9,s6,a6
    3648:	956a                	add	a0,a0,s10
    364a:	00ad85b3          	add	a1,s11,a0
    364e:	c62e                	sw	a1,12(sp)
    3650:	4542                	lw	a0,16(sp)
    3652:	41600db3          	neg	s11,s6
    3656:	030b35b3          	mulhu	a1,s6,a6
    365a:	94e6                	add	s1,s1,s9
    365c:	0194bcb3          	sltu	s9,s1,s9
    3660:	02cb0d33          	mul	s10,s6,a2
    3664:	9cae                	add	s9,s9,a1
    3666:	02cb35b3          	mulhu	a1,s6,a2
    366a:	98ea                	add	a7,a7,s10
    366c:	01a8bd33          	sltu	s10,a7,s10
    3670:	95aa                	add	a1,a1,a0
    3672:	9d2e                	add	s10,s10,a1
    3674:	02db05b3          	mul	a1,s6,a3
    3678:	02db3533          	mulhu	a0,s6,a3
    367c:	932e                	add	t1,t1,a1
    367e:	00b335b3          	sltu	a1,t1,a1
    3682:	93aa                	add	t2,t2,a0
    3684:	93ae                	add	t2,t2,a1
    3686:	02eb3533          	mulhu	a0,s6,a4
    368a:	02eb05b3          	mul	a1,s6,a4
    368e:	956e                	add	a0,a0,s11
    3690:	92aa                	add	t0,t0,a0
    3692:	9eae                	add	t4,t4,a1
    3694:	00beb5b3          	sltu	a1,t4,a1
    3698:	9596                	add	a1,a1,t0
    369a:	02fb02b3          	mul	t0,s6,a5
    369e:	02fb3533          	mulhu	a0,s6,a5
    36a2:	9e16                	add	t3,t3,t0
    36a4:	005e32b3          	sltu	t0,t3,t0
    36a8:	9faa                	add	t6,t6,a0
    36aa:	9f96                	add	t6,t6,t0
    36ac:	03eb02b3          	mul	t0,s6,t5
    36b0:	03eb3b33          	mulhu	s6,s6,t5
    36b4:	01728533          	add	a0,t0,s7
    36b8:	005532b3          	sltu	t0,a0,t0
    36bc:	ce2a                	sw	a0,28(sp)
    36be:	9b6e                	add	s6,s6,s11
    36c0:	9c5a                	add	s8,s8,s6
    36c2:	01828533          	add	a0,t0,s8
    36c6:	030a8c33          	mul	s8,s5,a6
    36ca:	d42a                	sw	a0,40(sp)
    36cc:	5292                	lw	t0,36(sp)
    36ce:	41500b33          	neg	s6,s5
    36d2:	030ab533          	mulhu	a0,s5,a6
    36d6:	005c0bb3          	add	s7,s8,t0
    36da:	018bbc33          	sltu	s8,s7,s8
    36de:	9c2a                	add	s8,s8,a0
    36e0:	02ca8533          	mul	a0,s5,a2
    36e4:	02cab2b3          	mulhu	t0,s5,a2
    36e8:	94aa                	add	s1,s1,a0
    36ea:	00a4b533          	sltu	a0,s1,a0
    36ee:	9c96                	add	s9,s9,t0
    36f0:	9caa                	add	s9,s9,a0
    36f2:	02da8533          	mul	a0,s5,a3
    36f6:	02dab2b3          	mulhu	t0,s5,a3
    36fa:	98aa                	add	a7,a7,a0
    36fc:	00a8b533          	sltu	a0,a7,a0
    3700:	9d16                	add	s10,s10,t0
    3702:	9d2a                	add	s10,s10,a0
    3704:	02eab533          	mulhu	a0,s5,a4
    3708:	02fa8db3          	mul	s11,s5,a5
    370c:	955a                	add	a0,a0,s6
    370e:	93aa                	add	t2,t2,a0
    3710:	02fab533          	mulhu	a0,s5,a5
    3714:	9eee                	add	t4,t4,s11
    3716:	01bebdb3          	sltu	s11,t4,s11
    371a:	02ea82b3          	mul	t0,s5,a4
    371e:	95aa                	add	a1,a1,a0
    3720:	95ee                	add	a1,a1,s11
    3722:	03ea8db3          	mul	s11,s5,t5
    3726:	9316                	add	t1,t1,t0
    3728:	005332b3          	sltu	t0,t1,t0
    372c:	9396                	add	t2,t2,t0
    372e:	03eabab3          	mulhu	s5,s5,t5
    3732:	9e6e                	add	t3,t3,s11
    3734:	01be32b3          	sltu	t0,t3,s11
    3738:	9b56                	add	s6,s6,s5
    373a:	9b7e                	add	s6,s6,t6
    373c:	030a0ab3          	mul	s5,s4,a6
    3740:	01628533          	add	a0,t0,s6
    3744:	c82a                	sw	a0,16(sp)
    3746:	5f82                	lw	t6,32(sp)
    3748:	030a3533          	mulhu	a0,s4,a6
    374c:	01fa8b33          	add	s6,s5,t6
    3750:	015b3ab3          	sltu	s5,s6,s5
    3754:	9aaa                	add	s5,s5,a0
    3756:	02ca0533          	mul	a0,s4,a2
    375a:	02ca3fb3          	mulhu	t6,s4,a2
    375e:	9baa                	add	s7,s7,a0
    3760:	00abb533          	sltu	a0,s7,a0
    3764:	9c7e                	add	s8,s8,t6
    3766:	9c2a                	add	s8,s8,a0
    3768:	02da0533          	mul	a0,s4,a3
    376c:	02da3fb3          	mulhu	t6,s4,a3
    3770:	94aa                	add	s1,s1,a0
    3772:	00a4b533          	sltu	a0,s1,a0
    3776:	9cfe                	add	s9,s9,t6
    3778:	02ea02b3          	mul	t0,s4,a4
    377c:	9caa                	add	s9,s9,a0
    377e:	41400fb3          	neg	t6,s4
    3782:	02ea3533          	mulhu	a0,s4,a4
    3786:	9896                	add	a7,a7,t0
    3788:	0058b2b3          	sltu	t0,a7,t0
    378c:	957e                	add	a0,a0,t6
    378e:	9d2a                	add	s10,s10,a0
    3790:	9d16                	add	s10,s10,t0
    3792:	02fa32b3          	mulhu	t0,s4,a5
    3796:	02fa0533          	mul	a0,s4,a5
    379a:	9396                	add	t2,t2,t0
    379c:	03ea02b3          	mul	t0,s4,t5
    37a0:	932a                	add	t1,t1,a0
    37a2:	00a33533          	sltu	a0,t1,a0
    37a6:	93aa                	add	t2,t2,a0
    37a8:	03ea3a33          	mulhu	s4,s4,t5
    37ac:	01d28533          	add	a0,t0,t4
    37b0:	005532b3          	sltu	t0,a0,t0
    37b4:	d02a                	sw	a0,32(sp)
    37b6:	4552                	lw	a0,20(sp)
    37b8:	9fd2                	add	t6,t6,s4
    37ba:	9fae                	add	t6,t6,a1
    37bc:	03098a33          	mul	s4,s3,a6
    37c0:	01f285b3          	add	a1,t0,t6
    37c4:	d62e                	sw	a1,44(sp)
    37c6:	0309b5b3          	mulhu	a1,s3,a6
    37ca:	00aa0fb3          	add	t6,s4,a0
    37ce:	014fba33          	sltu	s4,t6,s4
    37d2:	9a2e                	add	s4,s4,a1
    37d4:	02c9b5b3          	mulhu	a1,s3,a2
    37d8:	9aae                	add	s5,s5,a1
    37da:	02d985b3          	mul	a1,s3,a3
    37de:	02d9beb3          	mulhu	t4,s3,a3
    37e2:	9bae                	add	s7,s7,a1
    37e4:	00bbb5b3          	sltu	a1,s7,a1
    37e8:	9c76                	add	s8,s8,t4
    37ea:	02e9b533          	mulhu	a0,s3,a4
    37ee:	9c2e                	add	s8,s8,a1
    37f0:	41300eb3          	neg	t4,s3
    37f4:	02e985b3          	mul	a1,s3,a4
    37f8:	9576                	add	a0,a0,t4
    37fa:	9caa                	add	s9,s9,a0
    37fc:	94ae                	add	s1,s1,a1
    37fe:	00b4b5b3          	sltu	a1,s1,a1
    3802:	9cae                	add	s9,s9,a1
    3804:	02f985b3          	mul	a1,s3,a5
    3808:	02f9b533          	mulhu	a0,s3,a5
    380c:	98ae                	add	a7,a7,a1
    380e:	00b8b5b3          	sltu	a1,a7,a1
    3812:	9d2a                	add	s10,s10,a0
    3814:	02c982b3          	mul	t0,s3,a2
    3818:	9d2e                	add	s10,s10,a1
    381a:	4562                	lw	a0,24(sp)
    381c:	03e985b3          	mul	a1,s3,t5
    3820:	9b16                	add	s6,s6,t0
    3822:	005b32b3          	sltu	t0,s6,t0
    3826:	9a96                	add	s5,s5,t0
    3828:	03e9b9b3          	mulhu	s3,s3,t5
    382c:	932e                	add	t1,t1,a1
    382e:	00b335b3          	sltu	a1,t1,a1
    3832:	9ece                	add	t4,t4,s3
    3834:	9e9e                	add	t4,t4,t2
    3836:	030903b3          	mul	t2,s2,a6
    383a:	95f6                	add	a1,a1,t4
    383c:	ca2e                	sw	a1,20(sp)
    383e:	41200eb3          	neg	t4,s2
    3842:	030935b3          	mulhu	a1,s2,a6
    3846:	00a38db3          	add	s11,t2,a0
    384a:	007db3b3          	sltu	t2,s11,t2
    384e:	93ae                	add	t2,t2,a1
    3850:	02c905b3          	mul	a1,s2,a2
    3854:	02c93533          	mulhu	a0,s2,a2
    3858:	9fae                	add	t6,t6,a1
    385a:	00bfb5b3          	sltu	a1,t6,a1
    385e:	9a2a                	add	s4,s4,a0
    3860:	9a2e                	add	s4,s4,a1
    3862:	02d935b3          	mulhu	a1,s2,a3
    3866:	02d902b3          	mul	t0,s2,a3
    386a:	9aae                	add	s5,s5,a1
    386c:	02e90533          	mul	a0,s2,a4
    3870:	9b16                	add	s6,s6,t0
    3872:	005b32b3          	sltu	t0,s6,t0
    3876:	92d6                	add	t0,t0,s5
    3878:	02e935b3          	mulhu	a1,s2,a4
    387c:	9baa                	add	s7,s7,a0
    387e:	00abb533          	sltu	a0,s7,a0
    3882:	95f6                	add	a1,a1,t4
    3884:	9c2e                	add	s8,s8,a1
    3886:	02f905b3          	mul	a1,s2,a5
    388a:	9c2a                	add	s8,s8,a0
    388c:	03e90ab3          	mul	s5,s2,t5
    3890:	94ae                	add	s1,s1,a1
    3892:	00b4b5b3          	sltu	a1,s1,a1
    3896:	02f93533          	mulhu	a0,s2,a5
    389a:	98d6                	add	a7,a7,s5
    389c:	0158bab3          	sltu	s5,a7,s5
    38a0:	03e93933          	mulhu	s2,s2,t5
    38a4:	9caa                	add	s9,s9,a0
    38a6:	95e6                	add	a1,a1,s9
    38a8:	00100cb7          	lui	s9,0x100
    38ac:	9eca                	add	t4,t4,s2
    38ae:	9eea                	add	t4,t4,s10
    38b0:	01da89b3          	add	s3,s5,t4
    38b4:	019d8eb3          	add	t4,s11,s9
    38b8:	01beb933          	sltu	s2,t4,s11
    38bc:	991e                	add	s2,s2,t2
    38be:	00b91a93          	slli	s5,s2,0xb
    38c2:	015ed513          	srli	a0,t4,0x15
    38c6:	00aae533          	or	a0,s5,a0
    38ca:	9faa                	add	t6,t6,a0
    38cc:	41595a93          	srai	s5,s2,0x15
    38d0:	9a56                	add	s4,s4,s5
    38d2:	00afb533          	sltu	a0,t6,a0
    38d6:	ffe00ab7          	lui	s5,0xffe00
    38da:	9552                	add	a0,a0,s4
    38dc:	01dafeb3          	and	t4,s5,t4
    38e0:	cc2a                	sw	a0,24(sp)
    38e2:	41dd8533          	sub	a0,s11,t4
    38e6:	41238933          	sub	s2,t2,s2
    38ea:	00adbdb3          	sltu	s11,s11,a0
    38ee:	d22a                	sw	a0,36(sp)
    38f0:	41b90533          	sub	a0,s2,s11
    38f4:	019b0933          	add	s2,s6,s9
    38f8:	016933b3          	sltu	t2,s2,s6
    38fc:	9396                	add	t2,t2,t0
    38fe:	d82a                	sw	a0,48(sp)
    3900:	00b39e93          	slli	t4,t2,0xb
    3904:	01595513          	srli	a0,s2,0x15
    3908:	00aee533          	or	a0,t4,a0
    390c:	01750eb3          	add	t4,a0,s7
    3910:	4153da13          	srai	s4,t2,0x15
    3914:	9c52                	add	s8,s8,s4
    3916:	012af933          	and	s2,s5,s2
    391a:	00aeb533          	sltu	a0,t4,a0
    391e:	9562                	add	a0,a0,s8
    3920:	412b0c33          	sub	s8,s6,s2
    3924:	01948933          	add	s2,s1,s9
    3928:	018b3a33          	sltu	s4,s6,s8
    392c:	407282b3          	sub	t0,t0,t2
    3930:	009933b3          	sltu	t2,s2,s1
    3934:	93ae                	add	t2,t2,a1
    3936:	414282b3          	sub	t0,t0,s4
    393a:	da16                	sw	t0,52(sp)
    393c:	00b39a13          	slli	s4,t2,0xb
    3940:	01595293          	srli	t0,s2,0x15
    3944:	012af933          	and	s2,s5,s2
    3948:	005a62b3          	or	t0,s4,t0
    394c:	41248933          	sub	s2,s1,s2
    3950:	4153da13          	srai	s4,t2,0x15
    3954:	013a0d33          	add	s10,s4,s3
    3958:	0124b4b3          	sltu	s1,s1,s2
    395c:	407589b3          	sub	s3,a1,t2
    3960:	9896                	add	a7,a7,t0
    3962:	409985b3          	sub	a1,s3,s1
    3966:	44d2                	lw	s1,20(sp)
    3968:	0058b2b3          	sltu	t0,a7,t0
    396c:	dc2e                	sw	a1,56(sp)
    396e:	019305b3          	add	a1,t1,s9
    3972:	9d16                	add	s10,s10,t0
    3974:	0065b2b3          	sltu	t0,a1,t1
    3978:	92a6                	add	t0,t0,s1
    397a:	00b29393          	slli	t2,t0,0xb
    397e:	0155db13          	srli	s6,a1,0x15
    3982:	0163eb33          	or	s6,t2,s6
    3986:	5382                	lw	t2,32(sp)
    3988:	59b2                	lw	s3,44(sp)
    398a:	4152d493          	srai	s1,t0,0x15
    398e:	93da                	add	t2,t2,s6
    3990:	94ce                	add	s1,s1,s3
    3992:	0163bb33          	sltu	s6,t2,s6
    3996:	9b26                	add	s6,s6,s1
    3998:	44d2                	lw	s1,20(sp)
    399a:	00baf5b3          	and	a1,s5,a1
    399e:	40b305b3          	sub	a1,t1,a1
    39a2:	00b33333          	sltu	t1,t1,a1
    39a6:	405482b3          	sub	t0,s1,t0
    39aa:	406284b3          	sub	s1,t0,t1
    39ae:	d026                	sw	s1,32(sp)
    39b0:	44c2                	lw	s1,16(sp)
    39b2:	019e0333          	add	t1,t3,s9
    39b6:	01c332b3          	sltu	t0,t1,t3
    39ba:	92a6                	add	t0,t0,s1
    39bc:	4bf2                	lw	s7,28(sp)
    39be:	8a66                	mv	s4,s9
    39c0:	89d6                	mv	s3,s5
    39c2:	5ca2                	lw	s9,40(sp)
    39c4:	00b29493          	slli	s1,t0,0xb
    39c8:	01535a93          	srli	s5,t1,0x15
    39cc:	0154eab3          	or	s5,s1,s5
    39d0:	9bd6                	add	s7,s7,s5
    39d2:	4152d493          	srai	s1,t0,0x15
    39d6:	94e6                	add	s1,s1,s9
    39d8:	015bbab3          	sltu	s5,s7,s5
    39dc:	9aa6                	add	s5,s5,s1
    39de:	44c2                	lw	s1,16(sp)
    39e0:	0069f333          	and	t1,s3,t1
    39e4:	406e0333          	sub	t1,t3,t1
    39e8:	006e3e33          	sltu	t3,t3,t1
    39ec:	405482b3          	sub	t0,s1,t0
    39f0:	41c284b3          	sub	s1,t0,t3
    39f4:	c826                	sw	s1,16(sp)
    39f6:	44a2                	lw	s1,8(sp)
    39f8:	42b2                	lw	t0,12(sp)
    39fa:	5df2                	lw	s11,60(sp)
    39fc:	01448e33          	add	t3,s1,s4
    3a00:	009e34b3          	sltu	s1,t3,s1
    3a04:	9496                	add	s1,s1,t0
    3a06:	8cce                	mv	s9,s3
    3a08:	015e5293          	srli	t0,t3,0x15
    3a0c:	00b49993          	slli	s3,s1,0xb
    3a10:	0059e2b3          	or	t0,s3,t0
    3a14:	9d96                	add	s11,s11,t0
    3a16:	4154d993          	srai	s3,s1,0x15
    3a1a:	005db2b3          	sltu	t0,s11,t0
    3a1e:	92ce                	add	t0,t0,s3
    3a20:	49a2                	lw	s3,8(sp)
    3a22:	01ccfe33          	and	t3,s9,t3
    3a26:	41c98e33          	sub	t3,s3,t3
    3a2a:	01c9bcb3          	sltu	s9,s3,t3
    3a2e:	49b2                	lw	s3,12(sp)
    3a30:	409984b3          	sub	s1,s3,s1
    3a34:	419484b3          	sub	s1,s1,s9
    3a38:	49e2                	lw	s3,24(sp)
    3a3a:	d626                	sw	s1,44(sp)
    3a3c:	014f84b3          	add	s1,t6,s4
    3a40:	01f4bcb3          	sltu	s9,s1,t6
    3a44:	9cce                	add	s9,s9,s3
    3a46:	00bc9a13          	slli	s4,s9,0xb
    3a4a:	0154d993          	srli	s3,s1,0x15
    3a4e:	013a69b3          	or	s3,s4,s3
    3a52:	9c4e                	add	s8,s8,s3
    3a54:	ca62                	sw	s8,20(sp)
    3a56:	013c39b3          	sltu	s3,s8,s3
    3a5a:	5c52                	lw	s8,52(sp)
    3a5c:	415cda13          	srai	s4,s9,0x15
    3a60:	9a62                	add	s4,s4,s8
    3a62:	01498c33          	add	s8,s3,s4
    3a66:	da62                	sw	s8,52(sp)
    3a68:	ffe009b7          	lui	s3,0xffe00
    3a6c:	4c62                	lw	s8,24(sp)
    3a6e:	0099f4b3          	and	s1,s3,s1
    3a72:	409f84b3          	sub	s1,t6,s1
    3a76:	419c0cb3          	sub	s9,s8,s9
    3a7a:	009fbfb3          	sltu	t6,t6,s1
    3a7e:	41fc8fb3          	sub	t6,s9,t6
    3a82:	00100cb7          	lui	s9,0x100
    3a86:	019e8c33          	add	s8,t4,s9
    3a8a:	01dc3a33          	sltu	s4,s8,t4
    3a8e:	9a2a                	add	s4,s4,a0
    3a90:	de7e                	sw	t6,60(sp)
    3a92:	00ba1993          	slli	s3,s4,0xb
    3a96:	015c5f93          	srli	t6,s8,0x15
    3a9a:	01f9efb3          	or	t6,s3,t6
    3a9e:	997e                	add	s2,s2,t6
    3aa0:	cc4a                	sw	s2,24(sp)
    3aa2:	01f93fb3          	sltu	t6,s2,t6
    3aa6:	5962                	lw	s2,56(sp)
    3aa8:	415a5993          	srai	s3,s4,0x15
    3aac:	41450533          	sub	a0,a0,s4
    3ab0:	99ca                	add	s3,s3,s2
    3ab2:	9fce                	add	t6,t6,s3
    3ab4:	ffe009b7          	lui	s3,0xffe00
    3ab8:	0189fc33          	and	s8,s3,s8
    3abc:	dc7e                	sw	t6,56(sp)
    3abe:	418e8fb3          	sub	t6,t4,s8
    3ac2:	ce7e                	sw	t6,28(sp)
    3ac4:	01febeb3          	sltu	t4,t4,t6
    3ac8:	01988fb3          	add	t6,a7,s9
    3acc:	41d50533          	sub	a0,a0,t4
    3ad0:	011fbeb3          	sltu	t4,t6,a7
    3ad4:	9eea                	add	t4,t4,s10
    3ad6:	5a02                	lw	s4,32(sp)
    3ad8:	c0aa                	sw	a0,64(sp)
    3ada:	00be9913          	slli	s2,t4,0xb
    3ade:	015fd513          	srli	a0,t6,0x15
    3ae2:	00a96533          	or	a0,s2,a0
    3ae6:	95aa                	add	a1,a1,a0
    3ae8:	415ed913          	srai	s2,t4,0x15
    3aec:	9952                	add	s2,s2,s4
    3aee:	00a5b533          	sltu	a0,a1,a0
    3af2:	954a                	add	a0,a0,s2
    3af4:	01f9ffb3          	and	t6,s3,t6
    3af8:	c62a                	sw	a0,12(sp)
    3afa:	41f88533          	sub	a0,a7,t6
    3afe:	41dd0d33          	sub	s10,s10,t4
    3b02:	00a8b8b3          	sltu	a7,a7,a0
    3b06:	d42a                	sw	a0,40(sp)
    3b08:	411d0533          	sub	a0,s10,a7
    3b0c:	019388b3          	add	a7,t2,s9
    3b10:	0078bfb3          	sltu	t6,a7,t2
    3b14:	9fda                	add	t6,t6,s6
    3b16:	894e                	mv	s2,s3
    3b18:	c2aa                	sw	a0,68(sp)
    3b1a:	49c2                	lw	s3,16(sp)
    3b1c:	00bf9e93          	slli	t4,t6,0xb
    3b20:	0158d513          	srli	a0,a7,0x15
    3b24:	00aee533          	or	a0,t4,a0
    3b28:	932a                	add	t1,t1,a0
    3b2a:	415fde93          	srai	t4,t6,0x15
    3b2e:	011978b3          	and	a7,s2,a7
    3b32:	411388b3          	sub	a7,t2,a7
    3b36:	9ece                	add	t4,t4,s3
    3b38:	00a33533          	sltu	a0,t1,a0
    3b3c:	9576                	add	a0,a0,t4
    3b3e:	0113b3b3          	sltu	t2,t2,a7
    3b42:	41fb0b33          	sub	s6,s6,t6
    3b46:	c42a                	sw	a0,8(sp)
    3b48:	019b8fb3          	add	t6,s7,s9
    3b4c:	407b0533          	sub	a0,s6,t2
    3b50:	c82a                	sw	a0,16(sp)
    3b52:	017fb533          	sltu	a0,t6,s7
    3b56:	9556                	add	a0,a0,s5
    3b58:	00b51e93          	slli	t4,a0,0xb
    3b5c:	015fd393          	srli	t2,t6,0x15
    3b60:	03028b33          	mul	s6,t0,a6
    3b64:	007ee3b3          	or	t2,t4,t2
    3b68:	40aa8ab3          	sub	s5,s5,a0
    3b6c:	5eb2                	lw	t4,44(sp)
    3b6e:	41555c93          	srai	s9,a0,0x15
    3b72:	01f97fb3          	and	t6,s2,t6
    3b76:	9cf6                	add	s9,s9,t4
    3b78:	5a42                	lw	s4,48(sp)
    3b7a:	9e1e                	add	t3,t3,t2
    3b7c:	41fb8fb3          	sub	t6,s7,t6
    3b80:	030db533          	mulhu	a0,s11,a6
    3b84:	007e33b3          	sltu	t2,t3,t2
    3b88:	01fbbbb3          	sltu	s7,s7,t6
    3b8c:	93e6                	add	t2,t2,s9
    3b8e:	417a8bb3          	sub	s7,s5,s7
    3b92:	41b00d33          	neg	s10,s11
    3b96:	030d8eb3          	mul	t4,s11,a6
    3b9a:	00ab0933          	add	s2,s6,a0
    3b9e:	4576                	lw	a0,92(sp)
    3ba0:	9576                	add	a0,a0,t4
    3ba2:	01d53b33          	sltu	s6,a0,t4
    3ba6:	9b4a                	add	s6,s6,s2
    3ba8:	02cdbeb3          	mulhu	t4,s11,a2
    3bac:	02c28933          	mul	s2,t0,a2
    3bb0:	02cd89b3          	mul	s3,s11,a2
    3bb4:	9976                	add	s2,s2,t4
    3bb6:	5e92                	lw	t4,36(sp)
    3bb8:	9952                	add	s2,s2,s4
    3bba:	9ece                	add	t4,t4,s3
    3bbc:	013eb9b3          	sltu	s3,t4,s3
    3bc0:	01298ab3          	add	s5,s3,s2
    3bc4:	02ddbcb3          	mulhu	s9,s11,a3
    3bc8:	02d289b3          	mul	s3,t0,a3
    3bcc:	02dd8933          	mul	s2,s11,a3
    3bd0:	9cce                	add	s9,s9,s3
    3bd2:	59f2                	lw	s3,60(sp)
    3bd4:	9cce                	add	s9,s9,s3
    3bd6:	94ca                	add	s1,s1,s2
    3bd8:	0124b933          	sltu	s2,s1,s2
    3bdc:	019909b3          	add	s3,s2,s9
    3be0:	d04e                	sw	s3,32(sp)
    3be2:	02e289b3          	mul	s3,t0,a4
    3be6:	02edba33          	mulhu	s4,s11,a4
    3bea:	99ea                	add	s3,s3,s10
    3bec:	02ed8c33          	mul	s8,s11,a4
    3bf0:	99d2                	add	s3,s3,s4
    3bf2:	4a52                	lw	s4,20(sp)
    3bf4:	014c0933          	add	s2,s8,s4
    3bf8:	5a52                	lw	s4,52(sp)
    3bfa:	01893c33          	sltu	s8,s2,s8
    3bfe:	02fdbcb3          	mulhu	s9,s11,a5
    3c02:	99d2                	add	s3,s3,s4
    3c04:	013c0a33          	add	s4,s8,s3
    3c08:	02f28c33          	mul	s8,t0,a5
    3c0c:	02fd89b3          	mul	s3,s11,a5
    3c10:	9ce2                	add	s9,s9,s8
    3c12:	4c72                	lw	s8,28(sp)
    3c14:	9c4e                	add	s8,s8,s3
    3c16:	013c39b3          	sltu	s3,s8,s3
    3c1a:	ca4e                	sw	s3,20(sp)
    3c1c:	4986                	lw	s3,64(sp)
    3c1e:	03e282b3          	mul	t0,t0,t5
    3c22:	9cce                	add	s9,s9,s3
    3c24:	49d2                	lw	s3,20(sp)
    3c26:	99e6                	add	s3,s3,s9
    3c28:	03ed8cb3          	mul	s9,s11,t5
    3c2c:	9d16                	add	s10,s10,t0
    3c2e:	42e2                	lw	t0,24(sp)
    3c30:	03edbdb3          	mulhu	s11,s11,t5
    3c34:	92e6                	add	t0,t0,s9
    3c36:	ca16                	sw	t0,20(sp)
    3c38:	0192bcb3          	sltu	s9,t0,s9
    3c3c:	52e2                	lw	t0,56(sp)
    3c3e:	9d6e                	add	s10,s10,s11
    3c40:	9d16                	add	s10,s10,t0
    3c42:	01ac82b3          	add	t0,s9,s10
    3c46:	ce16                	sw	t0,28(sp)
    3c48:	03038d33          	mul	s10,t2,a6
    3c4c:	030e32b3          	mulhu	t0,t3,a6
    3c50:	030e0cb3          	mul	s9,t3,a6
    3c54:	9d16                	add	s10,s10,t0
    3c56:	42e6                	lw	t0,88(sp)
    3c58:	92e6                	add	t0,t0,s9
    3c5a:	0192bcb3          	sltu	s9,t0,s9
    3c5e:	9d66                	add	s10,s10,s9
    3c60:	02c38db3          	mul	s11,t2,a2
    3c64:	cc6a                	sw	s10,24(sp)
    3c66:	02ce3cb3          	mulhu	s9,t3,a2
    3c6a:	02ce0d33          	mul	s10,t3,a2
    3c6e:	9cee                	add	s9,s9,s11
    3c70:	9cda                	add	s9,s9,s6
    3c72:	956a                	add	a0,a0,s10
    3c74:	01a53d33          	sltu	s10,a0,s10
    3c78:	019d0db3          	add	s11,s10,s9
    3c7c:	02de3b33          	mulhu	s6,t3,a3
    3c80:	02d38d33          	mul	s10,t2,a3
    3c84:	02de0cb3          	mul	s9,t3,a3
    3c88:	9b6a                	add	s6,s6,s10
    3c8a:	9ada                	add	s5,s5,s6
    3c8c:	41c00b33          	neg	s6,t3
    3c90:	9ee6                	add	t4,t4,s9
    3c92:	019ebcb3          	sltu	s9,t4,s9
    3c96:	9ae6                	add	s5,s5,s9
    3c98:	d656                	sw	s5,44(sp)
    3c9a:	02e38ab3          	mul	s5,t2,a4
    3c9e:	016a8d33          	add	s10,s5,s6
    3ca2:	02ee3ab3          	mulhu	s5,t3,a4
    3ca6:	02ee0cb3          	mul	s9,t3,a4
    3caa:	9aea                	add	s5,s5,s10
    3cac:	5d02                	lw	s10,32(sp)
    3cae:	9aea                	add	s5,s5,s10
    3cb0:	94e6                	add	s1,s1,s9
    3cb2:	0194bcb3          	sltu	s9,s1,s9
    3cb6:	9ae6                	add	s5,s5,s9
    3cb8:	d056                	sw	s5,32(sp)
    3cba:	02f38d33          	mul	s10,t2,a5
    3cbe:	02fe3ab3          	mulhu	s5,t3,a5
    3cc2:	03e383b3          	mul	t2,t2,t5
    3cc6:	9aea                	add	s5,s5,s10
    3cc8:	9ad2                	add	s5,s5,s4
    3cca:	02fe0cb3          	mul	s9,t3,a5
    3cce:	9b1e                	add	s6,s6,t2
    3cd0:	03ee0a33          	mul	s4,t3,t5
    3cd4:	9966                	add	s2,s2,s9
    3cd6:	01993cb3          	sltu	s9,s2,s9
    3cda:	9ae6                	add	s5,s5,s9
    3cdc:	03ee3e33          	mulhu	t3,t3,t5
    3ce0:	9b72                	add	s6,s6,t3
    3ce2:	018a0e33          	add	t3,s4,s8
    3ce6:	9b4e                	add	s6,s6,s3
    3ce8:	014e3a33          	sltu	s4,t3,s4
    3cec:	d272                	sw	t3,36(sp)
    3cee:	016a0e33          	add	t3,s4,s6
    3cf2:	030b83b3          	mul	t2,s7,a6
    3cf6:	da72                	sw	t3,52(sp)
    3cf8:	4b62                	lw	s6,24(sp)
    3cfa:	030fbe33          	mulhu	t3,t6,a6
    3cfe:	030f89b3          	mul	s3,t6,a6
    3d02:	01c38a33          	add	s4,t2,t3
    3d06:	4e56                	lw	t3,84(sp)
    3d08:	9e4e                	add	t3,t3,s3
    3d0a:	02cb8c33          	mul	s8,s7,a2
    3d0e:	013e33b3          	sltu	t2,t3,s3
    3d12:	93d2                	add	t2,t2,s4
    3d14:	02cfb9b3          	mulhu	s3,t6,a2
    3d18:	99e2                	add	s3,s3,s8
    3d1a:	01698c33          	add	s8,s3,s6
    3d1e:	02dfbcb3          	mulhu	s9,t6,a3
    3d22:	02db8b33          	mul	s6,s7,a3
    3d26:	02cf8a33          	mul	s4,t6,a2
    3d2a:	9cda                	add	s9,s9,s6
    3d2c:	9de6                	add	s11,s11,s9
    3d2e:	02df89b3          	mul	s3,t6,a3
    3d32:	92d2                	add	t0,t0,s4
    3d34:	0142ba33          	sltu	s4,t0,s4
    3d38:	9c52                	add	s8,s8,s4
    3d3a:	41f00a33          	neg	s4,t6
    3d3e:	02eb8cb3          	mul	s9,s7,a4
    3d42:	954e                	add	a0,a0,s3
    3d44:	013539b3          	sltu	s3,a0,s3
    3d48:	9dce                	add	s11,s11,s3
    3d4a:	014c8b33          	add	s6,s9,s4
    3d4e:	02efbcb3          	mulhu	s9,t6,a4
    3d52:	02ef89b3          	mul	s3,t6,a4
    3d56:	9cda                	add	s9,s9,s6
    3d58:	5b32                	lw	s6,44(sp)
    3d5a:	9cda                	add	s9,s9,s6
    3d5c:	9ece                	add	t4,t4,s3
    3d5e:	013eb9b3          	sltu	s3,t4,s3
    3d62:	01998b33          	add	s6,s3,s9
    3d66:	02fb8cb3          	mul	s9,s7,a5
    3d6a:	02ffb9b3          	mulhu	s3,t6,a5
    3d6e:	02ff8d33          	mul	s10,t6,a5
    3d72:	99e6                	add	s3,s3,s9
    3d74:	5c82                	lw	s9,32(sp)
    3d76:	99e6                	add	s3,s3,s9
    3d78:	00100cb7          	lui	s9,0x100
    3d7c:	94ea                	add	s1,s1,s10
    3d7e:	03eb8bb3          	mul	s7,s7,t5
    3d82:	01a4bd33          	sltu	s10,s1,s10
    3d86:	9d4e                	add	s10,s10,s3
    3d88:	03ef89b3          	mul	s3,t6,t5
    3d8c:	9a5e                	add	s4,s4,s7
    3d8e:	03efbfb3          	mulhu	t6,t6,t5
    3d92:	9a7e                	add	s4,s4,t6
    3d94:	01298fb3          	add	t6,s3,s2
    3d98:	9ad2                	add	s5,s5,s4
    3d9a:	013fb9b3          	sltu	s3,t6,s3
    3d9e:	cc7e                	sw	t6,24(sp)
    3da0:	01598fb3          	add	t6,s3,s5
    3da4:	d07e                	sw	t6,32(sp)
    3da6:	4fa2                	lw	t6,8(sp)
    3da8:	030309b3          	mul	s3,t1,a6
    3dac:	030f8933          	mul	s2,t6,a6
    3db0:	03033fb3          	mulhu	t6,t1,a6
    3db4:	01f90a33          	add	s4,s2,t6
    3db8:	4fc6                	lw	t6,80(sp)
    3dba:	9fce                	add	t6,t6,s3
    3dbc:	013fb933          	sltu	s2,t6,s3
    3dc0:	49a2                	lw	s3,8(sp)
    3dc2:	9952                	add	s2,s2,s4
    3dc4:	02c30a33          	mul	s4,t1,a2
    3dc8:	02c98ab3          	mul	s5,s3,a2
    3dcc:	9e52                	add	t3,t3,s4
    3dce:	014e3a33          	sltu	s4,t3,s4
    3dd2:	02c339b3          	mulhu	s3,t1,a2
    3dd6:	99d6                	add	s3,s3,s5
    3dd8:	93ce                	add	t2,t2,s3
    3dda:	49a2                	lw	s3,8(sp)
    3ddc:	93d2                	add	t2,t2,s4
    3dde:	02d30a33          	mul	s4,t1,a3
    3de2:	02d98ab3          	mul	s5,s3,a3
    3de6:	92d2                	add	t0,t0,s4
    3de8:	0142ba33          	sltu	s4,t0,s4
    3dec:	02d339b3          	mulhu	s3,t1,a3
    3df0:	99d6                	add	s3,s3,s5
    3df2:	9c4e                	add	s8,s8,s3
    3df4:	49a2                	lw	s3,8(sp)
    3df6:	9c52                	add	s8,s8,s4
    3df8:	40600a33          	neg	s4,t1
    3dfc:	02e989b3          	mul	s3,s3,a4
    3e00:	01498bb3          	add	s7,s3,s4
    3e04:	02e339b3          	mulhu	s3,t1,a4
    3e08:	02e30ab3          	mul	s5,t1,a4
    3e0c:	99de                	add	s3,s3,s7
    3e0e:	9dce                	add	s11,s11,s3
    3e10:	49a2                	lw	s3,8(sp)
    3e12:	02f98bb3          	mul	s7,s3,a5
    3e16:	9556                	add	a0,a0,s5
    3e18:	01553ab3          	sltu	s5,a0,s5
    3e1c:	9dd6                	add	s11,s11,s5
    3e1e:	02f339b3          	mulhu	s3,t1,a5
    3e22:	02f30ab3          	mul	s5,t1,a5
    3e26:	99de                	add	s3,s3,s7
    3e28:	9b4e                	add	s6,s6,s3
    3e2a:	49a2                	lw	s3,8(sp)
    3e2c:	c442                	sw	a6,8(sp)
    3e2e:	9ed6                	add	t4,t4,s5
    3e30:	015ebab3          	sltu	s5,t4,s5
    3e34:	03e989b3          	mul	s3,s3,t5
    3e38:	9b56                	add	s6,s6,s5
    3e3a:	03e30ab3          	mul	s5,t1,t5
    3e3e:	9a4e                	add	s4,s4,s3
    3e40:	03e33333          	mulhu	t1,t1,t5
    3e44:	9a1a                	add	s4,s4,t1
    3e46:	009a8333          	add	t1,s5,s1
    3e4a:	9a6a                	add	s4,s4,s10
    3e4c:	01533ab3          	sltu	s5,t1,s5
    3e50:	d61a                	sw	t1,44(sp)
    3e52:	014a8333          	add	t1,s5,s4
    3e56:	dc1a                	sw	t1,56(sp)
    3e58:	4342                	lw	t1,16(sp)
    3e5a:	030889b3          	mul	s3,a7,a6
    3e5e:	030304b3          	mul	s1,t1,a6
    3e62:	0308b333          	mulhu	t1,a7,a6
    3e66:	4832                	lw	a6,12(sp)
    3e68:	00648a33          	add	s4,s1,t1
    3e6c:	4336                	lw	t1,76(sp)
    3e6e:	934e                	add	t1,t1,s3
    3e70:	013334b3          	sltu	s1,t1,s3
    3e74:	49c2                	lw	s3,16(sp)
    3e76:	94d2                	add	s1,s1,s4
    3e78:	02c88a33          	mul	s4,a7,a2
    3e7c:	02c98ab3          	mul	s5,s3,a2
    3e80:	9fd2                	add	t6,t6,s4
    3e82:	014fba33          	sltu	s4,t6,s4
    3e86:	02c8b9b3          	mulhu	s3,a7,a2
    3e8a:	99d6                	add	s3,s3,s5
    3e8c:	994e                	add	s2,s2,s3
    3e8e:	49c2                	lw	s3,16(sp)
    3e90:	9952                	add	s2,s2,s4
    3e92:	02d88a33          	mul	s4,a7,a3
    3e96:	02d98ab3          	mul	s5,s3,a3
    3e9a:	9e52                	add	t3,t3,s4
    3e9c:	014e3a33          	sltu	s4,t3,s4
    3ea0:	02d8b9b3          	mulhu	s3,a7,a3
    3ea4:	99d6                	add	s3,s3,s5
    3ea6:	93ce                	add	t2,t2,s3
    3ea8:	49c2                	lw	s3,16(sp)
    3eaa:	93d2                	add	t2,t2,s4
    3eac:	02e88ab3          	mul	s5,a7,a4
    3eb0:	02e98a33          	mul	s4,s3,a4
    3eb4:	411009b3          	neg	s3,a7
    3eb8:	92d6                	add	t0,t0,s5
    3eba:	0152bab3          	sltu	s5,t0,s5
    3ebe:	013a0bb3          	add	s7,s4,s3
    3ec2:	02e8ba33          	mulhu	s4,a7,a4
    3ec6:	9a5e                	add	s4,s4,s7
    3ec8:	9c52                	add	s8,s8,s4
    3eca:	4a42                	lw	s4,16(sp)
    3ecc:	9c56                	add	s8,s8,s5
    3ece:	02f88ab3          	mul	s5,a7,a5
    3ed2:	02fa0bb3          	mul	s7,s4,a5
    3ed6:	9556                	add	a0,a0,s5
    3ed8:	01553ab3          	sltu	s5,a0,s5
    3edc:	02f8ba33          	mulhu	s4,a7,a5
    3ee0:	9a5e                	add	s4,s4,s7
    3ee2:	9dd2                	add	s11,s11,s4
    3ee4:	4a42                	lw	s4,16(sp)
    3ee6:	9dd6                	add	s11,s11,s5
    3ee8:	02e58bb3          	mul	s7,a1,a4
    3eec:	03ea0d33          	mul	s10,s4,t5
    3ef0:	9e5e                	add	t3,t3,s7
    3ef2:	017e3bb3          	sltu	s7,t3,s7
    3ef6:	03e88a33          	mul	s4,a7,t5
    3efa:	99ea                	add	s3,s3,s10
    3efc:	03e8b8b3          	mulhu	a7,a7,t5
    3f00:	9ed2                	add	t4,t4,s4
    3f02:	014eba33          	sltu	s4,t4,s4
    3f06:	98ce                	add	a7,a7,s3
    3f08:	9b46                	add	s6,s6,a7
    3f0a:	48a2                	lw	a7,8(sp)
    3f0c:	016a0d33          	add	s10,s4,s6
    3f10:	03180a33          	mul	s4,a6,a7
    3f14:	0315b833          	mulhu	a6,a1,a7
    3f18:	031589b3          	mul	s3,a1,a7
    3f1c:	9a42                	add	s4,s4,a6
    3f1e:	4826                	lw	a6,72(sp)
    3f20:	010988b3          	add	a7,s3,a6
    3f24:	0138b833          	sltu	a6,a7,s3
    3f28:	49b2                	lw	s3,12(sp)
    3f2a:	9852                	add	a6,a6,s4
    3f2c:	02c58a33          	mul	s4,a1,a2
    3f30:	02c98ab3          	mul	s5,s3,a2
    3f34:	9352                	add	t1,t1,s4
    3f36:	01433a33          	sltu	s4,t1,s4
    3f3a:	02c5b9b3          	mulhu	s3,a1,a2
    3f3e:	99d6                	add	s3,s3,s5
    3f40:	94ce                	add	s1,s1,s3
    3f42:	49b2                	lw	s3,12(sp)
    3f44:	02d58ab3          	mul	s5,a1,a3
    3f48:	94d2                	add	s1,s1,s4
    3f4a:	02d989b3          	mul	s3,s3,a3
    3f4e:	02d5ba33          	mulhu	s4,a1,a3
    3f52:	9a4e                	add	s4,s4,s3
    3f54:	01fa89b3          	add	s3,s5,t6
    3f58:	4fb2                	lw	t6,12(sp)
    3f5a:	9952                	add	s2,s2,s4
    3f5c:	0159bab3          	sltu	s5,s3,s5
    3f60:	02ef8a33          	mul	s4,t6,a4
    3f64:	40b00fb3          	neg	t6,a1
    3f68:	9956                	add	s2,s2,s5
    3f6a:	01fa0ab3          	add	s5,s4,t6
    3f6e:	02e5ba33          	mulhu	s4,a1,a4
    3f72:	9a56                	add	s4,s4,s5
    3f74:	93d2                	add	t2,t2,s4
    3f76:	4a32                	lw	s4,12(sp)
    3f78:	02f58ab3          	mul	s5,a1,a5
    3f7c:	93de                	add	t2,t2,s7
    3f7e:	02fa0b33          	mul	s6,s4,a5
    3f82:	92d6                	add	t0,t0,s5
    3f84:	0152bab3          	sltu	s5,t0,s5
    3f88:	02f5ba33          	mulhu	s4,a1,a5
    3f8c:	9a5a                	add	s4,s4,s6
    3f8e:	9c52                	add	s8,s8,s4
    3f90:	4a32                	lw	s4,12(sp)
    3f92:	01988b33          	add	s6,a7,s9
    3f96:	9c56                	add	s8,s8,s5
    3f98:	03ea0a33          	mul	s4,s4,t5
    3f9c:	011b3ab3          	sltu	s5,s6,a7
    3fa0:	9ac2                	add	s5,s5,a6
    3fa2:	015b5b93          	srli	s7,s6,0x15
    3fa6:	415adc93          	srai	s9,s5,0x15
    3faa:	94e6                	add	s1,s1,s9
    3fac:	00100cb7          	lui	s9,0x100
    3fb0:	9cce                	add	s9,s9,s3
    3fb2:	41580833          	sub	a6,a6,s5
    3fb6:	9fd2                	add	t6,t6,s4
    3fb8:	03e58a33          	mul	s4,a1,t5
    3fbc:	03e5b5b3          	mulhu	a1,a1,t5
    3fc0:	9552                	add	a0,a0,s4
    3fc2:	01453a33          	sltu	s4,a0,s4
    3fc6:	9fae                	add	t6,t6,a1
    3fc8:	9dfe                	add	s11,s11,t6
    3fca:	01ba05b3          	add	a1,s4,s11
    3fce:	00ba9a13          	slli	s4,s5,0xb
    3fd2:	017a6bb3          	or	s7,s4,s7
    3fd6:	006b8a33          	add	s4,s7,t1
    3fda:	017a3bb3          	sltu	s7,s4,s7
    3fde:	009b8db3          	add	s11,s7,s1
    3fe2:	ffe004b7          	lui	s1,0xffe00
    3fe6:	0164fb33          	and	s6,s1,s6
    3fea:	416884b3          	sub	s1,a7,s6
    3fee:	0098b8b3          	sltu	a7,a7,s1
    3ff2:	d826                	sw	s1,48(sp)
    3ff4:	411804b3          	sub	s1,a6,a7
    3ff8:	013cb833          	sltu	a6,s9,s3
    3ffc:	984a                	add	a6,a6,s2
    3ffe:	00100fb7          	lui	t6,0x100
    4002:	00b81893          	slli	a7,a6,0xb
    4006:	015cdb93          	srli	s7,s9,0x15
    400a:	01f28b33          	add	s6,t0,t6
    400e:	0178ebb3          	or	s7,a7,s7
    4012:	ffe00337          	lui	t1,0xffe00
    4016:	9e5e                	add	t3,t3,s7
    4018:	41585893          	srai	a7,a6,0x15
    401c:	41090933          	sub	s2,s2,a6
    4020:	005b3833          	sltu	a6,s6,t0
    4024:	9862                	add	a6,a6,s8
    4026:	93c6                	add	t2,t2,a7
    4028:	017e3bb3          	sltu	s7,t3,s7
    402c:	01937cb3          	and	s9,t1,s9
    4030:	9b9e                	add	s7,s7,t2
    4032:	00b81893          	slli	a7,a6,0xb
    4036:	41998cb3          	sub	s9,s3,s9
    403a:	015b5393          	srli	t2,s6,0x15
    403e:	0199b9b3          	sltu	s3,s3,s9
    4042:	0078e3b3          	or	t2,a7,t2
    4046:	01637b33          	and	s6,t1,s6
    404a:	951e                	add	a0,a0,t2
    404c:	de26                	sw	s1,60(sp)
    404e:	41585893          	srai	a7,a6,0x15
    4052:	413904b3          	sub	s1,s2,s3
    4056:	41628b33          	sub	s6,t0,s6
    405a:	01fe89b3          	add	s3,t4,t6
    405e:	95c6                	add	a1,a1,a7
    4060:	0162b2b3          	sltu	t0,t0,s6
    4064:	410c0c33          	sub	s8,s8,a6
    4068:	007533b3          	sltu	t2,a0,t2
    406c:	01d9b833          	sltu	a6,s3,t4
    4070:	986a                	add	a6,a6,s10
    4072:	93ae                	add	t2,t2,a1
    4074:	405c05b3          	sub	a1,s8,t0
    4078:	c0a6                	sw	s1,64(sp)
    407a:	c4ae                	sw	a1,72(sp)
    407c:	54b2                	lw	s1,44(sp)
    407e:	00b81893          	slli	a7,a6,0xb
    4082:	0159d593          	srli	a1,s3,0x15
    4086:	00b8e5b3          	or	a1,a7,a1
    408a:	58e2                	lw	a7,56(sp)
    408c:	94ae                	add	s1,s1,a1
    408e:	41585a93          	srai	s5,a6,0x15
    4092:	013379b3          	and	s3,t1,s3
    4096:	9ac6                	add	s5,s5,a7
    4098:	00b4b5b3          	sltu	a1,s1,a1
    409c:	413e89b3          	sub	s3,t4,s3
    40a0:	95d6                	add	a1,a1,s5
    40a2:	013ebeb3          	sltu	t4,t4,s3
    40a6:	410d0d33          	sub	s10,s10,a6
    40aa:	c62e                	sw	a1,12(sp)
    40ac:	41dd05b3          	sub	a1,s10,t4
    40b0:	d62e                	sw	a1,44(sp)
    40b2:	45e2                	lw	a1,24(sp)
    40b4:	5892                	lw	a7,36(sp)
    40b6:	01f582b3          	add	t0,a1,t6
    40ba:	00b2bab3          	sltu	s5,t0,a1
    40be:	5582                	lw	a1,32(sp)
    40c0:	9aae                	add	s5,s5,a1
    40c2:	00ba9813          	slli	a6,s5,0xb
    40c6:	0152d593          	srli	a1,t0,0x15
    40ca:	00b865b3          	or	a1,a6,a1
    40ce:	01158c33          	add	s8,a1,a7
    40d2:	58d2                	lw	a7,52(sp)
    40d4:	415ad813          	srai	a6,s5,0x15
    40d8:	00bc35b3          	sltu	a1,s8,a1
    40dc:	9846                	add	a6,a6,a7
    40de:	95c2                	add	a1,a1,a6
    40e0:	c82e                	sw	a1,16(sp)
    40e2:	45e2                	lw	a1,24(sp)
    40e4:	005372b3          	and	t0,t1,t0
    40e8:	48f2                	lw	a7,28(sp)
    40ea:	405582b3          	sub	t0,a1,t0
    40ee:	0055b933          	sltu	s2,a1,t0
    40f2:	5582                	lw	a1,32(sp)
    40f4:	41558ab3          	sub	s5,a1,s5
    40f8:	412a85b3          	sub	a1,s5,s2
    40fc:	d02e                	sw	a1,32(sp)
    40fe:	45d2                	lw	a1,20(sp)
    4100:	01f58833          	add	a6,a1,t6
    4104:	00b835b3          	sltu	a1,a6,a1
    4108:	95c6                	add	a1,a1,a7
    410a:	00b59893          	slli	a7,a1,0xb
    410e:	01585e93          	srli	t4,a6,0x15
    4112:	01d8eeb3          	or	t4,a7,t4
    4116:	58a2                	lw	a7,40(sp)
    4118:	4155d913          	srai	s2,a1,0x15
    411c:	01037833          	and	a6,t1,a6
    4120:	011e8ab3          	add	s5,t4,a7
    4124:	4896                	lw	a7,68(sp)
    4126:	01dabeb3          	sltu	t4,s5,t4
    412a:	98ca                	add	a7,a7,s2
    412c:	98f6                	add	a7,a7,t4
    412e:	4ed2                	lw	t4,20(sp)
    4130:	410e8833          	sub	a6,t4,a6
    4134:	010eb933          	sltu	s2,t4,a6
    4138:	4ef2                	lw	t4,28(sp)
    413a:	40be85b3          	sub	a1,t4,a1
    413e:	412585b3          	sub	a1,a1,s2
    4142:	ce2e                	sw	a1,28(sp)
    4144:	01fa05b3          	add	a1,s4,t6
    4148:	0145bd33          	sltu	s10,a1,s4
    414c:	9d6e                	add	s10,s10,s11
    414e:	00bd1913          	slli	s2,s10,0xb
    4152:	0155de93          	srli	t4,a1,0x15
    4156:	01d96eb3          	or	t4,s2,t4
    415a:	9cf6                	add	s9,s9,t4
    415c:	ca66                	sw	s9,20(sp)
    415e:	01dcbeb3          	sltu	t4,s9,t4
    4162:	4c86                	lw	s9,64(sp)
    4164:	415d5913          	srai	s2,s10,0x15
    4168:	00b375b3          	and	a1,t1,a1
    416c:	9966                	add	s2,s2,s9
    416e:	40ba05b3          	sub	a1,s4,a1
    4172:	9eca                	add	t4,t4,s2
    4174:	00ba3a33          	sltu	s4,s4,a1
    4178:	41ad8db3          	sub	s11,s11,s10
    417c:	d276                	sw	t4,36(sp)
    417e:	414d8eb3          	sub	t4,s11,s4
    4182:	d476                	sw	t4,40(sp)
    4184:	01fe0eb3          	add	t4,t3,t6
    4188:	01ceba33          	sltu	s4,t4,t3
    418c:	9a5e                	add	s4,s4,s7
    418e:	00ba1c93          	slli	s9,s4,0xb
    4192:	015ed913          	srli	s2,t4,0x15
    4196:	012ce933          	or	s2,s9,s2
    419a:	01d37eb3          	and	t4,t1,t4
    419e:	01690db3          	add	s11,s2,s6
    41a2:	41de0eb3          	sub	t4,t3,t4
    41a6:	4b26                	lw	s6,72(sp)
    41a8:	01de3e33          	sltu	t3,t3,t4
    41ac:	414b8bb3          	sub	s7,s7,s4
    41b0:	415a5c93          	srai	s9,s4,0x15
    41b4:	41cb8bb3          	sub	s7,s7,t3
    41b8:	01f50e33          	add	t3,a0,t6
    41bc:	9cda                	add	s9,s9,s6
    41be:	00ae3a33          	sltu	s4,t3,a0
    41c2:	012db933          	sltu	s2,s11,s2
    41c6:	9a1e                	add	s4,s4,t2
    41c8:	9966                	add	s2,s2,s9
    41ca:	da4a                	sw	s2,52(sp)
    41cc:	00ba1b13          	slli	s6,s4,0xb
    41d0:	015e5913          	srli	s2,t3,0x15
    41d4:	012b6933          	or	s2,s6,s2
    41d8:	99ca                	add	s3,s3,s2
    41da:	cc4e                	sw	s3,24(sp)
    41dc:	0129b933          	sltu	s2,s3,s2
    41e0:	59b2                	lw	s3,44(sp)
    41e2:	415a5b13          	srai	s6,s4,0x15
    41e6:	01c37e33          	and	t3,t1,t3
    41ea:	9b4e                	add	s6,s6,s3
    41ec:	41c50e33          	sub	t3,a0,t3
    41f0:	995a                	add	s2,s2,s6
    41f2:	414383b3          	sub	t2,t2,s4
    41f6:	01c53533          	sltu	a0,a0,t3
    41fa:	d64a                	sw	s2,44(sp)
    41fc:	40a38533          	sub	a0,t2,a0
    4200:	43b2                	lw	t2,12(sp)
    4202:	dc2a                	sw	a0,56(sp)
    4204:	01f48533          	add	a0,s1,t6
    4208:	009539b3          	sltu	s3,a0,s1
    420c:	999e                	add	s3,s3,t2
    420e:	00b99913          	slli	s2,s3,0xb
    4212:	01555393          	srli	t2,a0,0x15
    4216:	007963b3          	or	t2,s2,t2
    421a:	00538d33          	add	s10,t2,t0
    421e:	5282                	lw	t0,32(sp)
    4220:	4159d913          	srai	s2,s3,0x15
    4224:	007d33b3          	sltu	t2,s10,t2
    4228:	9916                	add	s2,s2,t0
    422a:	012382b3          	add	t0,t2,s2
    422e:	d016                	sw	t0,32(sp)
    4230:	42b2                	lw	t0,12(sp)
    4232:	00a37533          	and	a0,t1,a0
    4236:	40a48533          	sub	a0,s1,a0
    423a:	413289b3          	sub	s3,t0,s3
    423e:	00a4b4b3          	sltu	s1,s1,a0
    4242:	42c2                	lw	t0,16(sp)
    4244:	409984b3          	sub	s1,s3,s1
    4248:	c626                	sw	s1,12(sp)
    424a:	01fc04b3          	add	s1,s8,t6
    424e:	0184b3b3          	sltu	t2,s1,s8
    4252:	9396                	add	t2,t2,t0
    4254:	49f2                	lw	s3,28(sp)
    4256:	00b39913          	slli	s2,t2,0xb
    425a:	0154d293          	srli	t0,s1,0x15
    425e:	005962b3          	or	t0,s2,t0
    4262:	9816                	add	a6,a6,t0
    4264:	4153d913          	srai	s2,t2,0x15
    4268:	994e                	add	s2,s2,s3
    426a:	005832b3          	sltu	t0,a6,t0
    426e:	9fd6                	add	t6,t6,s5
    4270:	92ca                	add	t0,t0,s2
    4272:	ce16                	sw	t0,28(sp)
    4274:	015fb933          	sltu	s2,t6,s5
    4278:	42c2                	lw	t0,16(sp)
    427a:	009374b3          	and	s1,t1,s1
    427e:	01f37333          	and	t1,t1,t6
    4282:	9946                	add	s2,s2,a7
    4284:	406a8333          	sub	t1,s5,t1
    4288:	006abab3          	sltu	s5,s5,t1
    428c:	409c04b3          	sub	s1,s8,s1
    4290:	412888b3          	sub	a7,a7,s2
    4294:	009c3c33          	sltu	s8,s8,s1
    4298:	415888b3          	sub	a7,a7,s5
    429c:	407283b3          	sub	t2,t0,t2
    42a0:	418382b3          	sub	t0,t2,s8
    42a4:	c0c6                	sw	a7,64(sp)
    42a6:	48a2                	lw	a7,8(sp)
    42a8:	c816                	sw	t0,16(sp)
    42aa:	00b91393          	slli	t2,s2,0xb
    42ae:	015fd293          	srli	t0,t6,0x15
    42b2:	0053e2b3          	or	t0,t2,t0
    42b6:	41595393          	srai	t2,s2,0x15
    42ba:	03138ab3          	mul	s5,t2,a7
    42be:	5fc2                	lw	t6,48(sp)
    42c0:	59f2                	lw	s3,60(sp)
    42c2:	40500c33          	neg	s8,t0
    42c6:	03128933          	mul	s2,t0,a7
    42ca:	0312b8b3          	mulhu	a7,t0,a7
    42ce:	9fca                	add	t6,t6,s2
    42d0:	012fb933          	sltu	s2,t6,s2
    42d4:	98d6                	add	a7,a7,s5
    42d6:	98ce                	add	a7,a7,s3
    42d8:	02c38a33          	mul	s4,t2,a2
    42dc:	98ca                	add	a7,a7,s2
    42de:	02c2b933          	mulhu	s2,t0,a2
    42e2:	02c289b3          	mul	s3,t0,a2
    42e6:	9952                	add	s2,s2,s4
    42e8:	5a22                	lw	s4,40(sp)
    42ea:	9a4a                	add	s4,s4,s2
    42ec:	4952                	lw	s2,20(sp)
    42ee:	02d28b33          	mul	s6,t0,a3
    42f2:	95ce                	add	a1,a1,s3
    42f4:	0135b9b3          	sltu	s3,a1,s3
    42f8:	9a4e                	add	s4,s4,s3
    42fa:	02d2bab3          	mulhu	s5,t0,a3
    42fe:	012b0cb3          	add	s9,s6,s2
    4302:	5912                	lw	s2,36(sp)
    4304:	016cbb33          	sltu	s6,s9,s6
    4308:	02d389b3          	mul	s3,t2,a3
    430c:	9ace                	add	s5,s5,s3
    430e:	9956                	add	s2,s2,s5
    4310:	012b09b3          	add	s3,s6,s2
    4314:	02e38933          	mul	s2,t2,a4
    4318:	01890b33          	add	s6,s2,s8
    431c:	02e2b933          	mulhu	s2,t0,a4
    4320:	02e28ab3          	mul	s5,t0,a4
    4324:	995a                	add	s2,s2,s6
    4326:	9bca                	add	s7,s7,s2
    4328:	02f38b33          	mul	s6,t2,a5
    432c:	9ed6                	add	t4,t4,s5
    432e:	015ebab3          	sltu	s5,t4,s5
    4332:	9bd6                	add	s7,s7,s5
    4334:	02f2b933          	mulhu	s2,t0,a5
    4338:	02f28ab3          	mul	s5,t0,a5
    433c:	995a                	add	s2,s2,s6
    433e:	5b52                	lw	s6,52(sp)
    4340:	995a                	add	s2,s2,s6
    4342:	9dd6                	add	s11,s11,s5
    4344:	015dbab3          	sltu	s5,s11,s5
    4348:	03e383b3          	mul	t2,t2,t5
    434c:	9956                	add	s2,s2,s5
    434e:	03e28ab3          	mul	s5,t0,t5
    4352:	9c1e                	add	s8,s8,t2
    4354:	00b89393          	slli	t2,a7,0xb
    4358:	4158d893          	srai	a7,a7,0x15
    435c:	9a46                	add	s4,s4,a7
    435e:	002008b7          	lui	a7,0x200
    4362:	18fd                	addi	a7,a7,-1
    4364:	03e2b2b3          	mulhu	t0,t0,t5
    4368:	9e56                	add	t3,t3,s5
    436a:	015e3ab3          	sltu	s5,t3,s5
    436e:	9c16                	add	s8,s8,t0
    4370:	52e2                	lw	t0,56(sp)
    4372:	9c16                	add	s8,s8,t0
    4374:	015fd293          	srli	t0,t6,0x15
    4378:	0053e2b3          	or	t0,t2,t0
    437c:	9596                	add	a1,a1,t0
    437e:	0055b2b3          	sltu	t0,a1,t0
    4382:	9a16                	add	s4,s4,t0
    4384:	00ba1393          	slli	t2,s4,0xb
    4388:	0155d293          	srli	t0,a1,0x15
    438c:	0053e2b3          	or	t0,t2,t0
    4390:	9c96                	add	s9,s9,t0
    4392:	415a5a13          	srai	s4,s4,0x15
    4396:	005cb2b3          	sltu	t0,s9,t0
    439a:	9a4e                	add	s4,s4,s3
    439c:	9a16                	add	s4,s4,t0
    439e:	00ba1293          	slli	t0,s4,0xb
    43a2:	015cd393          	srli	t2,s9,0x15
    43a6:	0072e3b3          	or	t2,t0,t2
    43aa:	9e9e                	add	t4,t4,t2
    43ac:	415a5a13          	srai	s4,s4,0x15
    43b0:	007eb3b3          	sltu	t2,t4,t2
    43b4:	9a5e                	add	s4,s4,s7
    43b6:	9a1e                	add	s4,s4,t2
    43b8:	00ba1393          	slli	t2,s4,0xb
    43bc:	015ed293          	srli	t0,t4,0x15
    43c0:	0053e2b3          	or	t0,t2,t0
    43c4:	9d96                	add	s11,s11,t0
    43c6:	415a5a13          	srai	s4,s4,0x15
    43ca:	005db2b3          	sltu	t0,s11,t0
    43ce:	9a4a                	add	s4,s4,s2
    43d0:	9a16                	add	s4,s4,t0
    43d2:	00ba1293          	slli	t0,s4,0xb
    43d6:	015dd993          	srli	s3,s11,0x15
    43da:	0132e9b3          	or	s3,t0,s3
    43de:	9c56                	add	s8,s8,s5
    43e0:	9e4e                	add	t3,t3,s3
    43e2:	415a5a13          	srai	s4,s4,0x15
    43e6:	013e39b3          	sltu	s3,t3,s3
    43ea:	9a62                	add	s4,s4,s8
    43ec:	9a4e                	add	s4,s4,s3
    43ee:	00ba1393          	slli	t2,s4,0xb
    43f2:	015e5293          	srli	t0,t3,0x15
    43f6:	0053e2b3          	or	t0,t2,t0
    43fa:	43e2                	lw	t2,24(sp)
    43fc:	415a5a13          	srai	s4,s4,0x15
    4400:	011fffb3          	and	t6,t6,a7
    4404:	007289b3          	add	s3,t0,t2
    4408:	53b2                	lw	t2,44(sp)
    440a:	0059b2b3          	sltu	t0,s3,t0
    440e:	0115f5b3          	and	a1,a1,a7
    4412:	9a1e                	add	s4,s4,t2
    4414:	92d2                	add	t0,t0,s4
    4416:	00b29913          	slli	s2,t0,0xb
    441a:	0159d393          	srli	t2,s3,0x15
    441e:	007963b3          	or	t2,s2,t2
    4422:	4932                	lw	s2,12(sp)
    4424:	951e                	add	a0,a0,t2
    4426:	4152d293          	srai	t0,t0,0x15
    442a:	007533b3          	sltu	t2,a0,t2
    442e:	92ca                	add	t0,t0,s2
    4430:	929e                	add	t0,t0,t2
    4432:	00b29393          	slli	t2,t0,0xb
    4436:	01555a13          	srli	s4,a0,0x15
    443a:	0143ea33          	or	s4,t2,s4
    443e:	5382                	lw	t2,32(sp)
    4440:	9d52                	add	s10,s10,s4
    4442:	4152d293          	srai	t0,t0,0x15
    4446:	014d3a33          	sltu	s4,s10,s4
    444a:	00728933          	add	s2,t0,t2
    444e:	9952                	add	s2,s2,s4
    4450:	00b91293          	slli	t0,s2,0xb
    4454:	015d5a13          	srli	s4,s10,0x15
    4458:	0142ea33          	or	s4,t0,s4
    445c:	42c2                	lw	t0,16(sp)
    445e:	94d2                	add	s1,s1,s4
    4460:	41595393          	srai	t2,s2,0x15
    4464:	0144ba33          	sltu	s4,s1,s4
    4468:	9396                	add	t2,t2,t0
    446a:	93d2                	add	t2,t2,s4
    446c:	00b39293          	slli	t0,t2,0xb
    4470:	0154da13          	srli	s4,s1,0x15
    4474:	0142ea33          	or	s4,t0,s4
    4478:	42f2                	lw	t0,28(sp)
    447a:	9852                	add	a6,a6,s4
    447c:	4153d913          	srai	s2,t2,0x15
    4480:	01483a33          	sltu	s4,a6,s4
    4484:	9916                	add	s2,s2,t0
    4486:	9952                	add	s2,s2,s4
    4488:	00b91393          	slli	t2,s2,0xb
    448c:	01585293          	srli	t0,a6,0x15
    4490:	0053e2b3          	or	t0,t2,t0
    4494:	4386                	lw	t2,64(sp)
    4496:	9316                	add	t1,t1,t0
    4498:	41595913          	srai	s2,s2,0x15
    449c:	005332b3          	sltu	t0,t1,t0
    44a0:	991e                	add	s2,s2,t2
    44a2:	9916                	add	s2,s2,t0
    44a4:	011873b3          	and	t2,a6,a7
    44a8:	01535a13          	srli	s4,t1,0x15
    44ac:	00b91813          	slli	a6,s2,0xb
    44b0:	01486a33          	or	s4,a6,s4
    44b4:	4822                	lw	a6,8(sp)
    44b6:	41595913          	srai	s2,s2,0x15
    44ba:	011cfcb3          	and	s9,s9,a7
    44be:	030a02b3          	mul	t0,s4,a6
    44c2:	011efeb3          	and	t4,t4,a7
    44c6:	011e7e33          	and	t3,t3,a7
    44ca:	011dfdb3          	and	s11,s11,a7
    44ce:	0119f9b3          	and	s3,s3,a7
    44d2:	01157533          	and	a0,a0,a7
    44d6:	011d7d33          	and	s10,s10,a7
    44da:	0114f4b3          	and	s1,s1,a7
    44de:	01137333          	and	t1,t1,a7
    44e2:	03090ab3          	mul	s5,s2,a6
    44e6:	9f96                	add	t6,t6,t0
    44e8:	005fb2b3          	sltu	t0,t6,t0
    44ec:	030a3833          	mulhu	a6,s4,a6
    44f0:	9856                	add	a6,a6,s5
    44f2:	9816                	add	a6,a6,t0
    44f4:	02ca02b3          	mul	t0,s4,a2
    44f8:	02c90ab3          	mul	s5,s2,a2
    44fc:	9596                	add	a1,a1,t0
    44fe:	0055b2b3          	sltu	t0,a1,t0
    4502:	02ca3633          	mulhu	a2,s4,a2
    4506:	9656                	add	a2,a2,s5
    4508:	9616                	add	a2,a2,t0
    450a:	02da02b3          	mul	t0,s4,a3
    450e:	02d90ab3          	mul	s5,s2,a3
    4512:	9c96                	add	s9,s9,t0
    4514:	005cb2b3          	sltu	t0,s9,t0
    4518:	02da36b3          	mulhu	a3,s4,a3
    451c:	96d6                	add	a3,a3,s5
    451e:	02ea0b33          	mul	s6,s4,a4
    4522:	9696                	add	a3,a3,t0
    4524:	41400ab3          	neg	s5,s4
    4528:	02e902b3          	mul	t0,s2,a4
    452c:	9eda                	add	t4,t4,s6
    452e:	02ea3733          	mulhu	a4,s4,a4
    4532:	92d6                	add	t0,t0,s5
    4534:	9716                	add	a4,a4,t0
    4536:	016eb2b3          	sltu	t0,t4,s6
    453a:	92ba                	add	t0,t0,a4
    453c:	02fa0b33          	mul	s6,s4,a5
    4540:	02f90733          	mul	a4,s2,a5
    4544:	9dda                	add	s11,s11,s6
    4546:	016dbb33          	sltu	s6,s11,s6
    454a:	02fa37b3          	mulhu	a5,s4,a5
    454e:	03e90933          	mul	s2,s2,t5
    4552:	97ba                	add	a5,a5,a4
    4554:	97da                	add	a5,a5,s6
    4556:	03ea0733          	mul	a4,s4,t5
    455a:	9aca                	add	s5,s5,s2
    455c:	00b81913          	slli	s2,a6,0xb
    4560:	41585813          	srai	a6,a6,0x15
    4564:	9642                	add	a2,a2,a6
    4566:	03ea3f33          	mulhu	t5,s4,t5
    456a:	9e3a                	add	t3,t3,a4
    456c:	00ee3733          	sltu	a4,t3,a4
    4570:	9f56                	add	t5,t5,s5
    4572:	9f3a                	add	t5,t5,a4
    4574:	015fd713          	srli	a4,t6,0x15
    4578:	00e96733          	or	a4,s2,a4
    457c:	95ba                	add	a1,a1,a4
    457e:	00e5b733          	sltu	a4,a1,a4
    4582:	963a                	add	a2,a2,a4
    4584:	00b61813          	slli	a6,a2,0xb
    4588:	0155d713          	srli	a4,a1,0x15
    458c:	00e86733          	or	a4,a6,a4
    4590:	9cba                	add	s9,s9,a4
    4592:	8655                	srai	a2,a2,0x15
    4594:	00ecb733          	sltu	a4,s9,a4
    4598:	96b2                	add	a3,a3,a2
    459a:	96ba                	add	a3,a3,a4
    459c:	00b69713          	slli	a4,a3,0xb
    45a0:	015cd613          	srli	a2,s9,0x15
    45a4:	8e59                	or	a2,a2,a4
    45a6:	9eb2                	add	t4,t4,a2
    45a8:	86d5                	srai	a3,a3,0x15
    45aa:	92b6                	add	t0,t0,a3
    45ac:	00ceb633          	sltu	a2,t4,a2
    45b0:	9616                	add	a2,a2,t0
    45b2:	00b61693          	slli	a3,a2,0xb
    45b6:	015ed713          	srli	a4,t4,0x15
    45ba:	8f55                	or	a4,a4,a3
    45bc:	9dba                	add	s11,s11,a4
    45be:	8655                	srai	a2,a2,0x15
    45c0:	97b2                	add	a5,a5,a2
    45c2:	00edb733          	sltu	a4,s11,a4
    45c6:	973e                	add	a4,a4,a5
    45c8:	00b71793          	slli	a5,a4,0xb
    45cc:	015dd693          	srli	a3,s11,0x15
    45d0:	8edd                	or	a3,a3,a5
    45d2:	9e36                	add	t3,t3,a3
    45d4:	8755                	srai	a4,a4,0x15
    45d6:	00de36b3          	sltu	a3,t3,a3
    45da:	977a                	add	a4,a4,t5
    45dc:	9736                	add	a4,a4,a3
    45de:	00b71793          	slli	a5,a4,0xb
    45e2:	015e5693          	srli	a3,t3,0x15
    45e6:	8edd                	or	a3,a3,a5
    45e8:	99b6                	add	s3,s3,a3
    45ea:	8755                	srai	a4,a4,0x15
    45ec:	00d9b6b3          	sltu	a3,s3,a3
    45f0:	96ba                	add	a3,a3,a4
    45f2:	00b69713          	slli	a4,a3,0xb
    45f6:	0159d793          	srli	a5,s3,0x15
    45fa:	8fd9                	or	a5,a5,a4
    45fc:	953e                	add	a0,a0,a5
    45fe:	86d5                	srai	a3,a3,0x15
    4600:	00f537b3          	sltu	a5,a0,a5
    4604:	97b6                	add	a5,a5,a3
    4606:	00b79693          	slli	a3,a5,0xb
    460a:	01555713          	srli	a4,a0,0x15
    460e:	8f55                	or	a4,a4,a3
    4610:	9d3a                	add	s10,s10,a4
    4612:	87d5                	srai	a5,a5,0x15
    4614:	00ed3733          	sltu	a4,s10,a4
    4618:	973e                	add	a4,a4,a5
    461a:	00b71693          	slli	a3,a4,0xb
    461e:	015d5793          	srli	a5,s10,0x15
    4622:	8fd5                	or	a5,a5,a3
    4624:	94be                	add	s1,s1,a5
    4626:	8755                	srai	a4,a4,0x15
    4628:	00f4b7b3          	sltu	a5,s1,a5
    462c:	97ba                	add	a5,a5,a4
    462e:	00b79693          	slli	a3,a5,0xb
    4632:	0154d713          	srli	a4,s1,0x15
    4636:	8f55                	or	a4,a4,a3
    4638:	93ba                	add	t2,t2,a4
    463a:	00e3b733          	sltu	a4,t2,a4
    463e:	87d5                	srai	a5,a5,0x15
    4640:	97ba                	add	a5,a5,a4
    4642:	011fffb3          	and	t6,t6,a7
    4646:	07ae                	slli	a5,a5,0xb
    4648:	0153d713          	srli	a4,t2,0x15
    464c:	8f5d                	or	a4,a4,a5
    464e:	008fd793          	srli	a5,t6,0x8
    4652:	b01c                	sb	a5,1(s0)
    4654:	040007b7          	lui	a5,0x4000
    4658:	933a                	add	t1,t1,a4
    465a:	1781                	addi	a5,a5,-32
    465c:	00559713          	slli	a4,a1,0x5
    4660:	01f40023          	sb	t6,0(s0)
    4664:	8f7d                	and	a4,a4,a5
    4666:	010fdf93          	srli	t6,t6,0x10
    466a:	01f76fb3          	or	t6,a4,t6
    466e:	0035d713          	srli	a4,a1,0x3
    4672:	b038                	sb	a4,3(s0)
    4674:	01f40123          	sb	t6,2(s0)
    4678:	00b5d713          	srli	a4,a1,0xb
    467c:	a058                	sb	a4,4(s0)
    467e:	00800737          	lui	a4,0x800
    4682:	002c9693          	slli	a3,s9,0x2
    4686:	1771                	addi	a4,a4,-4
    4688:	81cd                	srli	a1,a1,0x13
    468a:	8ef9                	and	a3,a3,a4
    468c:	898d                	andi	a1,a1,3
    468e:	8dd5                	or	a1,a1,a3
    4690:	10000637          	lui	a2,0x10000
    4694:	006cd693          	srli	a3,s9,0x6
    4698:	a074                	sb	a3,6(s0)
    469a:	f8060613          	addi	a2,a2,-128 # fffff80 <_data_lma+0xffeb098>
    469e:	007e9693          	slli	a3,t4,0x7
    46a2:	00ecdc93          	srli	s9,s9,0xe
    46a6:	8ef1                	and	a3,a3,a2
    46a8:	07fcfc93          	andi	s9,s9,127
    46ac:	00dcecb3          	or	s9,s9,a3
    46b0:	00be9693          	slli	a3,t4,0xb
    46b4:	82b1                	srli	a3,a3,0xc
    46b6:	a414                	sb	a3,8(s0)
    46b8:	00be9693          	slli	a3,t4,0xb
    46bc:	82d1                	srli	a3,a3,0x14
    46be:	02000637          	lui	a2,0x2000
    46c2:	b414                	sb	a3,9(s0)
    46c4:	1641                	addi	a2,a2,-16
    46c6:	004d9693          	slli	a3,s11,0x4
    46ca:	011ede93          	srli	t4,t4,0x11
    46ce:	8ef1                	and	a3,a3,a2
    46d0:	00fefe93          	andi	t4,t4,15
    46d4:	00deeeb3          	or	t4,t4,a3
    46d8:	00bd9693          	slli	a3,s11,0xb
    46dc:	82bd                	srli	a3,a3,0xf
    46de:	b434                	sb	a3,11(s0)
    46e0:	00400637          	lui	a2,0x400
    46e4:	00cdd693          	srli	a3,s11,0xc
    46e8:	a454                	sb	a3,12(s0)
    46ea:	1679                	addi	a2,a2,-2
    46ec:	001e1693          	slli	a3,t3,0x1
    46f0:	014ddd93          	srli	s11,s11,0x14
    46f4:	8ef1                	and	a3,a3,a2
    46f6:	001dfd93          	andi	s11,s11,1
    46fa:	00ddedb3          	or	s11,s11,a3
    46fe:	00be1693          	slli	a3,t3,0xb
    4702:	82c9                	srli	a3,a3,0x12
    4704:	08000637          	lui	a2,0x8000
    4708:	a474                	sb	a3,14(s0)
    470a:	fc060613          	addi	a2,a2,-64 # 7ffffc0 <_data_lma+0x7feb0d8>
    470e:	00699693          	slli	a3,s3,0x6
    4712:	00fe5e13          	srli	t3,t3,0xf
    4716:	8ef1                	and	a3,a3,a2
    4718:	03fe7e13          	andi	t3,t3,63
    471c:	00de6e33          	or	t3,t3,a3
    4720:	00b99693          	slli	a3,s3,0xb
    4724:	82b5                	srli	a3,a3,0xd
    4726:	a814                	sb	a3,16(s0)
    4728:	01000637          	lui	a2,0x1000
    472c:	00a9d693          	srli	a3,s3,0xa
    4730:	b814                	sb	a3,17(s0)
    4732:	1661                	addi	a2,a2,-8
    4734:	00351693          	slli	a3,a0,0x3
    4738:	0129d993          	srli	s3,s3,0x12
    473c:	8ef1                	and	a3,a3,a2
    473e:	0079f993          	andi	s3,s3,7
    4742:	011d78b3          	and	a7,s10,a7
    4746:	00d9e9b3          	or	s3,s3,a3
    474a:	00555693          	srli	a3,a0,0x5
    474e:	b834                	sb	a3,19(s0)
    4750:	0088d693          	srli	a3,a7,0x8
    4754:	a874                	sb	a3,22(s0)
    4756:	00549693          	slli	a3,s1,0x5
    475a:	01140aa3          	sb	a7,21(s0)
    475e:	8ff5                	and	a5,a5,a3
    4760:	0108d893          	srli	a7,a7,0x10
    4764:	0117e8b3          	or	a7,a5,a7
    4768:	00b49793          	slli	a5,s1,0xb
    476c:	83b9                	srli	a5,a5,0xe
    476e:	ac1c                	sb	a5,24(s0)
    4770:	00b4d793          	srli	a5,s1,0xb
    4774:	bc1c                	sb	a5,25(s0)
    4776:	00239793          	slli	a5,t2,0x2
    477a:	8f7d                	and	a4,a4,a5
    477c:	00b39793          	slli	a5,t2,0xb
    4780:	83c5                	srli	a5,a5,0x11
    4782:	00e3d393          	srli	t2,t2,0xe
    4786:	bc3c                	sb	a5,27(s0)
    4788:	80cd                	srli	s1,s1,0x13
    478a:	00731793          	slli	a5,t1,0x7
    478e:	07f3f393          	andi	t2,t2,127
    4792:	00f3e3b3          	or	t2,t2,a5
    4796:	888d                	andi	s1,s1,3
    4798:	00135793          	srli	a5,t1,0x1
    479c:	bc5c                	sb	a5,29(s0)
    479e:	8135                	srli	a0,a0,0xd
    47a0:	00935793          	srli	a5,t1,0x9
    47a4:	8cd9                	or	s1,s1,a4
    47a6:	01135313          	srli	t1,t1,0x11
    47aa:	b04c                	sb	a1,5(s0)
    47ac:	019403a3          	sb	s9,7(s0)
    47b0:	01d40523          	sb	t4,10(s0)
    47b4:	01b406a3          	sb	s11,13(s0)
    47b8:	01c407a3          	sb	t3,15(s0)
    47bc:	01340923          	sb	s3,18(s0)
    47c0:	a848                	sb	a0,20(s0)
    47c2:	01140ba3          	sb	a7,23(s0)
    47c6:	ac24                	sb	s1,26(s0)
    47c8:	00740e23          	sb	t2,28(s0)
    47cc:	ac7c                	sb	a5,30(s0)
    47ce:	00640fa3          	sb	t1,31(s0)
    47d2:	6125                	addi	sp,sp,96
    47d4:	d4ffb06f          	j	522 <__riscv_restore_12>

000047d8 <sc_muladd>:
    47d8:	d0ffb2ef          	jal	t0,4e6 <__riscv_save_12>
    47dc:	7171                	addi	sp,sp,-176
    47de:	c02a                	sw	a0,0(sp)
    47e0:	00200437          	lui	s0,0x200
    47e4:	852e                	mv	a0,a1
    47e6:	147d                	addi	s0,s0,-1
    47e8:	8db2                	mv	s11,a2
    47ea:	84ae                	mv	s1,a1
    47ec:	cc36                	sw	a3,24(sp)
    47ee:	bd1fe0ef          	jal	ra,33be <load_3>
    47f2:	008576b3          	and	a3,a0,s0
    47f6:	00248513          	addi	a0,s1,2 # ffe00002 <__freertos_irq_stack_top+0xdfdf8002>
    47fa:	d6b6                	sw	a3,108(sp)
    47fc:	bd7fe0ef          	jal	ra,33d2 <load_4>
    4800:	05ee                	slli	a1,a1,0x1b
    4802:	8115                	srli	a0,a0,0x5
    4804:	8d4d                	or	a0,a0,a1
    4806:	00857733          	and	a4,a0,s0
    480a:	00548513          	addi	a0,s1,5
    480e:	d2ba                	sw	a4,100(sp)
    4810:	baffe0ef          	jal	ra,33be <load_3>
    4814:	05fa                	slli	a1,a1,0x1e
    4816:	8109                	srli	a0,a0,0x2
    4818:	8d4d                	or	a0,a0,a1
    481a:	00857cb3          	and	s9,a0,s0
    481e:	00748513          	addi	a0,s1,7
    4822:	bb1fe0ef          	jal	ra,33d2 <load_4>
    4826:	05e6                	slli	a1,a1,0x19
    4828:	811d                	srli	a0,a0,0x7
    482a:	8d4d                	or	a0,a0,a1
    482c:	00857bb3          	and	s7,a0,s0
    4830:	00a48513          	addi	a0,s1,10
    4834:	b9ffe0ef          	jal	ra,33d2 <load_4>
    4838:	05f2                	slli	a1,a1,0x1c
    483a:	8111                	srli	a0,a0,0x4
    483c:	8d4d                	or	a0,a0,a1
    483e:	00857b33          	and	s6,a0,s0
    4842:	00d48513          	addi	a0,s1,13
    4846:	b79fe0ef          	jal	ra,33be <load_3>
    484a:	05fe                	slli	a1,a1,0x1f
    484c:	8105                	srli	a0,a0,0x1
    484e:	8d4d                	or	a0,a0,a1
    4850:	00857ab3          	and	s5,a0,s0
    4854:	00f48513          	addi	a0,s1,15
    4858:	b7bfe0ef          	jal	ra,33d2 <load_4>
    485c:	05ea                	slli	a1,a1,0x1a
    485e:	8119                	srli	a0,a0,0x6
    4860:	8d4d                	or	a0,a0,a1
    4862:	00857a33          	and	s4,a0,s0
    4866:	01248513          	addi	a0,s1,18
    486a:	b55fe0ef          	jal	ra,33be <load_3>
    486e:	05f6                	slli	a1,a1,0x1d
    4870:	810d                	srli	a0,a0,0x3
    4872:	8d4d                	or	a0,a0,a1
    4874:	008577b3          	and	a5,a0,s0
    4878:	01548513          	addi	a0,s1,21
    487c:	c23e                	sw	a5,4(sp)
    487e:	b41fe0ef          	jal	ra,33be <load_3>
    4882:	008577b3          	and	a5,a0,s0
    4886:	01748513          	addi	a0,s1,23
    488a:	c43e                	sw	a5,8(sp)
    488c:	b47fe0ef          	jal	ra,33d2 <load_4>
    4890:	05ee                	slli	a1,a1,0x1b
    4892:	8115                	srli	a0,a0,0x5
    4894:	8d4d                	or	a0,a0,a1
    4896:	00857fb3          	and	t6,a0,s0
    489a:	01a48513          	addi	a0,s1,26
    489e:	d17e                	sw	t6,160(sp)
    48a0:	b1ffe0ef          	jal	ra,33be <load_3>
    48a4:	05fa                	slli	a1,a1,0x1e
    48a6:	8109                	srli	a0,a0,0x2
    48a8:	8d4d                	or	a0,a0,a1
    48aa:	00857d33          	and	s10,a0,s0
    48ae:	01c48513          	addi	a0,s1,28
    48b2:	b21fe0ef          	jal	ra,33d2 <load_4>
    48b6:	01959793          	slli	a5,a1,0x19
    48ba:	00755f13          	srli	t5,a0,0x7
    48be:	01e7ef33          	or	t5,a5,t5
    48c2:	856e                	mv	a0,s11
    48c4:	0075d793          	srli	a5,a1,0x7
    48c8:	cf7a                	sw	t5,156(sp)
    48ca:	ce3e                	sw	a5,28(sp)
    48cc:	af3fe0ef          	jal	ra,33be <load_3>
    48d0:	00857633          	and	a2,a0,s0
    48d4:	002d8513          	addi	a0,s11,2
    48d8:	d0b2                	sw	a2,96(sp)
    48da:	af9fe0ef          	jal	ra,33d2 <load_4>
    48de:	05ee                	slli	a1,a1,0x1b
    48e0:	8115                	srli	a0,a0,0x5
    48e2:	8d4d                	or	a0,a0,a1
    48e4:	008577b3          	and	a5,a0,s0
    48e8:	005d8513          	addi	a0,s11,5
    48ec:	c2be                	sw	a5,68(sp)
    48ee:	ad1fe0ef          	jal	ra,33be <load_3>
    48f2:	05fa                	slli	a1,a1,0x1e
    48f4:	8109                	srli	a0,a0,0x2
    48f6:	8d4d                	or	a0,a0,a1
    48f8:	00857c33          	and	s8,a0,s0
    48fc:	007d8513          	addi	a0,s11,7
    4900:	ad3fe0ef          	jal	ra,33d2 <load_4>
    4904:	05e6                	slli	a1,a1,0x19
    4906:	811d                	srli	a0,a0,0x7
    4908:	8d4d                	or	a0,a0,a1
    490a:	008579b3          	and	s3,a0,s0
    490e:	00ad8513          	addi	a0,s11,10
    4912:	ac1fe0ef          	jal	ra,33d2 <load_4>
    4916:	05f2                	slli	a1,a1,0x1c
    4918:	8111                	srli	a0,a0,0x4
    491a:	8d4d                	or	a0,a0,a1
    491c:	00857933          	and	s2,a0,s0
    4920:	00dd8513          	addi	a0,s11,13
    4924:	a9bfe0ef          	jal	ra,33be <load_3>
    4928:	05fe                	slli	a1,a1,0x1f
    492a:	8105                	srli	a0,a0,0x1
    492c:	8d4d                	or	a0,a0,a1
    492e:	008574b3          	and	s1,a0,s0
    4932:	00fd8513          	addi	a0,s11,15
    4936:	a9dfe0ef          	jal	ra,33d2 <load_4>
    493a:	05ea                	slli	a1,a1,0x1a
    493c:	8119                	srli	a0,a0,0x6
    493e:	8d4d                	or	a0,a0,a1
    4940:	008577b3          	and	a5,a0,s0
    4944:	012d8513          	addi	a0,s11,18
    4948:	c63e                	sw	a5,12(sp)
    494a:	a75fe0ef          	jal	ra,33be <load_3>
    494e:	05f6                	slli	a1,a1,0x1d
    4950:	810d                	srli	a0,a0,0x3
    4952:	8d4d                	or	a0,a0,a1
    4954:	008577b3          	and	a5,a0,s0
    4958:	015d8513          	addi	a0,s11,21
    495c:	c83e                	sw	a5,16(sp)
    495e:	a61fe0ef          	jal	ra,33be <load_3>
    4962:	008577b3          	and	a5,a0,s0
    4966:	017d8513          	addi	a0,s11,23
    496a:	ca3e                	sw	a5,20(sp)
    496c:	a67fe0ef          	jal	ra,33d2 <load_4>
    4970:	05ee                	slli	a1,a1,0x1b
    4972:	8115                	srli	a0,a0,0x5
    4974:	8d4d                	or	a0,a0,a1
    4976:	00857eb3          	and	t4,a0,s0
    497a:	01ad8513          	addi	a0,s11,26
    497e:	cb76                	sw	t4,148(sp)
    4980:	a3ffe0ef          	jal	ra,33be <load_3>
    4984:	05fa                	slli	a1,a1,0x1e
    4986:	8109                	srli	a0,a0,0x2
    4988:	8d4d                	or	a0,a0,a1
    498a:	008572b3          	and	t0,a0,s0
    498e:	01cd8513          	addi	a0,s11,28
    4992:	cd16                	sw	t0,152(sp)
    4994:	a3ffe0ef          	jal	ra,33d2 <load_4>
    4998:	00755393          	srli	t2,a0,0x7
    499c:	4562                	lw	a0,24(sp)
    499e:	01959813          	slli	a6,a1,0x19
    49a2:	007863b3          	or	t2,a6,t2
    49a6:	0075d793          	srli	a5,a1,0x7
    49aa:	c11e                	sw	t2,128(sp)
    49ac:	d03e                	sw	a5,32(sp)
    49ae:	a11fe0ef          	jal	ra,33be <load_3>
    49b2:	47e2                	lw	a5,24(sp)
    49b4:	de2a                	sw	a0,60(sp)
    49b6:	00278513          	addi	a0,a5,2 # 4000002 <_data_lma+0x3feb11a>
    49ba:	a19fe0ef          	jal	ra,33d2 <load_4>
    49be:	47e2                	lw	a5,24(sp)
    49c0:	c0aa                	sw	a0,64(sp)
    49c2:	d22e                	sw	a1,36(sp)
    49c4:	00578513          	addi	a0,a5,5
    49c8:	9f7fe0ef          	jal	ra,33be <load_3>
    49cc:	47e2                	lw	a5,24(sp)
    49ce:	8daa                	mv	s11,a0
    49d0:	d42e                	sw	a1,40(sp)
    49d2:	00778513          	addi	a0,a5,7
    49d6:	9fdfe0ef          	jal	ra,33d2 <load_4>
    49da:	47e2                	lw	a5,24(sp)
    49dc:	d62a                	sw	a0,44(sp)
    49de:	d82e                	sw	a1,48(sp)
    49e0:	00a78513          	addi	a0,a5,10
    49e4:	9effe0ef          	jal	ra,33d2 <load_4>
    49e8:	47e2                	lw	a5,24(sp)
    49ea:	da2a                	sw	a0,52(sp)
    49ec:	dc2e                	sw	a1,56(sp)
    49ee:	00d78513          	addi	a0,a5,13
    49f2:	9cdfe0ef          	jal	ra,33be <load_3>
    49f6:	47e2                	lw	a5,24(sp)
    49f8:	c4aa                	sw	a0,72(sp)
    49fa:	d4ae                	sw	a1,104(sp)
    49fc:	00f78513          	addi	a0,a5,15
    4a00:	9d3fe0ef          	jal	ra,33d2 <load_4>
    4a04:	47e2                	lw	a5,24(sp)
    4a06:	c6aa                	sw	a0,76(sp)
    4a08:	c8ae                	sw	a1,80(sp)
    4a0a:	01278513          	addi	a0,a5,18
    4a0e:	9b1fe0ef          	jal	ra,33be <load_3>
    4a12:	47e2                	lw	a5,24(sp)
    4a14:	caaa                	sw	a0,84(sp)
    4a16:	ccae                	sw	a1,88(sp)
    4a18:	01578513          	addi	a0,a5,21
    4a1c:	9a3fe0ef          	jal	ra,33be <load_3>
    4a20:	47e2                	lw	a5,24(sp)
    4a22:	ceaa                	sw	a0,92(sp)
    4a24:	002ddd93          	srli	s11,s11,0x2
    4a28:	01778513          	addi	a0,a5,23
    4a2c:	9a7fe0ef          	jal	ra,33d2 <load_4>
    4a30:	47e2                	lw	a5,24(sp)
    4a32:	d8aa                	sw	a0,112(sp)
    4a34:	daae                	sw	a1,116(sp)
    4a36:	01a78513          	addi	a0,a5,26
    4a3a:	985fe0ef          	jal	ra,33be <load_3>
    4a3e:	47e2                	lw	a5,24(sp)
    4a40:	dcaa                	sw	a0,120(sp)
    4a42:	deae                	sw	a1,124(sp)
    4a44:	01c78513          	addi	a0,a5,28
    4a48:	98bfe0ef          	jal	ra,33d2 <load_4>
    4a4c:	5606                	lw	a2,96(sp)
    4a4e:	56b6                	lw	a3,108(sp)
    4a50:	8f2e                	mv	t5,a1
    4a52:	58f2                	lw	a7,60(sp)
    4a54:	02c685b3          	mul	a1,a3,a2
    4a58:	4306                	lw	t1,64(sp)
    4a5a:	0088f8b3          	and	a7,a7,s0
    4a5e:	5716                	lw	a4,100(sp)
    4a60:	00535313          	srli	t1,t1,0x5
    4a64:	811d                	srli	a0,a0,0x7
    4a66:	02c6b833          	mulhu	a6,a3,a2
    4a6a:	011587b3          	add	a5,a1,a7
    4a6e:	00b7b5b3          	sltu	a1,a5,a1
    4a72:	cc3e                	sw	a5,24(sp)
    4a74:	010587b3          	add	a5,a1,a6
    4a78:	de3e                	sw	a5,60(sp)
    4a7a:	5792                	lw	a5,36(sp)
    4a7c:	02c708b3          	mul	a7,a4,a2
    4a80:	01b79593          	slli	a1,a5,0x1b
    4a84:	4796                	lw	a5,68(sp)
    4a86:	0065e333          	or	t1,a1,t1
    4a8a:	00837333          	and	t1,t1,s0
    4a8e:	02f685b3          	mul	a1,a3,a5
    4a92:	02f6b833          	mulhu	a6,a3,a5
    4a96:	959a                	add	a1,a1,t1
    4a98:	0065b333          	sltu	t1,a1,t1
    4a9c:	98ae                	add	a7,a7,a1
    4a9e:	00b8b5b3          	sltu	a1,a7,a1
    4aa2:	d0c6                	sw	a7,96(sp)
    4aa4:	9342                	add	t1,t1,a6
    4aa6:	02c73833          	mulhu	a6,a4,a2
    4aaa:	9342                	add	t1,t1,a6
    4aac:	959a                	add	a1,a1,t1
    4aae:	c32e                	sw	a1,132(sp)
    4ab0:	55a2                	lw	a1,40(sp)
    4ab2:	0386b333          	mulhu	t1,a3,s8
    4ab6:	05fa                	slli	a1,a1,0x1e
    4ab8:	01b5edb3          	or	s11,a1,s11
    4abc:	008dfdb3          	and	s11,s11,s0
    4ac0:	038685b3          	mul	a1,a3,s8
    4ac4:	00bd8833          	add	a6,s11,a1
    4ac8:	01b83db3          	sltu	s11,a6,s11
    4acc:	9d9a                	add	s11,s11,t1
    4ace:	02f70333          	mul	t1,a4,a5
    4ad2:	02f735b3          	mulhu	a1,a4,a5
    4ad6:	9342                	add	t1,t1,a6
    4ad8:	01033833          	sltu	a6,t1,a6
    4adc:	02cc88b3          	mul	a7,s9,a2
    4ae0:	95ee                	add	a1,a1,s11
    4ae2:	95c2                	add	a1,a1,a6
    4ae4:	02ccb833          	mulhu	a6,s9,a2
    4ae8:	01130db3          	add	s11,t1,a7
    4aec:	006db333          	sltu	t1,s11,t1
    4af0:	95c2                	add	a1,a1,a6
    4af2:	959a                	add	a1,a1,t1
    4af4:	5832                	lw	a6,44(sp)
    4af6:	c0ae                	sw	a1,64(sp)
    4af8:	55c2                	lw	a1,48(sp)
    4afa:	00785893          	srli	a7,a6,0x7
    4afe:	0336b333          	mulhu	t1,a3,s3
    4b02:	05e6                	slli	a1,a1,0x19
    4b04:	0115e8b3          	or	a7,a1,a7
    4b08:	0088f8b3          	and	a7,a7,s0
    4b0c:	033685b3          	mul	a1,a3,s3
    4b10:	95c6                	add	a1,a1,a7
    4b12:	0115b8b3          	sltu	a7,a1,a7
    4b16:	989a                	add	a7,a7,t1
    4b18:	03870333          	mul	t1,a4,s8
    4b1c:	03873833          	mulhu	a6,a4,s8
    4b20:	932e                	add	t1,t1,a1
    4b22:	00b335b3          	sltu	a1,t1,a1
    4b26:	98c2                	add	a7,a7,a6
    4b28:	02fc8833          	mul	a6,s9,a5
    4b2c:	95c6                	add	a1,a1,a7
    4b2e:	02fcb8b3          	mulhu	a7,s9,a5
    4b32:	981a                	add	a6,a6,t1
    4b34:	00683333          	sltu	t1,a6,t1
    4b38:	98ae                	add	a7,a7,a1
    4b3a:	989a                	add	a7,a7,t1
    4b3c:	02cb8333          	mul	t1,s7,a2
    4b40:	02cbb5b3          	mulhu	a1,s7,a2
    4b44:	9342                	add	t1,t1,a6
    4b46:	01033833          	sltu	a6,t1,a6
    4b4a:	d29a                	sw	t1,100(sp)
    4b4c:	5e26                	lw	t3,104(sp)
    4b4e:	0e7e                	slli	t3,t3,0x1f
    4b50:	98ae                	add	a7,a7,a1
    4b52:	011805b3          	add	a1,a6,a7
    4b56:	c52e                	sw	a1,136(sp)
    4b58:	5852                	lw	a6,52(sp)
    4b5a:	55e2                	lw	a1,56(sp)
    4b5c:	032688b3          	mul	a7,a3,s2
    4b60:	00485813          	srli	a6,a6,0x4
    4b64:	05f2                	slli	a1,a1,0x1c
    4b66:	0105e833          	or	a6,a1,a6
    4b6a:	00887833          	and	a6,a6,s0
    4b6e:	0326b5b3          	mulhu	a1,a3,s2
    4b72:	98c2                	add	a7,a7,a6
    4b74:	0108b833          	sltu	a6,a7,a6
    4b78:	982e                	add	a6,a6,a1
    4b7a:	033705b3          	mul	a1,a4,s3
    4b7e:	03373333          	mulhu	t1,a4,s3
    4b82:	95c6                	add	a1,a1,a7
    4b84:	0115b8b3          	sltu	a7,a1,a7
    4b88:	981a                	add	a6,a6,t1
    4b8a:	038c8333          	mul	t1,s9,s8
    4b8e:	98c2                	add	a7,a7,a6
    4b90:	038cb833          	mulhu	a6,s9,s8
    4b94:	932e                	add	t1,t1,a1
    4b96:	00b335b3          	sltu	a1,t1,a1
    4b9a:	9846                	add	a6,a6,a7
    4b9c:	02fb88b3          	mul	a7,s7,a5
    4ba0:	982e                	add	a6,a6,a1
    4ba2:	02fbb5b3          	mulhu	a1,s7,a5
    4ba6:	989a                	add	a7,a7,t1
    4ba8:	0068b333          	sltu	t1,a7,t1
    4bac:	95c2                	add	a1,a1,a6
    4bae:	959a                	add	a1,a1,t1
    4bb0:	02cb0333          	mul	t1,s6,a2
    4bb4:	02cb3833          	mulhu	a6,s6,a2
    4bb8:	9346                	add	t1,t1,a7
    4bba:	011338b3          	sltu	a7,t1,a7
    4bbe:	d21a                	sw	t1,36(sp)
    4bc0:	95c2                	add	a1,a1,a6
    4bc2:	95c6                	add	a1,a1,a7
    4bc4:	029688b3          	mul	a7,a3,s1
    4bc8:	c2ae                	sw	a1,68(sp)
    4bca:	45a6                	lw	a1,72(sp)
    4bcc:	8185                	srli	a1,a1,0x1
    4bce:	00be65b3          	or	a1,t3,a1
    4bd2:	8de1                	and	a1,a1,s0
    4bd4:	0296b833          	mulhu	a6,a3,s1
    4bd8:	98ae                	add	a7,a7,a1
    4bda:	00b8b5b3          	sltu	a1,a7,a1
    4bde:	95c2                	add	a1,a1,a6
    4be0:	03270833          	mul	a6,a4,s2
    4be4:	03273333          	mulhu	t1,a4,s2
    4be8:	9846                	add	a6,a6,a7
    4bea:	011838b3          	sltu	a7,a6,a7
    4bee:	959a                	add	a1,a1,t1
    4bf0:	98ae                	add	a7,a7,a1
    4bf2:	033c85b3          	mul	a1,s9,s3
    4bf6:	033cb333          	mulhu	t1,s9,s3
    4bfa:	95c2                	add	a1,a1,a6
    4bfc:	0105b833          	sltu	a6,a1,a6
    4c00:	038bbe33          	mulhu	t3,s7,s8
    4c04:	989a                	add	a7,a7,t1
    4c06:	98c2                	add	a7,a7,a6
    4c08:	038b8333          	mul	t1,s7,s8
    4c0c:	01c88833          	add	a6,a7,t3
    4c10:	02fb08b3          	mul	a7,s6,a5
    4c14:	932e                	add	t1,t1,a1
    4c16:	00b335b3          	sltu	a1,t1,a1
    4c1a:	982e                	add	a6,a6,a1
    4c1c:	02fb3e33          	mulhu	t3,s6,a5
    4c20:	989a                	add	a7,a7,t1
    4c22:	0068b333          	sltu	t1,a7,t1
    4c26:	01c805b3          	add	a1,a6,t3
    4c2a:	959a                	add	a1,a1,t1
    4c2c:	02ca8333          	mul	t1,s5,a2
    4c30:	02cab833          	mulhu	a6,s5,a2
    4c34:	9346                	add	t1,t1,a7
    4c36:	011338b3          	sltu	a7,t1,a7
    4c3a:	d49a                	sw	t1,104(sp)
    4c3c:	95c2                	add	a1,a1,a6
    4c3e:	95c6                	add	a1,a1,a7
    4c40:	4836                	lw	a6,76(sp)
    4c42:	c72e                	sw	a1,140(sp)
    4c44:	45c6                	lw	a1,80(sp)
    4c46:	00685813          	srli	a6,a6,0x6
    4c4a:	48b2                	lw	a7,12(sp)
    4c4c:	05ea                	slli	a1,a1,0x1a
    4c4e:	0105e833          	or	a6,a1,a6
    4c52:	45b2                	lw	a1,12(sp)
    4c54:	0316b8b3          	mulhu	a7,a3,a7
    4c58:	00887833          	and	a6,a6,s0
    4c5c:	02b685b3          	mul	a1,a3,a1
    4c60:	95c2                	add	a1,a1,a6
    4c62:	0105b833          	sltu	a6,a1,a6
    4c66:	9846                	add	a6,a6,a7
    4c68:	029738b3          	mulhu	a7,a4,s1
    4c6c:	02970333          	mul	t1,a4,s1
    4c70:	9846                	add	a6,a6,a7
    4c72:	032c88b3          	mul	a7,s9,s2
    4c76:	932e                	add	t1,t1,a1
    4c78:	00b335b3          	sltu	a1,t1,a1
    4c7c:	95c2                	add	a1,a1,a6
    4c7e:	032cbe33          	mulhu	t3,s9,s2
    4c82:	989a                	add	a7,a7,t1
    4c84:	0068b333          	sltu	t1,a7,t1
    4c88:	95f2                	add	a1,a1,t3
    4c8a:	932e                	add	t1,t1,a1
    4c8c:	033b85b3          	mul	a1,s7,s3
    4c90:	033bbe33          	mulhu	t3,s7,s3
    4c94:	95c6                	add	a1,a1,a7
    4c96:	0115b8b3          	sltu	a7,a1,a7
    4c9a:	9372                	add	t1,t1,t3
    4c9c:	989a                	add	a7,a7,t1
    4c9e:	038b3333          	mulhu	t1,s6,s8
    4ca2:	038b0e33          	mul	t3,s6,s8
    4ca6:	989a                	add	a7,a7,t1
    4ca8:	02fab333          	mulhu	t1,s5,a5
    4cac:	9e2e                	add	t3,t3,a1
    4cae:	00be35b3          	sltu	a1,t3,a1
    4cb2:	01158833          	add	a6,a1,a7
    4cb6:	02fa88b3          	mul	a7,s5,a5
    4cba:	006805b3          	add	a1,a6,t1
    4cbe:	02ca0333          	mul	t1,s4,a2
    4cc2:	98f2                	add	a7,a7,t3
    4cc4:	01c8be33          	sltu	t3,a7,t3
    4cc8:	95f2                	add	a1,a1,t3
    4cca:	02ca3833          	mulhu	a6,s4,a2
    4cce:	9346                	add	t1,t1,a7
    4cd0:	011338b3          	sltu	a7,t1,a7
    4cd4:	d41a                	sw	t1,40(sp)
    4cd6:	95c2                	add	a1,a1,a6
    4cd8:	95c6                	add	a1,a1,a7
    4cda:	c4ae                	sw	a1,72(sp)
    4cdc:	4856                	lw	a6,84(sp)
    4cde:	45e6                	lw	a1,88(sp)
    4ce0:	48c2                	lw	a7,16(sp)
    4ce2:	00385813          	srli	a6,a6,0x3
    4ce6:	05f6                	slli	a1,a1,0x1d
    4ce8:	0105e833          	or	a6,a1,a6
    4cec:	45c2                	lw	a1,16(sp)
    4cee:	0316b8b3          	mulhu	a7,a3,a7
    4cf2:	00887833          	and	a6,a6,s0
    4cf6:	02b685b3          	mul	a1,a3,a1
    4cfa:	95c2                	add	a1,a1,a6
    4cfc:	0105b833          	sltu	a6,a1,a6
    4d00:	9846                	add	a6,a6,a7
    4d02:	48b2                	lw	a7,12(sp)
    4d04:	032bbe33          	mulhu	t3,s7,s2
    4d08:	03170333          	mul	t1,a4,a7
    4d0c:	031738b3          	mulhu	a7,a4,a7
    4d10:	932e                	add	t1,t1,a1
    4d12:	00b335b3          	sltu	a1,t1,a1
    4d16:	9846                	add	a6,a6,a7
    4d18:	95c2                	add	a1,a1,a6
    4d1a:	029c88b3          	mul	a7,s9,s1
    4d1e:	029cb833          	mulhu	a6,s9,s1
    4d22:	989a                	add	a7,a7,t1
    4d24:	0068b333          	sltu	t1,a7,t1
    4d28:	95c2                	add	a1,a1,a6
    4d2a:	032b8833          	mul	a6,s7,s2
    4d2e:	959a                	add	a1,a1,t1
    4d30:	01c58333          	add	t1,a1,t3
    4d34:	033b3e33          	mulhu	t3,s6,s3
    4d38:	9846                	add	a6,a6,a7
    4d3a:	011838b3          	sltu	a7,a6,a7
    4d3e:	9346                	add	t1,t1,a7
    4d40:	033b05b3          	mul	a1,s6,s3
    4d44:	01c308b3          	add	a7,t1,t3
    4d48:	038abe33          	mulhu	t3,s5,s8
    4d4c:	95c2                	add	a1,a1,a6
    4d4e:	0105b833          	sltu	a6,a1,a6
    4d52:	98c2                	add	a7,a7,a6
    4d54:	038a8333          	mul	t1,s5,s8
    4d58:	01c88833          	add	a6,a7,t3
    4d5c:	02fa3e33          	mulhu	t3,s4,a5
    4d60:	932e                	add	t1,t1,a1
    4d62:	00b335b3          	sltu	a1,t1,a1
    4d66:	982e                	add	a6,a6,a1
    4d68:	02fa08b3          	mul	a7,s4,a5
    4d6c:	01c805b3          	add	a1,a6,t3
    4d70:	4812                	lw	a6,4(sp)
    4d72:	989a                	add	a7,a7,t1
    4d74:	0068b333          	sltu	t1,a7,t1
    4d78:	959a                	add	a1,a1,t1
    4d7a:	02c80333          	mul	t1,a6,a2
    4d7e:	02c83833          	mulhu	a6,a6,a2
    4d82:	9346                	add	t1,t1,a7
    4d84:	011338b3          	sltu	a7,t1,a7
    4d88:	d69a                	sw	t1,108(sp)
    4d8a:	4342                	lw	t1,16(sp)
    4d8c:	95c2                	add	a1,a1,a6
    4d8e:	95c6                	add	a1,a1,a7
    4d90:	c92e                	sw	a1,144(sp)
    4d92:	45d2                	lw	a1,20(sp)
    4d94:	02673333          	mulhu	t1,a4,t1
    4d98:	02b688b3          	mul	a7,a3,a1
    4d9c:	02b6b833          	mulhu	a6,a3,a1
    4da0:	45f6                	lw	a1,92(sp)
    4da2:	8de1                	and	a1,a1,s0
    4da4:	95c6                	add	a1,a1,a7
    4da6:	0115b8b3          	sltu	a7,a1,a7
    4daa:	98c2                	add	a7,a7,a6
    4dac:	4842                	lw	a6,16(sp)
    4dae:	989a                	add	a7,a7,t1
    4db0:	029bbe33          	mulhu	t3,s7,s1
    4db4:	03070833          	mul	a6,a4,a6
    4db8:	982e                	add	a6,a6,a1
    4dba:	00b835b3          	sltu	a1,a6,a1
    4dbe:	95c6                	add	a1,a1,a7
    4dc0:	48b2                	lw	a7,12(sp)
    4dc2:	031c8333          	mul	t1,s9,a7
    4dc6:	031cb8b3          	mulhu	a7,s9,a7
    4dca:	9342                	add	t1,t1,a6
    4dcc:	01033833          	sltu	a6,t1,a6
    4dd0:	95c6                	add	a1,a1,a7
    4dd2:	029b88b3          	mul	a7,s7,s1
    4dd6:	982e                	add	a6,a6,a1
    4dd8:	01c805b3          	add	a1,a6,t3
    4ddc:	032b3e33          	mulhu	t3,s6,s2
    4de0:	989a                	add	a7,a7,t1
    4de2:	0068b333          	sltu	t1,a7,t1
    4de6:	959a                	add	a1,a1,t1
    4de8:	032b0833          	mul	a6,s6,s2
    4dec:	01c58333          	add	t1,a1,t3
    4df0:	033abe33          	mulhu	t3,s5,s3
    4df4:	9846                	add	a6,a6,a7
    4df6:	011838b3          	sltu	a7,a6,a7
    4dfa:	9346                	add	t1,t1,a7
    4dfc:	033a85b3          	mul	a1,s5,s3
    4e00:	01c308b3          	add	a7,t1,t3
    4e04:	038a0333          	mul	t1,s4,s8
    4e08:	95c2                	add	a1,a1,a6
    4e0a:	0105b833          	sltu	a6,a1,a6
    4e0e:	98c2                	add	a7,a7,a6
    4e10:	038a3e33          	mulhu	t3,s4,s8
    4e14:	932e                	add	t1,t1,a1
    4e16:	00b335b3          	sltu	a1,t1,a1
    4e1a:	01c88833          	add	a6,a7,t3
    4e1e:	982e                	add	a6,a6,a1
    4e20:	4592                	lw	a1,4(sp)
    4e22:	02f5be33          	mulhu	t3,a1,a5
    4e26:	02f588b3          	mul	a7,a1,a5
    4e2a:	01c805b3          	add	a1,a6,t3
    4e2e:	4822                	lw	a6,8(sp)
    4e30:	989a                	add	a7,a7,t1
    4e32:	0068b333          	sltu	t1,a7,t1
    4e36:	959a                	add	a1,a1,t1
    4e38:	02c80333          	mul	t1,a6,a2
    4e3c:	02c83833          	mulhu	a6,a6,a2
    4e40:	9346                	add	t1,t1,a7
    4e42:	011338b3          	sltu	a7,t1,a7
    4e46:	d61a                	sw	t1,44(sp)
    4e48:	95c2                	add	a1,a1,a6
    4e4a:	95c6                	add	a1,a1,a7
    4e4c:	c6ae                	sw	a1,76(sp)
    4e4e:	55d6                	lw	a1,116(sp)
    4e50:	4eda                	lw	t4,148(sp)
    4e52:	5846                	lw	a6,112(sp)
    4e54:	05ee                	slli	a1,a1,0x1b
    4e56:	03d688b3          	mul	a7,a3,t4
    4e5a:	00585813          	srli	a6,a6,0x5
    4e5e:	0105e833          	or	a6,a1,a6
    4e62:	00887833          	and	a6,a6,s0
    4e66:	5f8a                	lw	t6,160(sp)
    4e68:	42ea                	lw	t0,152(sp)
    4e6a:	438a                	lw	t2,128(sp)
    4e6c:	03d6b333          	mulhu	t1,a3,t4
    4e70:	98c2                	add	a7,a7,a6
    4e72:	0108b5b3          	sltu	a1,a7,a6
    4e76:	4852                	lw	a6,20(sp)
    4e78:	959a                	add	a1,a1,t1
    4e7a:	4352                	lw	t1,20(sp)
    4e7c:	03070833          	mul	a6,a4,a6
    4e80:	02673333          	mulhu	t1,a4,t1
    4e84:	9846                	add	a6,a6,a7
    4e86:	011838b3          	sltu	a7,a6,a7
    4e8a:	959a                	add	a1,a1,t1
    4e8c:	95c6                	add	a1,a1,a7
    4e8e:	48c2                	lw	a7,16(sp)
    4e90:	4342                	lw	t1,16(sp)
    4e92:	031c88b3          	mul	a7,s9,a7
    4e96:	026cb333          	mulhu	t1,s9,t1
    4e9a:	98c2                	add	a7,a7,a6
    4e9c:	0108b833          	sltu	a6,a7,a6
    4ea0:	959a                	add	a1,a1,t1
    4ea2:	95c2                	add	a1,a1,a6
    4ea4:	4832                	lw	a6,12(sp)
    4ea6:	030b8333          	mul	t1,s7,a6
    4eaa:	030bb833          	mulhu	a6,s7,a6
    4eae:	9346                	add	t1,t1,a7
    4eb0:	011338b3          	sltu	a7,t1,a7
    4eb4:	95c2                	add	a1,a1,a6
    4eb6:	98ae                	add	a7,a7,a1
    4eb8:	029b05b3          	mul	a1,s6,s1
    4ebc:	029b3833          	mulhu	a6,s6,s1
    4ec0:	959a                	add	a1,a1,t1
    4ec2:	0065b333          	sltu	t1,a1,t1
    4ec6:	98c2                	add	a7,a7,a6
    4ec8:	032a8833          	mul	a6,s5,s2
    4ecc:	01130e33          	add	t3,t1,a7
    4ed0:	032ab8b3          	mulhu	a7,s5,s2
    4ed4:	982e                	add	a6,a6,a1
    4ed6:	00b835b3          	sltu	a1,a6,a1
    4eda:	011e0333          	add	t1,t3,a7
    4ede:	932e                	add	t1,t1,a1
    4ee0:	033a05b3          	mul	a1,s4,s3
    4ee4:	033a3e33          	mulhu	t3,s4,s3
    4ee8:	95c2                	add	a1,a1,a6
    4eea:	0105b833          	sltu	a6,a1,a6
    4eee:	01c308b3          	add	a7,t1,t3
    4ef2:	98c2                	add	a7,a7,a6
    4ef4:	4812                	lw	a6,4(sp)
    4ef6:	03880333          	mul	t1,a6,s8
    4efa:	03883e33          	mulhu	t3,a6,s8
    4efe:	932e                	add	t1,t1,a1
    4f00:	00b335b3          	sltu	a1,t1,a1
    4f04:	01c88833          	add	a6,a7,t3
    4f08:	982e                	add	a6,a6,a1
    4f0a:	45a2                	lw	a1,8(sp)
    4f0c:	02f588b3          	mul	a7,a1,a5
    4f10:	02f5be33          	mulhu	t3,a1,a5
    4f14:	989a                	add	a7,a7,t1
    4f16:	0068b333          	sltu	t1,a7,t1
    4f1a:	01c805b3          	add	a1,a6,t3
    4f1e:	959a                	add	a1,a1,t1
    4f20:	02cf8333          	mul	t1,t6,a2
    4f24:	02cfb833          	mulhu	a6,t6,a2
    4f28:	9346                	add	t1,t1,a7
    4f2a:	011338b3          	sltu	a7,t1,a7
    4f2e:	d89a                	sw	t1,112(sp)
    4f30:	95c2                	add	a1,a1,a6
    4f32:	95c6                	add	a1,a1,a7
    4f34:	cb2e                	sw	a1,148(sp)
    4f36:	55f6                	lw	a1,124(sp)
    4f38:	0256b8b3          	mulhu	a7,a3,t0
    4f3c:	01e59813          	slli	a6,a1,0x1e
    4f40:	55e6                	lw	a1,120(sp)
    4f42:	8189                	srli	a1,a1,0x2
    4f44:	00b865b3          	or	a1,a6,a1
    4f48:	8de1                	and	a1,a1,s0
    4f4a:	02568833          	mul	a6,a3,t0
    4f4e:	982e                	add	a6,a6,a1
    4f50:	00b83433          	sltu	s0,a6,a1
    4f54:	03d705b3          	mul	a1,a4,t4
    4f58:	9446                	add	s0,s0,a7
    4f5a:	03d738b3          	mulhu	a7,a4,t4
    4f5e:	95c2                	add	a1,a1,a6
    4f60:	0105b833          	sltu	a6,a1,a6
    4f64:	9446                	add	s0,s0,a7
    4f66:	9442                	add	s0,s0,a6
    4f68:	4852                	lw	a6,20(sp)
    4f6a:	48d2                	lw	a7,20(sp)
    4f6c:	029ab333          	mulhu	t1,s5,s1
    4f70:	030c8833          	mul	a6,s9,a6
    4f74:	031cb8b3          	mulhu	a7,s9,a7
    4f78:	982e                	add	a6,a6,a1
    4f7a:	00b835b3          	sltu	a1,a6,a1
    4f7e:	9446                	add	s0,s0,a7
    4f80:	942e                	add	s0,s0,a1
    4f82:	45c2                	lw	a1,16(sp)
    4f84:	02bb88b3          	mul	a7,s7,a1
    4f88:	02bbb5b3          	mulhu	a1,s7,a1
    4f8c:	98c2                	add	a7,a7,a6
    4f8e:	0108b833          	sltu	a6,a7,a6
    4f92:	942e                	add	s0,s0,a1
    4f94:	45b2                	lw	a1,12(sp)
    4f96:	9442                	add	s0,s0,a6
    4f98:	02bb0833          	mul	a6,s6,a1
    4f9c:	02bb35b3          	mulhu	a1,s6,a1
    4fa0:	9846                	add	a6,a6,a7
    4fa2:	011838b3          	sltu	a7,a6,a7
    4fa6:	942e                	add	s0,s0,a1
    4fa8:	029a85b3          	mul	a1,s5,s1
    4fac:	98a2                	add	a7,a7,s0
    4fae:	989a                	add	a7,a7,t1
    4fb0:	4412                	lw	s0,4(sp)
    4fb2:	95c2                	add	a1,a1,a6
    4fb4:	0105b833          	sltu	a6,a1,a6
    4fb8:	01180e33          	add	t3,a6,a7
    4fbc:	032a38b3          	mulhu	a7,s4,s2
    4fc0:	032a0833          	mul	a6,s4,s2
    4fc4:	011e0333          	add	t1,t3,a7
    4fc8:	03343e33          	mulhu	t3,s0,s3
    4fcc:	982e                	add	a6,a6,a1
    4fce:	00b835b3          	sltu	a1,a6,a1
    4fd2:	932e                	add	t1,t1,a1
    4fd4:	4592                	lw	a1,4(sp)
    4fd6:	4422                	lw	s0,8(sp)
    4fd8:	033585b3          	mul	a1,a1,s3
    4fdc:	01c308b3          	add	a7,t1,t3
    4fe0:	03843e33          	mulhu	t3,s0,s8
    4fe4:	95c2                	add	a1,a1,a6
    4fe6:	0105b833          	sltu	a6,a1,a6
    4fea:	98c2                	add	a7,a7,a6
    4fec:	03840333          	mul	t1,s0,s8
    4ff0:	01c88833          	add	a6,a7,t3
    4ff4:	02ff88b3          	mul	a7,t6,a5
    4ff8:	932e                	add	t1,t1,a1
    4ffa:	00b335b3          	sltu	a1,t1,a1
    4ffe:	982e                	add	a6,a6,a1
    5000:	02ffbe33          	mulhu	t3,t6,a5
    5004:	989a                	add	a7,a7,t1
    5006:	0068b333          	sltu	t1,a7,t1
    500a:	01c805b3          	add	a1,a6,t3
    500e:	959a                	add	a1,a1,t1
    5010:	02cd0333          	mul	t1,s10,a2
    5014:	02cd3833          	mulhu	a6,s10,a2
    5018:	00688433          	add	s0,a7,t1
    501c:	011438b3          	sltu	a7,s0,a7
    5020:	d822                	sw	s0,48(sp)
    5022:	4452                	lw	s0,20(sp)
    5024:	95c2                	add	a1,a1,a6
    5026:	95c6                	add	a1,a1,a7
    5028:	c8ae                	sw	a1,80(sp)
    502a:	5582                	lw	a1,32(sp)
    502c:	02768833          	mul	a6,a3,t2
    5030:	02d585b3          	mul	a1,a1,a3
    5034:	0276b6b3          	mulhu	a3,a3,t2
    5038:	96ae                	add	a3,a3,a1
    503a:	019f1593          	slli	a1,t5,0x19
    503e:	8d4d                	or	a0,a0,a1
    5040:	9542                	add	a0,a0,a6
    5042:	007f5593          	srli	a1,t5,0x7
    5046:	01053833          	sltu	a6,a0,a6
    504a:	025708b3          	mul	a7,a4,t0
    504e:	96ae                	add	a3,a3,a1
    5050:	96c2                	add	a3,a3,a6
    5052:	02573833          	mulhu	a6,a4,t0
    5056:	98aa                	add	a7,a7,a0
    5058:	00a8b533          	sltu	a0,a7,a0
    505c:	03dcb333          	mulhu	t1,s9,t4
    5060:	010685b3          	add	a1,a3,a6
    5064:	95aa                	add	a1,a1,a0
    5066:	00658533          	add	a0,a1,t1
    506a:	45d2                	lw	a1,20(sp)
    506c:	03dc86b3          	mul	a3,s9,t4
    5070:	02bb85b3          	mul	a1,s7,a1
    5074:	96c6                	add	a3,a3,a7
    5076:	0116b8b3          	sltu	a7,a3,a7
    507a:	9546                	add	a0,a0,a7
    507c:	028bb333          	mulhu	t1,s7,s0
    5080:	95b6                	add	a1,a1,a3
    5082:	00d5b6b3          	sltu	a3,a1,a3
    5086:	006508b3          	add	a7,a0,t1
    508a:	98b6                	add	a7,a7,a3
    508c:	46c2                	lw	a3,16(sp)
    508e:	4542                	lw	a0,16(sp)
    5090:	02db06b3          	mul	a3,s6,a3
    5094:	02ab3333          	mulhu	t1,s6,a0
    5098:	96ae                	add	a3,a3,a1
    509a:	00b6b5b3          	sltu	a1,a3,a1
    509e:	00688833          	add	a6,a7,t1
    50a2:	982e                	add	a6,a6,a1
    50a4:	45b2                	lw	a1,12(sp)
    50a6:	4532                	lw	a0,12(sp)
    50a8:	4412                	lw	s0,4(sp)
    50aa:	02ba85b3          	mul	a1,s5,a1
    50ae:	4f7a                	lw	t5,156(sp)
    50b0:	02aab333          	mulhu	t1,s5,a0
    50b4:	95b6                	add	a1,a1,a3
    50b6:	00d5b6b3          	sltu	a3,a1,a3
    50ba:	00680533          	add	a0,a6,t1
    50be:	9536                	add	a0,a0,a3
    50c0:	029a06b3          	mul	a3,s4,s1
    50c4:	029a3333          	mulhu	t1,s4,s1
    50c8:	96ae                	add	a3,a3,a1
    50ca:	00b6b5b3          	sltu	a1,a3,a1
    50ce:	951a                	add	a0,a0,t1
    50d0:	95aa                	add	a1,a1,a0
    50d2:	4512                	lw	a0,4(sp)
    50d4:	03243333          	mulhu	t1,s0,s2
    50d8:	03250533          	mul	a0,a0,s2
    50dc:	959a                	add	a1,a1,t1
    50de:	9536                	add	a0,a0,a3
    50e0:	00d536b3          	sltu	a3,a0,a3
    50e4:	00b688b3          	add	a7,a3,a1
    50e8:	45a2                	lw	a1,8(sp)
    50ea:	46a2                	lw	a3,8(sp)
    50ec:	0335b333          	mulhu	t1,a1,s3
    50f0:	033686b3          	mul	a3,a3,s3
    50f4:	00688833          	add	a6,a7,t1
    50f8:	038fb333          	mulhu	t1,t6,s8
    50fc:	96aa                	add	a3,a3,a0
    50fe:	00a6b533          	sltu	a0,a3,a0
    5102:	982a                	add	a6,a6,a0
    5104:	038f88b3          	mul	a7,t6,s8
    5108:	00680533          	add	a0,a6,t1
    510c:	02fd3333          	mulhu	t1,s10,a5
    5110:	98b6                	add	a7,a7,a3
    5112:	00d8b6b3          	sltu	a3,a7,a3
    5116:	9536                	add	a0,a0,a3
    5118:	006505b3          	add	a1,a0,t1
    511c:	4572                	lw	a0,28(sp)
    511e:	02fd06b3          	mul	a3,s10,a5
    5122:	02c50833          	mul	a6,a0,a2
    5126:	96c6                	add	a3,a3,a7
    5128:	0116b8b3          	sltu	a7,a3,a7
    512c:	95c6                	add	a1,a1,a7
    512e:	02cf0533          	mul	a0,t5,a2
    5132:	02cf3633          	mulhu	a2,t5,a2
    5136:	9536                	add	a0,a0,a3
    5138:	00d536b3          	sltu	a3,a0,a3
    513c:	daaa                	sw	a0,116(sp)
    513e:	9642                	add	a2,a2,a6
    5140:	962e                	add	a2,a2,a1
    5142:	96b2                	add	a3,a3,a2
    5144:	cd36                	sw	a3,152(sp)
    5146:	5682                	lw	a3,32(sp)
    5148:	02770633          	mul	a2,a4,t2
    514c:	02e68533          	mul	a0,a3,a4
    5150:	02773733          	mulhu	a4,a4,t2
    5154:	025c86b3          	mul	a3,s9,t0
    5158:	953a                	add	a0,a0,a4
    515a:	025cb5b3          	mulhu	a1,s9,t0
    515e:	96b2                	add	a3,a3,a2
    5160:	00c6b633          	sltu	a2,a3,a2
    5164:	00b50733          	add	a4,a0,a1
    5168:	9732                	add	a4,a4,a2
    516a:	03db8633          	mul	a2,s7,t4
    516e:	03dbb5b3          	mulhu	a1,s7,t4
    5172:	9636                	add	a2,a2,a3
    5174:	00d636b3          	sltu	a3,a2,a3
    5178:	972e                	add	a4,a4,a1
    517a:	9736                	add	a4,a4,a3
    517c:	46d2                	lw	a3,20(sp)
    517e:	033fb833          	mulhu	a6,t6,s3
    5182:	02db05b3          	mul	a1,s6,a3
    5186:	02db36b3          	mulhu	a3,s6,a3
    518a:	95b2                	add	a1,a1,a2
    518c:	00c5b633          	sltu	a2,a1,a2
    5190:	9736                	add	a4,a4,a3
    5192:	963a                	add	a2,a2,a4
    5194:	4742                	lw	a4,16(sp)
    5196:	02ea86b3          	mul	a3,s5,a4
    519a:	02eab533          	mulhu	a0,s5,a4
    519e:	96ae                	add	a3,a3,a1
    51a0:	4732                	lw	a4,12(sp)
    51a2:	00b6b5b3          	sltu	a1,a3,a1
    51a6:	962a                	add	a2,a2,a0
    51a8:	95b2                	add	a1,a1,a2
    51aa:	4632                	lw	a2,12(sp)
    51ac:	02ea0733          	mul	a4,s4,a4
    51b0:	02ca3633          	mulhu	a2,s4,a2
    51b4:	9736                	add	a4,a4,a3
    51b6:	00d736b3          	sltu	a3,a4,a3
    51ba:	95b2                	add	a1,a1,a2
    51bc:	02940633          	mul	a2,s0,s1
    51c0:	96ae                	add	a3,a3,a1
    51c2:	029435b3          	mulhu	a1,s0,s1
    51c6:	963a                	add	a2,a2,a4
    51c8:	00e63733          	sltu	a4,a2,a4
    51cc:	96ae                	add	a3,a3,a1
    51ce:	9736                	add	a4,a4,a3
    51d0:	45a2                	lw	a1,8(sp)
    51d2:	46a2                	lw	a3,8(sp)
    51d4:	0325b5b3          	mulhu	a1,a1,s2
    51d8:	032686b3          	mul	a3,a3,s2
    51dc:	972e                	add	a4,a4,a1
    51de:	96b2                	add	a3,a3,a2
    51e0:	033f85b3          	mul	a1,t6,s3
    51e4:	00c6b633          	sltu	a2,a3,a2
    51e8:	00e60533          	add	a0,a2,a4
    51ec:	01050633          	add	a2,a0,a6
    51f0:	038d3533          	mulhu	a0,s10,s8
    51f4:	95b6                	add	a1,a1,a3
    51f6:	00d5b6b3          	sltu	a3,a1,a3
    51fa:	9636                	add	a2,a2,a3
    51fc:	00a60733          	add	a4,a2,a0
    5200:	4672                	lw	a2,28(sp)
    5202:	038d06b3          	mul	a3,s10,s8
    5206:	02f608b3          	mul	a7,a2,a5
    520a:	96ae                	add	a3,a3,a1
    520c:	00b6b5b3          	sltu	a1,a3,a1
    5210:	972e                	add	a4,a4,a1
    5212:	02ff0833          	mul	a6,t5,a5
    5216:	02ff37b3          	mulhu	a5,t5,a5
    521a:	01068633          	add	a2,a3,a6
    521e:	00d636b3          	sltu	a3,a2,a3
    5222:	da32                	sw	a2,52(sp)
    5224:	4652                	lw	a2,20(sp)
    5226:	97c6                	add	a5,a5,a7
    5228:	97ba                	add	a5,a5,a4
    522a:	97b6                	add	a5,a5,a3
    522c:	cabe                	sw	a5,84(sp)
    522e:	5782                	lw	a5,32(sp)
    5230:	027c8733          	mul	a4,s9,t2
    5234:	03978533          	mul	a0,a5,s9
    5238:	027cbcb3          	mulhu	s9,s9,t2
    523c:	025bb6b3          	mulhu	a3,s7,t0
    5240:	9566                	add	a0,a0,s9
    5242:	025b87b3          	mul	a5,s7,t0
    5246:	00d50cb3          	add	s9,a0,a3
    524a:	97ba                	add	a5,a5,a4
    524c:	03db36b3          	mulhu	a3,s6,t4
    5250:	00e7b733          	sltu	a4,a5,a4
    5254:	9cba                	add	s9,s9,a4
    5256:	03db0733          	mul	a4,s6,t4
    525a:	9cb6                	add	s9,s9,a3
    525c:	46d2                	lw	a3,20(sp)
    525e:	973e                	add	a4,a4,a5
    5260:	00f737b3          	sltu	a5,a4,a5
    5264:	02da86b3          	mul	a3,s5,a3
    5268:	97e6                	add	a5,a5,s9
    526a:	02cabcb3          	mulhu	s9,s5,a2
    526e:	96ba                	add	a3,a3,a4
    5270:	00e6b733          	sltu	a4,a3,a4
    5274:	4642                	lw	a2,16(sp)
    5276:	97e6                	add	a5,a5,s9
    5278:	973e                	add	a4,a4,a5
    527a:	47c2                	lw	a5,16(sp)
    527c:	02ca35b3          	mulhu	a1,s4,a2
    5280:	02fa07b3          	mul	a5,s4,a5
    5284:	972e                	add	a4,a4,a1
    5286:	45b2                	lw	a1,12(sp)
    5288:	97b6                	add	a5,a5,a3
    528a:	00d7b6b3          	sltu	a3,a5,a3
    528e:	00e68633          	add	a2,a3,a4
    5292:	46b2                	lw	a3,12(sp)
    5294:	02b435b3          	mulhu	a1,s0,a1
    5298:	4722                	lw	a4,8(sp)
    529a:	02d406b3          	mul	a3,s0,a3
    529e:	962e                	add	a2,a2,a1
    52a0:	96be                	add	a3,a3,a5
    52a2:	00f6b7b3          	sltu	a5,a3,a5
    52a6:	97b2                	add	a5,a5,a2
    52a8:	4622                	lw	a2,8(sp)
    52aa:	02970733          	mul	a4,a4,s1
    52ae:	02963633          	mulhu	a2,a2,s1
    52b2:	9736                	add	a4,a4,a3
    52b4:	00d736b3          	sltu	a3,a4,a3
    52b8:	97b2                	add	a5,a5,a2
    52ba:	032f8633          	mul	a2,t6,s2
    52be:	96be                	add	a3,a3,a5
    52c0:	032fb5b3          	mulhu	a1,t6,s2
    52c4:	963a                	add	a2,a2,a4
    52c6:	00e63733          	sltu	a4,a2,a4
    52ca:	96ae                	add	a3,a3,a1
    52cc:	033d0833          	mul	a6,s10,s3
    52d0:	9736                	add	a4,a4,a3
    52d2:	033d36b3          	mulhu	a3,s10,s3
    52d6:	9832                	add	a6,a6,a2
    52d8:	00c83633          	sltu	a2,a6,a2
    52dc:	9736                	add	a4,a4,a3
    52de:	00e607b3          	add	a5,a2,a4
    52e2:	4772                	lw	a4,28(sp)
    52e4:	033f0cb3          	mul	s9,t5,s3
    52e8:	038706b3          	mul	a3,a4,s8
    52ec:	038f0733          	mul	a4,t5,s8
    52f0:	038f3c33          	mulhu	s8,t5,s8
    52f4:	9742                	add	a4,a4,a6
    52f6:	01073833          	sltu	a6,a4,a6
    52fa:	dcba                	sw	a4,120(sp)
    52fc:	9c36                	add	s8,s8,a3
    52fe:	9c3e                	add	s8,s8,a5
    5300:	018807b3          	add	a5,a6,s8
    5304:	cf3e                	sw	a5,156(sp)
    5306:	5782                	lw	a5,32(sp)
    5308:	027b8733          	mul	a4,s7,t2
    530c:	03778533          	mul	a0,a5,s7
    5310:	027bbbb3          	mulhu	s7,s7,t2
    5314:	025b36b3          	mulhu	a3,s6,t0
    5318:	955e                	add	a0,a0,s7
    531a:	025b07b3          	mul	a5,s6,t0
    531e:	00d50bb3          	add	s7,a0,a3
    5322:	97ba                	add	a5,a5,a4
    5324:	03dab6b3          	mulhu	a3,s5,t4
    5328:	00e7b733          	sltu	a4,a5,a4
    532c:	9bba                	add	s7,s7,a4
    532e:	03da8733          	mul	a4,s5,t4
    5332:	9bb6                	add	s7,s7,a3
    5334:	46d2                	lw	a3,20(sp)
    5336:	45c2                	lw	a1,16(sp)
    5338:	973e                	add	a4,a4,a5
    533a:	02da0633          	mul	a2,s4,a3
    533e:	00f737b3          	sltu	a5,a4,a5
    5342:	97de                	add	a5,a5,s7
    5344:	02da3bb3          	mulhu	s7,s4,a3
    5348:	46c2                	lw	a3,16(sp)
    534a:	963a                	add	a2,a2,a4
    534c:	00e63733          	sltu	a4,a2,a4
    5350:	97de                	add	a5,a5,s7
    5352:	02d406b3          	mul	a3,s0,a3
    5356:	97ba                	add	a5,a5,a4
    5358:	02b43733          	mulhu	a4,s0,a1
    535c:	96b2                	add	a3,a3,a2
    535e:	00c6b633          	sltu	a2,a3,a2
    5362:	45b2                	lw	a1,12(sp)
    5364:	97ba                	add	a5,a5,a4
    5366:	963e                	add	a2,a2,a5
    5368:	47a2                	lw	a5,8(sp)
    536a:	4732                	lw	a4,12(sp)
    536c:	029d0833          	mul	a6,s10,s1
    5370:	02b7b533          	mulhu	a0,a5,a1
    5374:	02e78733          	mul	a4,a5,a4
    5378:	962a                	add	a2,a2,a0
    537a:	029fb533          	mulhu	a0,t6,s1
    537e:	9736                	add	a4,a4,a3
    5380:	00d736b3          	sltu	a3,a4,a3
    5384:	00c685b3          	add	a1,a3,a2
    5388:	029f8633          	mul	a2,t6,s1
    538c:	00a586b3          	add	a3,a1,a0
    5390:	032d35b3          	mulhu	a1,s10,s2
    5394:	963a                	add	a2,a2,a4
    5396:	00e63733          	sltu	a4,a2,a4
    539a:	96ba                	add	a3,a3,a4
    539c:	00b687b3          	add	a5,a3,a1
    53a0:	46f2                	lw	a3,28(sp)
    53a2:	032d0733          	mul	a4,s10,s2
    53a6:	45d2                	lw	a1,20(sp)
    53a8:	033686b3          	mul	a3,a3,s3
    53ac:	9732                	add	a4,a4,a2
    53ae:	00c73633          	sltu	a2,a4,a2
    53b2:	9cba                	add	s9,s9,a4
    53b4:	97b2                	add	a5,a5,a2
    53b6:	00ecb8b3          	sltu	a7,s9,a4
    53ba:	4652                	lw	a2,20(sp)
    53bc:	033f39b3          	mulhu	s3,t5,s3
    53c0:	99b6                	add	s3,s3,a3
    53c2:	99be                	add	s3,s3,a5
    53c4:	013887b3          	add	a5,a7,s3
    53c8:	ccbe                	sw	a5,88(sp)
    53ca:	5782                	lw	a5,32(sp)
    53cc:	025ab6b3          	mulhu	a3,s5,t0
    53d0:	03678533          	mul	a0,a5,s6
    53d4:	027b07b3          	mul	a5,s6,t2
    53d8:	027b3b33          	mulhu	s6,s6,t2
    53dc:	025a8733          	mul	a4,s5,t0
    53e0:	955a                	add	a0,a0,s6
    53e2:	00d50b33          	add	s6,a0,a3
    53e6:	03da36b3          	mulhu	a3,s4,t4
    53ea:	973e                	add	a4,a4,a5
    53ec:	00f737b3          	sltu	a5,a4,a5
    53f0:	9b3e                	add	s6,s6,a5
    53f2:	03da07b3          	mul	a5,s4,t4
    53f6:	9b36                	add	s6,s6,a3
    53f8:	02c406b3          	mul	a3,s0,a2
    53fc:	97ba                	add	a5,a5,a4
    53fe:	00e7b733          	sltu	a4,a5,a4
    5402:	975a                	add	a4,a4,s6
    5404:	02b43633          	mulhu	a2,s0,a1
    5408:	96be                	add	a3,a3,a5
    540a:	00f6b7b3          	sltu	a5,a3,a5
    540e:	45c2                	lw	a1,16(sp)
    5410:	9732                	add	a4,a4,a2
    5412:	97ba                	add	a5,a5,a4
    5414:	4642                	lw	a2,16(sp)
    5416:	4722                	lw	a4,8(sp)
    5418:	032f0c33          	mul	s8,t5,s2
    541c:	02c70733          	mul	a4,a4,a2
    5420:	4622                	lw	a2,8(sp)
    5422:	02b63633          	mulhu	a2,a2,a1
    5426:	9736                	add	a4,a4,a3
    5428:	00d736b3          	sltu	a3,a4,a3
    542c:	97b2                	add	a5,a5,a2
    542e:	96be                	add	a3,a3,a5
    5430:	47b2                	lw	a5,12(sp)
    5432:	02ff8633          	mul	a2,t6,a5
    5436:	02ffb5b3          	mulhu	a1,t6,a5
    543a:	963a                	add	a2,a2,a4
    543c:	00e63733          	sltu	a4,a2,a4
    5440:	9832                	add	a6,a6,a2
    5442:	00c83633          	sltu	a2,a6,a2
    5446:	9c42                	add	s8,s8,a6
    5448:	010c3833          	sltu	a6,s8,a6
    544c:	96ae                	add	a3,a3,a1
    544e:	9736                	add	a4,a4,a3
    5450:	029d36b3          	mulhu	a3,s10,s1
    5454:	9736                	add	a4,a4,a3
    5456:	00e607b3          	add	a5,a2,a4
    545a:	4772                	lw	a4,28(sp)
    545c:	025a36b3          	mulhu	a3,s4,t0
    5460:	4652                	lw	a2,20(sp)
    5462:	03270733          	mul	a4,a4,s2
    5466:	032f3933          	mulhu	s2,t5,s2
    546a:	993a                	add	s2,s2,a4
    546c:	993e                	add	s2,s2,a5
    546e:	012807b3          	add	a5,a6,s2
    5472:	d13e                	sw	a5,160(sp)
    5474:	5782                	lw	a5,32(sp)
    5476:	027a8733          	mul	a4,s5,t2
    547a:	03578533          	mul	a0,a5,s5
    547e:	027abab3          	mulhu	s5,s5,t2
    5482:	025a07b3          	mul	a5,s4,t0
    5486:	9556                	add	a0,a0,s5
    5488:	00d50ab3          	add	s5,a0,a3
    548c:	97ba                	add	a5,a5,a4
    548e:	00e7b733          	sltu	a4,a5,a4
    5492:	03d406b3          	mul	a3,s0,t4
    5496:	9aba                	add	s5,s5,a4
    5498:	03d43733          	mulhu	a4,s0,t4
    549c:	96be                	add	a3,a3,a5
    549e:	00f6b7b3          	sltu	a5,a3,a5
    54a2:	9aba                	add	s5,s5,a4
    54a4:	9abe                	add	s5,s5,a5
    54a6:	4752                	lw	a4,20(sp)
    54a8:	47a2                	lw	a5,8(sp)
    54aa:	03df0933          	mul	s2,t5,t4
    54ae:	02e78733          	mul	a4,a5,a4
    54b2:	02c7b7b3          	mulhu	a5,a5,a2
    54b6:	9736                	add	a4,a4,a3
    54b8:	00d736b3          	sltu	a3,a4,a3
    54bc:	9abe                	add	s5,s5,a5
    54be:	47c2                	lw	a5,16(sp)
    54c0:	9ab6                	add	s5,s5,a3
    54c2:	02ff8633          	mul	a2,t6,a5
    54c6:	02ffb5b3          	mulhu	a1,t6,a5
    54ca:	47b2                	lw	a5,12(sp)
    54cc:	963a                	add	a2,a2,a4
    54ce:	00e63733          	sltu	a4,a2,a4
    54d2:	00ba86b3          	add	a3,s5,a1
    54d6:	02fd35b3          	mulhu	a1,s10,a5
    54da:	96ba                	add	a3,a3,a4
    54dc:	02fd0733          	mul	a4,s10,a5
    54e0:	00b687b3          	add	a5,a3,a1
    54e4:	46f2                	lw	a3,28(sp)
    54e6:	9732                	add	a4,a4,a2
    54e8:	00c73633          	sltu	a2,a4,a2
    54ec:	97b2                	add	a5,a5,a2
    54ee:	029686b3          	mul	a3,a3,s1
    54f2:	029f0633          	mul	a2,t5,s1
    54f6:	029f34b3          	mulhu	s1,t5,s1
    54fa:	94b6                	add	s1,s1,a3
    54fc:	00c706b3          	add	a3,a4,a2
    5500:	00e6b8b3          	sltu	a7,a3,a4
    5504:	94be                	add	s1,s1,a5
    5506:	009887b3          	add	a5,a7,s1
    550a:	cebe                	sw	a5,92(sp)
    550c:	5782                	lw	a5,32(sp)
    550e:	dc36                	sw	a3,56(sp)
    5510:	025406b3          	mul	a3,s0,t0
    5514:	03478533          	mul	a0,a5,s4
    5518:	027a07b3          	mul	a5,s4,t2
    551c:	027a3a33          	mulhu	s4,s4,t2
    5520:	96be                	add	a3,a3,a5
    5522:	00f6b7b3          	sltu	a5,a3,a5
    5526:	02543733          	mulhu	a4,s0,t0
    552a:	9552                	add	a0,a0,s4
    552c:	00e50a33          	add	s4,a0,a4
    5530:	9a3e                	add	s4,s4,a5
    5532:	47a2                	lw	a5,8(sp)
    5534:	027f0ab3          	mul	s5,t5,t2
    5538:	03d78733          	mul	a4,a5,t4
    553c:	03d7b633          	mulhu	a2,a5,t4
    5540:	47d2                	lw	a5,20(sp)
    5542:	9736                	add	a4,a4,a3
    5544:	00d736b3          	sltu	a3,a4,a3
    5548:	9a32                	add	s4,s4,a2
    554a:	02ff8633          	mul	a2,t6,a5
    554e:	96d2                	add	a3,a3,s4
    5550:	02ffba33          	mulhu	s4,t6,a5
    5554:	47c2                	lw	a5,16(sp)
    5556:	963a                	add	a2,a2,a4
    5558:	00e63733          	sltu	a4,a2,a4
    555c:	02fd0833          	mul	a6,s10,a5
    5560:	96d2                	add	a3,a3,s4
    5562:	96ba                	add	a3,a3,a4
    5564:	02fd3733          	mulhu	a4,s10,a5
    5568:	9832                	add	a6,a6,a2
    556a:	00c83633          	sltu	a2,a6,a2
    556e:	96ba                	add	a3,a3,a4
    5570:	00d607b3          	add	a5,a2,a3
    5574:	4772                	lw	a4,28(sp)
    5576:	46b2                	lw	a3,12(sp)
    5578:	4632                	lw	a2,12(sp)
    557a:	02d706b3          	mul	a3,a4,a3
    557e:	4732                	lw	a4,12(sp)
    5580:	02cf3533          	mulhu	a0,t5,a2
    5584:	02ef0733          	mul	a4,t5,a4
    5588:	9536                	add	a0,a0,a3
    558a:	953e                	add	a0,a0,a5
    558c:	9742                	add	a4,a4,a6
    558e:	01073833          	sltu	a6,a4,a6
    5592:	00a807b3          	add	a5,a6,a0
    5596:	d33e                	sw	a5,164(sp)
    5598:	5782                	lw	a5,32(sp)
    559a:	02740633          	mul	a2,s0,t2
    559e:	deba                	sw	a4,124(sp)
    55a0:	02878533          	mul	a0,a5,s0
    55a4:	47a2                	lw	a5,8(sp)
    55a6:	02743733          	mulhu	a4,s0,t2
    55aa:	025786b3          	mul	a3,a5,t0
    55ae:	953a                	add	a0,a0,a4
    55b0:	0257b5b3          	mulhu	a1,a5,t0
    55b4:	96b2                	add	a3,a3,a2
    55b6:	00c6b633          	sltu	a2,a3,a2
    55ba:	47d2                	lw	a5,20(sp)
    55bc:	00b50733          	add	a4,a0,a1
    55c0:	9732                	add	a4,a4,a2
    55c2:	03df8633          	mul	a2,t6,t4
    55c6:	03dfb5b3          	mulhu	a1,t6,t4
    55ca:	9636                	add	a2,a2,a3
    55cc:	00d636b3          	sltu	a3,a2,a3
    55d0:	972e                	add	a4,a4,a1
    55d2:	96ba                	add	a3,a3,a4
    55d4:	02fd0733          	mul	a4,s10,a5
    55d8:	02fd35b3          	mulhu	a1,s10,a5
    55dc:	9732                	add	a4,a4,a2
    55de:	00c73633          	sltu	a2,a4,a2
    55e2:	96ae                	add	a3,a3,a1
    55e4:	00d607b3          	add	a5,a2,a3
    55e8:	4642                	lw	a2,16(sp)
    55ea:	46f2                	lw	a3,28(sp)
    55ec:	03dd0833          	mul	a6,s10,t4
    55f0:	02c686b3          	mul	a3,a3,a2
    55f4:	02cf0bb3          	mul	s7,t5,a2
    55f8:	02cf3533          	mulhu	a0,t5,a2
    55fc:	9bba                	add	s7,s7,a4
    55fe:	00ebb8b3          	sltu	a7,s7,a4
    5602:	4722                	lw	a4,8(sp)
    5604:	9536                	add	a0,a0,a3
    5606:	953e                	add	a0,a0,a5
    5608:	00a887b3          	add	a5,a7,a0
    560c:	c23e                	sw	a5,4(sp)
    560e:	5782                	lw	a5,32(sp)
    5610:	027736b3          	mulhu	a3,a4,t2
    5614:	02e78633          	mul	a2,a5,a4
    5618:	025fb533          	mulhu	a0,t6,t0
    561c:	9636                	add	a2,a2,a3
    561e:	027705b3          	mul	a1,a4,t2
    5622:	00a606b3          	add	a3,a2,a0
    5626:	025f87b3          	mul	a5,t6,t0
    562a:	03dd3633          	mulhu	a2,s10,t4
    562e:	97ae                	add	a5,a5,a1
    5630:	00b7b5b3          	sltu	a1,a5,a1
    5634:	96ae                	add	a3,a3,a1
    5636:	983e                	add	a6,a6,a5
    5638:	00f837b3          	sltu	a5,a6,a5
    563c:	00c68733          	add	a4,a3,a2
    5640:	973e                	add	a4,a4,a5
    5642:	46d2                	lw	a3,20(sp)
    5644:	47f2                	lw	a5,28(sp)
    5646:	027fb533          	mulhu	a0,t6,t2
    564a:	02df0633          	mul	a2,t5,a3
    564e:	02d787b3          	mul	a5,a5,a3
    5652:	02df36b3          	mulhu	a3,t5,a3
    5656:	97b6                	add	a5,a5,a3
    5658:	00c806b3          	add	a3,a6,a2
    565c:	0106b833          	sltu	a6,a3,a6
    5660:	97ba                	add	a5,a5,a4
    5662:	97c2                	add	a5,a5,a6
    5664:	d53e                	sw	a5,168(sp)
    5666:	5782                	lw	a5,32(sp)
    5668:	c136                	sw	a3,128(sp)
    566a:	025d35b3          	mulhu	a1,s10,t0
    566e:	03f786b3          	mul	a3,a5,t6
    5672:	96aa                	add	a3,a3,a0
    5674:	00b687b3          	add	a5,a3,a1
    5678:	46f2                	lw	a3,28(sp)
    567a:	027f8633          	mul	a2,t6,t2
    567e:	025d0733          	mul	a4,s10,t0
    5682:	03d686b3          	mul	a3,a3,t4
    5686:	9732                	add	a4,a4,a2
    5688:	00c73633          	sltu	a2,a4,a2
    568c:	993a                	add	s2,s2,a4
    568e:	97b2                	add	a5,a5,a2
    5690:	00e93733          	sltu	a4,s2,a4
    5694:	03df3533          	mulhu	a0,t5,t4
    5698:	9536                	add	a0,a0,a3
    569a:	953e                	add	a0,a0,a5
    569c:	00a707b3          	add	a5,a4,a0
    56a0:	c43e                	sw	a5,8(sp)
    56a2:	5782                	lw	a5,32(sp)
    56a4:	027d3533          	mulhu	a0,s10,t2
    56a8:	46f2                	lw	a3,28(sp)
    56aa:	03a78733          	mul	a4,a5,s10
    56ae:	025f08b3          	mul	a7,t5,t0
    56b2:	972a                	add	a4,a4,a0
    56b4:	027d07b3          	mul	a5,s10,t2
    56b8:	025686b3          	mul	a3,a3,t0
    56bc:	01178d33          	add	s10,a5,a7
    56c0:	00fd37b3          	sltu	a5,s10,a5
    56c4:	025f3533          	mulhu	a0,t5,t0
    56c8:	9536                	add	a0,a0,a3
    56ca:	953a                	add	a0,a0,a4
    56cc:	97aa                	add	a5,a5,a0
    56ce:	d73e                	sw	a5,172(sp)
    56d0:	47f2                	lw	a5,28(sp)
    56d2:	4762                	lw	a4,24(sp)
    56d4:	56f2                	lw	a3,60(sp)
    56d6:	027785b3          	mul	a1,a5,t2
    56da:	5782                	lw	a5,32(sp)
    56dc:	03e78833          	mul	a6,a5,t5
    56e0:	027f37b3          	mulhu	a5,t5,t2
    56e4:	982e                	add	a6,a6,a1
    56e6:	97c2                	add	a5,a5,a6
    56e8:	c63e                	sw	a5,12(sp)
    56ea:	001007b7          	lui	a5,0x100
    56ee:	00f703b3          	add	t2,a4,a5
    56f2:	00e3b733          	sltu	a4,t2,a4
    56f6:	9736                	add	a4,a4,a3
    56f8:	00b71613          	slli	a2,a4,0xb
    56fc:	0153d693          	srli	a3,t2,0x15
    5700:	8ed1                	or	a3,a3,a2
    5702:	5606                	lw	a2,96(sp)
    5704:	41575593          	srai	a1,a4,0x15
    5708:	00fc8a33          	add	s4,s9,a5
    570c:	00c689b3          	add	s3,a3,a2
    5710:	461a                	lw	a2,132(sp)
    5712:	00d9b6b3          	sltu	a3,s3,a3
    5716:	95b2                	add	a1,a1,a2
    5718:	96ae                	add	a3,a3,a1
    571a:	c836                	sw	a3,16(sp)
    571c:	46e2                	lw	a3,24(sp)
    571e:	ffe00637          	lui	a2,0xffe00
    5722:	007673b3          	and	t2,a2,t2
    5726:	407686b3          	sub	a3,a3,t2
    572a:	d0b6                	sw	a3,96(sp)
    572c:	45e2                	lw	a1,24(sp)
    572e:	00d5b3b3          	sltu	t2,a1,a3
    5732:	56f2                	lw	a3,60(sp)
    5734:	40e68733          	sub	a4,a3,a4
    5738:	40770733          	sub	a4,a4,t2
    573c:	c33a                	sw	a4,132(sp)
    573e:	4706                	lw	a4,64(sp)
    5740:	00fd83b3          	add	t2,s11,a5
    5744:	01b3b333          	sltu	t1,t2,s11
    5748:	933a                	add	t1,t1,a4
    574a:	00b31693          	slli	a3,t1,0xb
    574e:	0153d713          	srli	a4,t2,0x15
    5752:	8f55                	or	a4,a4,a3
    5754:	5696                	lw	a3,100(sp)
    5756:	41535f13          	srai	t5,t1,0x15
    575a:	007673b3          	and	t2,a2,t2
    575e:	00d70433          	add	s0,a4,a3
    5762:	46aa                	lw	a3,136(sp)
    5764:	00e43733          	sltu	a4,s0,a4
    5768:	407d83b3          	sub	t2,s11,t2
    576c:	9f36                	add	t5,t5,a3
    576e:	977a                	add	a4,a4,t5
    5770:	ca3a                	sw	a4,20(sp)
    5772:	4706                	lw	a4,64(sp)
    5774:	007db833          	sltu	a6,s11,t2
    5778:	4696                	lw	a3,68(sp)
    577a:	40670333          	sub	t1,a4,t1
    577e:	41030733          	sub	a4,t1,a6
    5782:	d2ba                	sw	a4,100(sp)
    5784:	5712                	lw	a4,36(sp)
    5786:	00f70333          	add	t1,a4,a5
    578a:	00e33733          	sltu	a4,t1,a4
    578e:	9736                	add	a4,a4,a3
    5790:	00b71593          	slli	a1,a4,0xb
    5794:	01535693          	srli	a3,t1,0x15
    5798:	8ecd                	or	a3,a3,a1
    579a:	55a6                	lw	a1,104(sp)
    579c:	41575893          	srai	a7,a4,0x15
    57a0:	00667333          	and	t1,a2,t1
    57a4:	00b68db3          	add	s11,a3,a1
    57a8:	45ba                	lw	a1,140(sp)
    57aa:	00ddb6b3          	sltu	a3,s11,a3
    57ae:	98ae                	add	a7,a7,a1
    57b0:	96c6                	add	a3,a3,a7
    57b2:	cc36                	sw	a3,24(sp)
    57b4:	5692                	lw	a3,36(sp)
    57b6:	40668333          	sub	t1,a3,t1
    57ba:	0066b833          	sltu	a6,a3,t1
    57be:	4696                	lw	a3,68(sp)
    57c0:	40e68733          	sub	a4,a3,a4
    57c4:	41070733          	sub	a4,a4,a6
    57c8:	d4ba                	sw	a4,104(sp)
    57ca:	5722                	lw	a4,40(sp)
    57cc:	46a6                	lw	a3,72(sp)
    57ce:	00f704b3          	add	s1,a4,a5
    57d2:	00e4b733          	sltu	a4,s1,a4
    57d6:	9736                	add	a4,a4,a3
    57d8:	00b71593          	slli	a1,a4,0xb
    57dc:	0154d693          	srli	a3,s1,0x15
    57e0:	8ecd                	or	a3,a3,a1
    57e2:	55b6                	lw	a1,108(sp)
    57e4:	41575893          	srai	a7,a4,0x15
    57e8:	8cf1                	and	s1,s1,a2
    57ea:	00b68e33          	add	t3,a3,a1
    57ee:	45ca                	lw	a1,144(sp)
    57f0:	00de36b3          	sltu	a3,t3,a3
    57f4:	98ae                	add	a7,a7,a1
    57f6:	96c6                	add	a3,a3,a7
    57f8:	ce36                	sw	a3,28(sp)
    57fa:	56a2                	lw	a3,40(sp)
    57fc:	45a6                	lw	a1,72(sp)
    57fe:	409684b3          	sub	s1,a3,s1
    5802:	0096b6b3          	sltu	a3,a3,s1
    5806:	40e58733          	sub	a4,a1,a4
    580a:	8f15                	sub	a4,a4,a3
    580c:	d6ba                	sw	a4,108(sp)
    580e:	5732                	lw	a4,44(sp)
    5810:	45da                	lw	a1,148(sp)
    5812:	00f70b33          	add	s6,a4,a5
    5816:	00eb36b3          	sltu	a3,s6,a4
    581a:	4736                	lw	a4,76(sp)
    581c:	015b5513          	srli	a0,s6,0x15
    5820:	01667b33          	and	s6,a2,s6
    5824:	96ba                	add	a3,a3,a4
    5826:	00b69713          	slli	a4,a3,0xb
    582a:	8d59                	or	a0,a0,a4
    582c:	5746                	lw	a4,112(sp)
    582e:	4156d893          	srai	a7,a3,0x15
    5832:	98ae                	add	a7,a7,a1
    5834:	972a                	add	a4,a4,a0
    5836:	00a73533          	sltu	a0,a4,a0
    583a:	011505b3          	add	a1,a0,a7
    583e:	d02e                	sw	a1,32(sp)
    5840:	55b2                	lw	a1,44(sp)
    5842:	41658b33          	sub	s6,a1,s6
    5846:	0165b533          	sltu	a0,a1,s6
    584a:	45b6                	lw	a1,76(sp)
    584c:	40d586b3          	sub	a3,a1,a3
    5850:	8e89                	sub	a3,a3,a0
    5852:	d8b6                	sw	a3,112(sp)
    5854:	56c2                	lw	a3,48(sp)
    5856:	4eea                	lw	t4,152(sp)
    5858:	00f685b3          	add	a1,a3,a5
    585c:	00d5b8b3          	sltu	a7,a1,a3
    5860:	46c6                	lw	a3,80(sp)
    5862:	98b6                	add	a7,a7,a3
    5864:	00b89513          	slli	a0,a7,0xb
    5868:	0155d693          	srli	a3,a1,0x15
    586c:	8ec9                	or	a3,a3,a0
    586e:	5556                	lw	a0,116(sp)
    5870:	4158d813          	srai	a6,a7,0x15
    5874:	9876                	add	a6,a6,t4
    5876:	9536                	add	a0,a0,a3
    5878:	00d536b3          	sltu	a3,a0,a3
    587c:	96c2                	add	a3,a3,a6
    587e:	d236                	sw	a3,36(sp)
    5880:	56c2                	lw	a3,48(sp)
    5882:	4846                	lw	a6,80(sp)
    5884:	8df1                	and	a1,a1,a2
    5886:	40b685b3          	sub	a1,a3,a1
    588a:	411808b3          	sub	a7,a6,a7
    588e:	00b6b6b3          	sltu	a3,a3,a1
    5892:	40d886b3          	sub	a3,a7,a3
    5896:	dab6                	sw	a3,116(sp)
    5898:	56d2                	lw	a3,52(sp)
    589a:	5852                	lw	a6,52(sp)
    589c:	5ee6                	lw	t4,120(sp)
    589e:	96be                	add	a3,a3,a5
    58a0:	0106b8b3          	sltu	a7,a3,a6
    58a4:	4856                	lw	a6,84(sp)
    58a6:	98c2                	add	a7,a7,a6
    58a8:	00b89f13          	slli	t5,a7,0xb
    58ac:	0156d813          	srli	a6,a3,0x15
    58b0:	010f6833          	or	a6,t5,a6
    58b4:	01d80f33          	add	t5,a6,t4
    58b8:	4efa                	lw	t4,156(sp)
    58ba:	4158df93          	srai	t6,a7,0x15
    58be:	010f3833          	sltu	a6,t5,a6
    58c2:	9ff6                	add	t6,t6,t4
    58c4:	987e                	add	a6,a6,t6
    58c6:	d442                	sw	a6,40(sp)
    58c8:	5852                	lw	a6,52(sp)
    58ca:	4ed6                	lw	t4,84(sp)
    58cc:	8ef1                	and	a3,a3,a2
    58ce:	40d806b3          	sub	a3,a6,a3
    58d2:	411e88b3          	sub	a7,t4,a7
    58d6:	00d83833          	sltu	a6,a6,a3
    58da:	41088833          	sub	a6,a7,a6
    58de:	dcc2                	sw	a6,120(sp)
    58e0:	4866                	lw	a6,88(sp)
    58e2:	019a38b3          	sltu	a7,s4,s9
    58e6:	5e8a                	lw	t4,160(sp)
    58e8:	98c2                	add	a7,a7,a6
    58ea:	00b89f93          	slli	t6,a7,0xb
    58ee:	015a5813          	srli	a6,s4,0x15
    58f2:	010fe833          	or	a6,t6,a6
    58f6:	9c42                	add	s8,s8,a6
    58f8:	4158df93          	srai	t6,a7,0x15
    58fc:	9ff6                	add	t6,t6,t4
    58fe:	010c3833          	sltu	a6,s8,a6
    5902:	987e                	add	a6,a6,t6
    5904:	d642                	sw	a6,44(sp)
    5906:	4866                	lw	a6,88(sp)
    5908:	01467a33          	and	s4,a2,s4
    590c:	414c8a33          	sub	s4,s9,s4
    5910:	014cbcb3          	sltu	s9,s9,s4
    5914:	411808b3          	sub	a7,a6,a7
    5918:	41988833          	sub	a6,a7,s9
    591c:	c542                	sw	a6,136(sp)
    591e:	5862                	lw	a6,56(sp)
    5920:	5ef6                	lw	t4,124(sp)
    5922:	00f80fb3          	add	t6,a6,a5
    5926:	010fb8b3          	sltu	a7,t6,a6
    592a:	4876                	lw	a6,92(sp)
    592c:	98c2                	add	a7,a7,a6
    592e:	00b89293          	slli	t0,a7,0xb
    5932:	015fd813          	srli	a6,t6,0x15
    5936:	0102e833          	or	a6,t0,a6
    593a:	01d802b3          	add	t0,a6,t4
    593e:	5e9a                	lw	t4,164(sp)
    5940:	4158dc93          	srai	s9,a7,0x15
    5944:	0102b833          	sltu	a6,t0,a6
    5948:	9cf6                	add	s9,s9,t4
    594a:	9866                	add	a6,a6,s9
    594c:	d842                	sw	a6,48(sp)
    594e:	5862                	lw	a6,56(sp)
    5950:	5ee2                	lw	t4,56(sp)
    5952:	01f67fb3          	and	t6,a2,t6
    5956:	41f80833          	sub	a6,a6,t6
    595a:	de42                	sw	a6,60(sp)
    595c:	010ebeb3          	sltu	t4,t4,a6
    5960:	4876                	lw	a6,92(sp)
    5962:	411808b3          	sub	a7,a6,a7
    5966:	41d88833          	sub	a6,a7,t4
    596a:	dec2                	sw	a6,124(sp)
    596c:	4812                	lw	a6,4(sp)
    596e:	00fb8eb3          	add	t4,s7,a5
    5972:	017eb8b3          	sltu	a7,t4,s7
    5976:	98c2                	add	a7,a7,a6
    5978:	00b89f93          	slli	t6,a7,0xb
    597c:	015ed813          	srli	a6,t4,0x15
    5980:	010fe833          	or	a6,t6,a6
    5984:	4f8a                	lw	t6,128(sp)
    5986:	4158dc93          	srai	s9,a7,0x15
    598a:	01d67eb3          	and	t4,a2,t4
    598e:	9fc2                	add	t6,t6,a6
    5990:	010fb833          	sltu	a6,t6,a6
    5994:	da42                	sw	a6,52(sp)
    5996:	582a                	lw	a6,168(sp)
    5998:	9cc2                	add	s9,s9,a6
    599a:	5852                	lw	a6,52(sp)
    599c:	9866                	add	a6,a6,s9
    599e:	da42                	sw	a6,52(sp)
    59a0:	41db8833          	sub	a6,s7,t4
    59a4:	c0c2                	sw	a6,64(sp)
    59a6:	010bbbb3          	sltu	s7,s7,a6
    59aa:	4812                	lw	a6,4(sp)
    59ac:	411808b3          	sub	a7,a6,a7
    59b0:	41788833          	sub	a6,a7,s7
    59b4:	c242                	sw	a6,4(sp)
    59b6:	4822                	lw	a6,8(sp)
    59b8:	00f90bb3          	add	s7,s2,a5
    59bc:	012bbeb3          	sltu	t4,s7,s2
    59c0:	9ec2                	add	t4,t4,a6
    59c2:	00be9893          	slli	a7,t4,0xb
    59c6:	015bd813          	srli	a6,s7,0x15
    59ca:	0108e833          	or	a6,a7,a6
    59ce:	01a808b3          	add	a7,a6,s10
    59d2:	5d3a                	lw	s10,172(sp)
    59d4:	415edc93          	srai	s9,t4,0x15
    59d8:	0108b833          	sltu	a6,a7,a6
    59dc:	9cea                	add	s9,s9,s10
    59de:	9866                	add	a6,a6,s9
    59e0:	01767bb3          	and	s7,a2,s7
    59e4:	dc42                	sw	a6,56(sp)
    59e6:	41790833          	sub	a6,s2,s7
    59ea:	c2c2                	sw	a6,68(sp)
    59ec:	01093933          	sltu	s2,s2,a6
    59f0:	4822                	lw	a6,8(sp)
    59f2:	00fc0bb3          	add	s7,s8,a5
    59f6:	41d80eb3          	sub	t4,a6,t4
    59fa:	412e8833          	sub	a6,t4,s2
    59fe:	4eb2                	lw	t4,12(sp)
    5a00:	00fa8933          	add	s2,s5,a5
    5a04:	c442                	sw	a6,8(sp)
    5a06:	01593833          	sltu	a6,s2,s5
    5a0a:	9876                	add	a6,a6,t4
    5a0c:	00b81e93          	slli	t4,a6,0xb
    5a10:	01595d13          	srli	s10,s2,0x15
    5a14:	01267933          	and	s2,a2,s2
    5a18:	01aeed33          	or	s10,t4,s10
    5a1c:	412a8eb3          	sub	t4,s5,s2
    5a20:	c4f6                	sw	t4,72(sp)
    5a22:	01dabab3          	sltu	s5,s5,t4
    5a26:	4eb2                	lw	t4,12(sp)
    5a28:	41585c93          	srai	s9,a6,0x15
    5a2c:	00f98933          	add	s2,s3,a5
    5a30:	410e8833          	sub	a6,t4,a6
    5a34:	41580833          	sub	a6,a6,s5
    5a38:	c142                	sw	a6,128(sp)
    5a3a:	4842                	lw	a6,16(sp)
    5a3c:	01393eb3          	sltu	t4,s2,s3
    5a40:	9ec2                	add	t4,t4,a6
    5a42:	00be9a93          	slli	s5,t4,0xb
    5a46:	01595813          	srli	a6,s2,0x15
    5a4a:	010ae833          	or	a6,s5,a6
    5a4e:	93c2                	add	t2,t2,a6
    5a50:	c69e                	sw	t2,76(sp)
    5a52:	0103b833          	sltu	a6,t2,a6
    5a56:	5396                	lw	t2,100(sp)
    5a58:	415eda93          	srai	s5,t4,0x15
    5a5c:	01267933          	and	s2,a2,s2
    5a60:	9a9e                	add	s5,s5,t2
    5a62:	9856                	add	a6,a6,s5
    5a64:	c742                	sw	a6,140(sp)
    5a66:	41298833          	sub	a6,s3,s2
    5a6a:	c8c2                	sw	a6,80(sp)
    5a6c:	0109b9b3          	sltu	s3,s3,a6
    5a70:	4842                	lw	a6,16(sp)
    5a72:	00f403b3          	add	t2,s0,a5
    5a76:	41d80eb3          	sub	t4,a6,t4
    5a7a:	413e8833          	sub	a6,t4,s3
    5a7e:	c942                	sw	a6,144(sp)
    5a80:	4852                	lw	a6,20(sp)
    5a82:	0083beb3          	sltu	t4,t2,s0
    5a86:	00ff09b3          	add	s3,t5,a5
    5a8a:	9ec2                	add	t4,t4,a6
    5a8c:	00be9913          	slli	s2,t4,0xb
    5a90:	0153d813          	srli	a6,t2,0x15
    5a94:	01096833          	or	a6,s2,a6
    5a98:	9342                	add	t1,t1,a6
    5a9a:	ca9a                	sw	t1,84(sp)
    5a9c:	01033833          	sltu	a6,t1,a6
    5aa0:	5326                	lw	t1,104(sp)
    5aa2:	415ed913          	srai	s2,t4,0x15
    5aa6:	007673b3          	and	t2,a2,t2
    5aaa:	991a                	add	s2,s2,t1
    5aac:	984a                	add	a6,a6,s2
    5aae:	cb42                	sw	a6,148(sp)
    5ab0:	40740833          	sub	a6,s0,t2
    5ab4:	ccc2                	sw	a6,88(sp)
    5ab6:	01043433          	sltu	s0,s0,a6
    5aba:	4852                	lw	a6,20(sp)
    5abc:	41d80eb3          	sub	t4,a6,t4
    5ac0:	408e8433          	sub	s0,t4,s0
    5ac4:	cd22                	sw	s0,152(sp)
    5ac6:	4462                	lw	s0,24(sp)
    5ac8:	00fd8eb3          	add	t4,s11,a5
    5acc:	01beb3b3          	sltu	t2,t4,s11
    5ad0:	93a2                	add	t2,t2,s0
    5ad2:	00b39313          	slli	t1,t2,0xb
    5ad6:	015ed813          	srli	a6,t4,0x15
    5ada:	01036833          	or	a6,t1,a6
    5ade:	94c2                	add	s1,s1,a6
    5ae0:	cea6                	sw	s1,92(sp)
    5ae2:	0104b833          	sltu	a6,s1,a6
    5ae6:	54b6                	lw	s1,108(sp)
    5ae8:	4153d413          	srai	s0,t2,0x15
    5aec:	01d67eb3          	and	t4,a2,t4
    5af0:	9426                	add	s0,s0,s1
    5af2:	9442                	add	s0,s0,a6
    5af4:	cf22                	sw	s0,156(sp)
    5af6:	41dd8433          	sub	s0,s11,t4
    5afa:	d2a2                	sw	s0,100(sp)
    5afc:	008dbdb3          	sltu	s11,s11,s0
    5b00:	4462                	lw	s0,24(sp)
    5b02:	00fe0833          	add	a6,t3,a5
    5b06:	01c83eb3          	sltu	t4,a6,t3
    5b0a:	407403b3          	sub	t2,s0,t2
    5b0e:	41b38433          	sub	s0,t2,s11
    5b12:	d122                	sw	s0,160(sp)
    5b14:	4472                	lw	s0,28(sp)
    5b16:	01585313          	srli	t1,a6,0x15
    5b1a:	01067833          	and	a6,a2,a6
    5b1e:	9ea2                	add	t4,t4,s0
    5b20:	00be9393          	slli	t2,t4,0xb
    5b24:	0063e333          	or	t1,t2,t1
    5b28:	01630433          	add	s0,t1,s6
    5b2c:	d4a2                	sw	s0,104(sp)
    5b2e:	00643333          	sltu	t1,s0,t1
    5b32:	5446                	lw	s0,112(sp)
    5b34:	415ed393          	srai	t2,t4,0x15
    5b38:	93a2                	add	t2,t2,s0
    5b3a:	00730433          	add	s0,t1,t2
    5b3e:	d8a2                	sw	s0,112(sp)
    5b40:	410e0433          	sub	s0,t3,a6
    5b44:	d6a2                	sw	s0,108(sp)
    5b46:	008e3e33          	sltu	t3,t3,s0
    5b4a:	4472                	lw	s0,28(sp)
    5b4c:	00f70333          	add	t1,a4,a5
    5b50:	01535813          	srli	a6,t1,0x15
    5b54:	41d40eb3          	sub	t4,s0,t4
    5b58:	41ce8433          	sub	s0,t4,t3
    5b5c:	d322                	sw	s0,164(sp)
    5b5e:	5402                	lw	s0,32(sp)
    5b60:	00e33e33          	sltu	t3,t1,a4
    5b64:	00667333          	and	t1,a2,t1
    5b68:	9e22                	add	t3,t3,s0
    5b6a:	00be1e93          	slli	t4,t3,0xb
    5b6e:	010ee833          	or	a6,t4,a6
    5b72:	95c2                	add	a1,a1,a6
    5b74:	ca2e                	sw	a1,20(sp)
    5b76:	0105b833          	sltu	a6,a1,a6
    5b7a:	55d6                	lw	a1,116(sp)
    5b7c:	415e5e93          	srai	t4,t3,0x15
    5b80:	41c40e33          	sub	t3,s0,t3
    5b84:	9eae                	add	t4,t4,a1
    5b86:	01d805b3          	add	a1,a6,t4
    5b8a:	daae                	sw	a1,116(sp)
    5b8c:	406705b3          	sub	a1,a4,t1
    5b90:	00b73733          	sltu	a4,a4,a1
    5b94:	ce2e                	sw	a1,28(sp)
    5b96:	40ee0733          	sub	a4,t3,a4
    5b9a:	5592                	lw	a1,36(sp)
    5b9c:	d53a                	sw	a4,168(sp)
    5b9e:	00f50733          	add	a4,a0,a5
    5ba2:	00a73333          	sltu	t1,a4,a0
    5ba6:	932e                	add	t1,t1,a1
    5ba8:	5466                	lw	s0,120(sp)
    5baa:	00b31813          	slli	a6,t1,0xb
    5bae:	01575593          	srli	a1,a4,0x15
    5bb2:	00b865b3          	or	a1,a6,a1
    5bb6:	41535e13          	srai	t3,t1,0x15
    5bba:	96ae                	add	a3,a3,a1
    5bbc:	00b6b5b3          	sltu	a1,a3,a1
    5bc0:	008e0833          	add	a6,t3,s0
    5bc4:	982e                	add	a6,a6,a1
    5bc6:	5592                	lw	a1,36(sp)
    5bc8:	8f71                	and	a4,a4,a2
    5bca:	01e9be33          	sltu	t3,s3,t5
    5bce:	40658333          	sub	t1,a1,t1
    5bd2:	55a2                	lw	a1,40(sp)
    5bd4:	40e50733          	sub	a4,a0,a4
    5bd8:	00e53533          	sltu	a0,a0,a4
    5bdc:	9e2e                	add	t3,t3,a1
    5bde:	442a                	lw	s0,136(sp)
    5be0:	00be1593          	slli	a1,t3,0xb
    5be4:	40a30533          	sub	a0,t1,a0
    5be8:	0159d313          	srli	t1,s3,0x15
    5bec:	0065e333          	or	t1,a1,t1
    5bf0:	415e5e93          	srai	t4,t3,0x15
    5bf4:	9a1a                	add	s4,s4,t1
    5bf6:	006a35b3          	sltu	a1,s4,t1
    5bfa:	008e83b3          	add	t2,t4,s0
    5bfe:	93ae                	add	t2,t2,a1
    5c00:	55a2                	lw	a1,40(sp)
    5c02:	013679b3          	and	s3,a2,s3
    5c06:	018bb333          	sltu	t1,s7,s8
    5c0a:	41c58e33          	sub	t3,a1,t3
    5c0e:	55b2                	lw	a1,44(sp)
    5c10:	413f09b3          	sub	s3,t5,s3
    5c14:	5472                	lw	s0,60(sp)
    5c16:	932e                	add	t1,t1,a1
    5c18:	013f3f33          	sltu	t5,t5,s3
    5c1c:	41ee0f33          	sub	t5,t3,t5
    5c20:	015bd593          	srli	a1,s7,0x15
    5c24:	00b31e13          	slli	t3,t1,0xb
    5c28:	00be65b3          	or	a1,t3,a1
    5c2c:	00858b33          	add	s6,a1,s0
    5c30:	5476                	lw	s0,124(sp)
    5c32:	41535e93          	srai	t4,t1,0x15
    5c36:	00bb35b3          	sltu	a1,s6,a1
    5c3a:	9ea2                	add	t4,t4,s0
    5c3c:	95f6                	add	a1,a1,t4
    5c3e:	cc2e                	sw	a1,24(sp)
    5c40:	55b2                	lw	a1,44(sp)
    5c42:	01767bb3          	and	s7,a2,s7
    5c46:	417c0bb3          	sub	s7,s8,s7
    5c4a:	017c3c33          	sltu	s8,s8,s7
    5c4e:	40658333          	sub	t1,a1,t1
    5c52:	418305b3          	sub	a1,t1,s8
    5c56:	c82e                	sw	a1,16(sp)
    5c58:	55c2                	lw	a1,48(sp)
    5c5a:	00f28e33          	add	t3,t0,a5
    5c5e:	005e3333          	sltu	t1,t3,t0
    5c62:	932e                	add	t1,t1,a1
    5c64:	4486                	lw	s1,64(sp)
    5c66:	00b31e93          	slli	t4,t1,0xb
    5c6a:	015e5593          	srli	a1,t3,0x15
    5c6e:	00bee5b3          	or	a1,t4,a1
    5c72:	00958eb3          	add	t4,a1,s1
    5c76:	4492                	lw	s1,4(sp)
    5c78:	41535413          	srai	s0,t1,0x15
    5c7c:	00beb5b3          	sltu	a1,t4,a1
    5c80:	9426                	add	s0,s0,s1
    5c82:	95a2                	add	a1,a1,s0
    5c84:	01c67e33          	and	t3,a2,t3
    5c88:	c22e                	sw	a1,4(sp)
    5c8a:	41c285b3          	sub	a1,t0,t3
    5c8e:	d02e                	sw	a1,32(sp)
    5c90:	00b2b2b3          	sltu	t0,t0,a1
    5c94:	55c2                	lw	a1,48(sp)
    5c96:	00ff8e33          	add	t3,t6,a5
    5c9a:	4416                	lw	s0,68(sp)
    5c9c:	40658333          	sub	t1,a1,t1
    5ca0:	405305b3          	sub	a1,t1,t0
    5ca4:	d62e                	sw	a1,44(sp)
    5ca6:	55d2                	lw	a1,52(sp)
    5ca8:	01fe3333          	sltu	t1,t3,t6
    5cac:	44a2                	lw	s1,8(sp)
    5cae:	932e                	add	t1,t1,a1
    5cb0:	00b31293          	slli	t0,t1,0xb
    5cb4:	015e5593          	srli	a1,t3,0x15
    5cb8:	00b2e5b3          	or	a1,t0,a1
    5cbc:	942e                	add	s0,s0,a1
    5cbe:	41535913          	srai	s2,t1,0x15
    5cc2:	9926                	add	s2,s2,s1
    5cc4:	00b435b3          	sltu	a1,s0,a1
    5cc8:	95ca                	add	a1,a1,s2
    5cca:	c42e                	sw	a1,8(sp)
    5ccc:	55d2                	lw	a1,52(sp)
    5cce:	01c67e33          	and	t3,a2,t3
    5cd2:	41cf8e33          	sub	t3,t6,t3
    5cd6:	54e2                	lw	s1,56(sp)
    5cd8:	01cfbfb3          	sltu	t6,t6,t3
    5cdc:	40658333          	sub	t1,a1,t1
    5ce0:	41f305b3          	sub	a1,t1,t6
    5ce4:	00f88fb3          	add	t6,a7,a5
    5ce8:	c62e                	sw	a1,12(sp)
    5cea:	011fb5b3          	sltu	a1,t6,a7
    5cee:	95a6                	add	a1,a1,s1
    5cf0:	44a6                	lw	s1,72(sp)
    5cf2:	00b59313          	slli	t1,a1,0xb
    5cf6:	015fd293          	srli	t0,t6,0x15
    5cfa:	005362b3          	or	t0,t1,t0
    5cfe:	00928933          	add	s2,t0,s1
    5d02:	448a                	lw	s1,128(sp)
    5d04:	4155da93          	srai	s5,a1,0x15
    5d08:	000a3337          	lui	t1,0xa3
    5d0c:	9aa6                	add	s5,s5,s1
    5d0e:	54e2                	lw	s1,56(sp)
    5d10:	c1330313          	addi	t1,t1,-1005 # a2c13 <_data_lma+0x8dd2b>
    5d14:	005932b3          	sltu	t0,s2,t0
    5d18:	92d6                	add	t0,t0,s5
    5d1a:	026c8c33          	mul	s8,s9,t1
    5d1e:	8c8d                	sub	s1,s1,a1
    5d20:	01f67fb3          	and	t6,a2,t6
    5d24:	41f88fb3          	sub	t6,a7,t6
    5d28:	01f8b8b3          	sltu	a7,a7,t6
    5d2c:	411484b3          	sub	s1,s1,a7
    5d30:	000738b7          	lui	a7,0x73
    5d34:	d1888893          	addi	a7,a7,-744 # 72d18 <_data_lma+0x5de30>
    5d38:	026d0ab3          	mul	s5,s10,t1
    5d3c:	026d35b3          	mulhu	a1,s10,t1
    5d40:	9756                	add	a4,a4,s5
    5d42:	01573ab3          	sltu	s5,a4,s5
    5d46:	95e2                	add	a1,a1,s8
    5d48:	952e                	add	a0,a0,a1
    5d4a:	00aa85b3          	add	a1,s5,a0
    5d4e:	d22e                	sw	a1,36(sp)
    5d50:	031c8db3          	mul	s11,s9,a7
    5d54:	41a00ab3          	neg	s5,s10
    5d58:	031d35b3          	mulhu	a1,s10,a7
    5d5c:	031d0c33          	mul	s8,s10,a7
    5d60:	95ee                	add	a1,a1,s11
    5d62:	01058db3          	add	s11,a1,a6
    5d66:	000a0837          	lui	a6,0xa0
    5d6a:	b6780813          	addi	a6,a6,-1177 # 9fb67 <_data_lma+0x8ac7f>
    5d6e:	96e2                	add	a3,a3,s8
    5d70:	0186bc33          	sltu	s8,a3,s8
    5d74:	030c8533          	mul	a0,s9,a6
    5d78:	9de2                	add	s11,s11,s8
    5d7a:	030d35b3          	mulhu	a1,s10,a6
    5d7e:	030d0c33          	mul	s8,s10,a6
    5d82:	95aa                	add	a1,a1,a0
    5d84:	95fa                	add	a1,a1,t5
    5d86:	fff0c537          	lui	a0,0xfff0c
    5d8a:	65350513          	addi	a0,a0,1619 # fff0c653 <__freertos_irq_stack_top+0xdff04653>
    5d8e:	99e2                	add	s3,s3,s8
    5d90:	0189bc33          	sltu	s8,s3,s8
    5d94:	95e2                	add	a1,a1,s8
    5d96:	d42e                	sw	a1,40(sp)
    5d98:	02ac85b3          	mul	a1,s9,a0
    5d9c:	02ad0c33          	mul	s8,s10,a0
    5da0:	01558f33          	add	t5,a1,s5
    5da4:	02ad35b3          	mulhu	a1,s10,a0
    5da8:	9a62                	add	s4,s4,s8
    5daa:	018a3c33          	sltu	s8,s4,s8
    5dae:	95fa                	add	a1,a1,t5
    5db0:	959e                	add	a1,a1,t2
    5db2:	95e2                	add	a1,a1,s8
    5db4:	d82e                	sw	a1,48(sp)
    5db6:	000215b7          	lui	a1,0x21
    5dba:	5d158593          	addi	a1,a1,1489 # 215d1 <_data_lma+0xc6e9>
    5dbe:	02bd33b3          	mulhu	t2,s10,a1
    5dc2:	02bc8c33          	mul	s8,s9,a1
    5dc6:	02bd0f33          	mul	t5,s10,a1
    5dca:	9c1e                	add	s8,s8,t2
    5dcc:	43c2                	lw	t2,16(sp)
    5dce:	9c1e                	add	s8,s8,t2
    5dd0:	fff593b7          	lui	t2,0xfff59
    5dd4:	08338393          	addi	t2,t2,131 # fff59083 <__freertos_irq_stack_top+0xdff51083>
    5dd8:	9bfa                	add	s7,s7,t5
    5dda:	01ebbf33          	sltu	t5,s7,t5
    5dde:	9f62                	add	t5,t5,s8
    5de0:	da7a                	sw	t5,52(sp)
    5de2:	027c8f33          	mul	t5,s9,t2
    5de6:	9f56                	add	t5,t5,s5
    5de8:	027d0ab3          	mul	s5,s10,t2
    5dec:	027d3d33          	mulhu	s10,s10,t2
    5df0:	9d7a                	add	s10,s10,t5
    5df2:	016a8f33          	add	t5,s5,s6
    5df6:	c87a                	sw	t5,16(sp)
    5df8:	015f3ab3          	sltu	s5,t5,s5
    5dfc:	4f62                	lw	t5,24(sp)
    5dfe:	02690c33          	mul	s8,s2,t1
    5e02:	5b56                	lw	s6,116(sp)
    5e04:	9d7a                	add	s10,s10,t5
    5e06:	01aa8f33          	add	t5,s5,s10
    5e0a:	cc7a                	sw	t5,24(sp)
    5e0c:	02628ab3          	mul	s5,t0,t1
    5e10:	02693f33          	mulhu	t5,s2,t1
    5e14:	9afa                	add	s5,s5,t5
    5e16:	4f52                	lw	t5,20(sp)
    5e18:	9ada                	add	s5,s5,s6
    5e1a:	03190cb3          	mul	s9,s2,a7
    5e1e:	9f62                	add	t5,t5,s8
    5e20:	018f3c33          	sltu	s8,t5,s8
    5e24:	015c0b33          	add	s6,s8,s5
    5e28:	03128ab3          	mul	s5,t0,a7
    5e2c:	9766                	add	a4,a4,s9
    5e2e:	01973cb3          	sltu	s9,a4,s9
    5e32:	03193c33          	mulhu	s8,s2,a7
    5e36:	9c56                	add	s8,s8,s5
    5e38:	5a92                	lw	s5,36(sp)
    5e3a:	03028d33          	mul	s10,t0,a6
    5e3e:	9ae2                	add	s5,s5,s8
    5e40:	9ae6                	add	s5,s5,s9
    5e42:	03093c33          	mulhu	s8,s2,a6
    5e46:	03090cb3          	mul	s9,s2,a6
    5e4a:	9c6a                	add	s8,s8,s10
    5e4c:	9c6e                	add	s8,s8,s11
    5e4e:	41200d33          	neg	s10,s2
    5e52:	96e6                	add	a3,a3,s9
    5e54:	0196bcb3          	sltu	s9,a3,s9
    5e58:	9c66                	add	s8,s8,s9
    5e5a:	ca62                	sw	s8,20(sp)
    5e5c:	02a28c33          	mul	s8,t0,a0
    5e60:	01ac0db3          	add	s11,s8,s10
    5e64:	02a93c33          	mulhu	s8,s2,a0
    5e68:	02a90cb3          	mul	s9,s2,a0
    5e6c:	9c6e                	add	s8,s8,s11
    5e6e:	5da2                	lw	s11,40(sp)
    5e70:	9c6e                	add	s8,s8,s11
    5e72:	99e6                	add	s3,s3,s9
    5e74:	0199bcb3          	sltu	s9,s3,s9
    5e78:	9c66                	add	s8,s8,s9
    5e7a:	02b28db3          	mul	s11,t0,a1
    5e7e:	d462                	sw	s8,40(sp)
    5e80:	02b93c33          	mulhu	s8,s2,a1
    5e84:	02b90cb3          	mul	s9,s2,a1
    5e88:	9c6e                	add	s8,s8,s11
    5e8a:	5dc2                	lw	s11,48(sp)
    5e8c:	9c6e                	add	s8,s8,s11
    5e8e:	9a66                	add	s4,s4,s9
    5e90:	019a3cb3          	sltu	s9,s4,s9
    5e94:	018c8db3          	add	s11,s9,s8
    5e98:	027282b3          	mul	t0,t0,t2
    5e9c:	02790c33          	mul	s8,s2,t2
    5ea0:	9d16                	add	s10,s10,t0
    5ea2:	02793933          	mulhu	s2,s2,t2
    5ea6:	017c02b3          	add	t0,s8,s7
    5eaa:	d216                	sw	t0,36(sp)
    5eac:	0182bc33          	sltu	s8,t0,s8
    5eb0:	52d2                	lw	t0,52(sp)
    5eb2:	9d4a                	add	s10,s10,s2
    5eb4:	9d16                	add	s10,s10,t0
    5eb6:	01ac02b3          	add	t0,s8,s10
    5eba:	d816                	sw	t0,48(sp)
    5ebc:	02648933          	mul	s2,s1,t1
    5ec0:	5c2a                	lw	s8,168(sp)
    5ec2:	026fb2b3          	mulhu	t0,t6,t1
    5ec6:	026f8bb3          	mul	s7,t6,t1
    5eca:	9916                	add	s2,s2,t0
    5ecc:	42f2                	lw	t0,28(sp)
    5ece:	9962                	add	s2,s2,s8
    5ed0:	92de                	add	t0,t0,s7
    5ed2:	0172bbb3          	sltu	s7,t0,s7
    5ed6:	03148cb3          	mul	s9,s1,a7
    5eda:	995e                	add	s2,s2,s7
    5edc:	031f8c33          	mul	s8,t6,a7
    5ee0:	031fbbb3          	mulhu	s7,t6,a7
    5ee4:	9f62                	add	t5,t5,s8
    5ee6:	018f3c33          	sltu	s8,t5,s8
    5eea:	9be6                	add	s7,s7,s9
    5eec:	9b5e                	add	s6,s6,s7
    5eee:	03048cb3          	mul	s9,s1,a6
    5ef2:	9b62                	add	s6,s6,s8
    5ef4:	030fbbb3          	mulhu	s7,t6,a6
    5ef8:	030f8c33          	mul	s8,t6,a6
    5efc:	9be6                	add	s7,s7,s9
    5efe:	9ade                	add	s5,s5,s7
    5f00:	41f00bb3          	neg	s7,t6
    5f04:	4cd2                	lw	s9,20(sp)
    5f06:	9762                	add	a4,a4,s8
    5f08:	01873c33          	sltu	s8,a4,s8
    5f0c:	9ae2                	add	s5,s5,s8
    5f0e:	02a48c33          	mul	s8,s1,a0
    5f12:	da56                	sw	s5,52(sp)
    5f14:	017c0d33          	add	s10,s8,s7
    5f18:	02af8ab3          	mul	s5,t6,a0
    5f1c:	02afbc33          	mulhu	s8,t6,a0
    5f20:	96d6                	add	a3,a3,s5
    5f22:	0156bab3          	sltu	s5,a3,s5
    5f26:	9c6a                	add	s8,s8,s10
    5f28:	019c0d33          	add	s10,s8,s9
    5f2c:	9d56                	add	s10,s10,s5
    5f2e:	02b48cb3          	mul	s9,s1,a1
    5f32:	02bfbab3          	mulhu	s5,t6,a1
    5f36:	02bf8c33          	mul	s8,t6,a1
    5f3a:	9ae6                	add	s5,s5,s9
    5f3c:	5ca2                	lw	s9,40(sp)
    5f3e:	9ae6                	add	s5,s5,s9
    5f40:	40800cb3          	neg	s9,s0
    5f44:	99e2                	add	s3,s3,s8
    5f46:	027484b3          	mul	s1,s1,t2
    5f4a:	0189bc33          	sltu	s8,s3,s8
    5f4e:	9c56                	add	s8,s8,s5
    5f50:	027f8ab3          	mul	s5,t6,t2
    5f54:	9ba6                	add	s7,s7,s1
    5f56:	027fbfb3          	mulhu	t6,t6,t2
    5f5a:	014a84b3          	add	s1,s5,s4
    5f5e:	0154bab3          	sltu	s5,s1,s5
    5f62:	ca26                	sw	s1,20(sp)
    5f64:	9bfe                	add	s7,s7,t6
    5f66:	9bee                	add	s7,s7,s11
    5f68:	017a84b3          	add	s1,s5,s7
    5f6c:	ce26                	sw	s1,28(sp)
    5f6e:	44a2                	lw	s1,8(sp)
    5f70:	02643fb3          	mulhu	t6,s0,t1
    5f74:	5ac6                	lw	s5,112(sp)
    5f76:	026484b3          	mul	s1,s1,t1
    5f7a:	02640a33          	mul	s4,s0,t1
    5f7e:	94fe                	add	s1,s1,t6
    5f80:	5fa6                	lw	t6,104(sp)
    5f82:	94d6                	add	s1,s1,s5
    5f84:	9fd2                	add	t6,t6,s4
    5f86:	014fba33          	sltu	s4,t6,s4
    5f8a:	94d2                	add	s1,s1,s4
    5f8c:	4a22                	lw	s4,8(sp)
    5f8e:	03140ab3          	mul	s5,s0,a7
    5f92:	031a0bb3          	mul	s7,s4,a7
    5f96:	92d6                	add	t0,t0,s5
    5f98:	0152bab3          	sltu	s5,t0,s5
    5f9c:	03143a33          	mulhu	s4,s0,a7
    5fa0:	9a5e                	add	s4,s4,s7
    5fa2:	9952                	add	s2,s2,s4
    5fa4:	4a22                	lw	s4,8(sp)
    5fa6:	9956                	add	s2,s2,s5
    5fa8:	03040ab3          	mul	s5,s0,a6
    5fac:	030a0bb3          	mul	s7,s4,a6
    5fb0:	9f56                	add	t5,t5,s5
    5fb2:	015f3ab3          	sltu	s5,t5,s5
    5fb6:	03043a33          	mulhu	s4,s0,a6
    5fba:	9a5e                	add	s4,s4,s7
    5fbc:	9b52                	add	s6,s6,s4
    5fbe:	4a22                	lw	s4,8(sp)
    5fc0:	9b56                	add	s6,s6,s5
    5fc2:	02aa0ab3          	mul	s5,s4,a0
    5fc6:	019a8bb3          	add	s7,s5,s9
    5fca:	02a43ab3          	mulhu	s5,s0,a0
    5fce:	02a40a33          	mul	s4,s0,a0
    5fd2:	9ade                	add	s5,s5,s7
    5fd4:	5bd2                	lw	s7,52(sp)
    5fd6:	9ade                	add	s5,s5,s7
    5fd8:	9752                	add	a4,a4,s4
    5fda:	01473a33          	sltu	s4,a4,s4
    5fde:	9a56                	add	s4,s4,s5
    5fe0:	4aa2                	lw	s5,8(sp)
    5fe2:	02b40bb3          	mul	s7,s0,a1
    5fe6:	02ba8db3          	mul	s11,s5,a1
    5fea:	96de                	add	a3,a3,s7
    5fec:	0176bbb3          	sltu	s7,a3,s7
    5ff0:	02b43ab3          	mulhu	s5,s0,a1
    5ff4:	9aee                	add	s5,s5,s11
    5ff6:	9aea                	add	s5,s5,s10
    5ff8:	9bd6                	add	s7,s7,s5
    5ffa:	4aa2                	lw	s5,8(sp)
    5ffc:	02740d33          	mul	s10,s0,t2
    6000:	027a8ab3          	mul	s5,s5,t2
    6004:	013d0db3          	add	s11,s10,s3
    6008:	01adbd33          	sltu	s10,s11,s10
    600c:	02743433          	mulhu	s0,s0,t2
    6010:	9cd6                	add	s9,s9,s5
    6012:	9ca2                	add	s9,s9,s0
    6014:	9ce2                	add	s9,s9,s8
    6016:	019d0433          	add	s0,s10,s9
    601a:	c422                	sw	s0,8(sp)
    601c:	4432                	lw	s0,12(sp)
    601e:	026e09b3          	mul	s3,t3,t1
    6022:	02640ab3          	mul	s5,s0,t1
    6026:	026e3433          	mulhu	s0,t3,t1
    602a:	9456                	add	s0,s0,s5
    602c:	5ab6                	lw	s5,108(sp)
    602e:	01598cb3          	add	s9,s3,s5
    6032:	5a9a                	lw	s5,164(sp)
    6034:	013cb9b3          	sltu	s3,s9,s3
    6038:	9456                	add	s0,s0,s5
    603a:	944e                	add	s0,s0,s3
    603c:	49b2                	lw	s3,12(sp)
    603e:	031e0ab3          	mul	s5,t3,a7
    6042:	03198c33          	mul	s8,s3,a7
    6046:	9fd6                	add	t6,t6,s5
    6048:	015fbab3          	sltu	s5,t6,s5
    604c:	031e39b3          	mulhu	s3,t3,a7
    6050:	99e2                	add	s3,s3,s8
    6052:	94ce                	add	s1,s1,s3
    6054:	49b2                	lw	s3,12(sp)
    6056:	94d6                	add	s1,s1,s5
    6058:	030e0ab3          	mul	s5,t3,a6
    605c:	03098c33          	mul	s8,s3,a6
    6060:	92d6                	add	t0,t0,s5
    6062:	0152bab3          	sltu	s5,t0,s5
    6066:	030e39b3          	mulhu	s3,t3,a6
    606a:	99e2                	add	s3,s3,s8
    606c:	994e                	add	s2,s2,s3
    606e:	49b2                	lw	s3,12(sp)
    6070:	9956                	add	s2,s2,s5
    6072:	41c00ab3          	neg	s5,t3
    6076:	02a989b3          	mul	s3,s3,a0
    607a:	01598d33          	add	s10,s3,s5
    607e:	02ae39b3          	mulhu	s3,t3,a0
    6082:	02ae0c33          	mul	s8,t3,a0
    6086:	99ea                	add	s3,s3,s10
    6088:	9b4e                	add	s6,s6,s3
    608a:	49b2                	lw	s3,12(sp)
    608c:	9f62                	add	t5,t5,s8
    608e:	018f3c33          	sltu	s8,t5,s8
    6092:	02b98d33          	mul	s10,s3,a1
    6096:	9b62                	add	s6,s6,s8
    6098:	02be09b3          	mul	s3,t3,a1
    609c:	02be3c33          	mulhu	s8,t3,a1
    60a0:	974e                	add	a4,a4,s3
    60a2:	013739b3          	sltu	s3,a4,s3
    60a6:	9c6a                	add	s8,s8,s10
    60a8:	9a62                	add	s4,s4,s8
    60aa:	9a4e                	add	s4,s4,s3
    60ac:	49b2                	lw	s3,12(sp)
    60ae:	027989b3          	mul	s3,s3,t2
    60b2:	9ace                	add	s5,s5,s3
    60b4:	027e09b3          	mul	s3,t3,t2
    60b8:	027e3e33          	mulhu	t3,t3,t2
    60bc:	96ce                	add	a3,a3,s3
    60be:	0136b9b3          	sltu	s3,a3,s3
    60c2:	9e56                	add	t3,t3,s5
    60c4:	9bf2                	add	s7,s7,t3
    60c6:	4e12                	lw	t3,4(sp)
    60c8:	9bce                	add	s7,s7,s3
    60ca:	026e09b3          	mul	s3,t3,t1
    60ce:	026e8e33          	mul	t3,t4,t1
    60d2:	026eb333          	mulhu	t1,t4,t1
    60d6:	999a                	add	s3,s3,t1
    60d8:	4376                	lw	t1,92(sp)
    60da:	006e0d33          	add	s10,t3,t1
    60de:	437a                	lw	t1,156(sp)
    60e0:	01cd3e33          	sltu	t3,s10,t3
    60e4:	934e                	add	t1,t1,s3
    60e6:	9372                	add	t1,t1,t3
    60e8:	4e12                	lw	t3,4(sp)
    60ea:	031e09b3          	mul	s3,t3,a7
    60ee:	031e8e33          	mul	t3,t4,a7
    60f2:	031eb8b3          	mulhu	a7,t4,a7
    60f6:	9cf2                	add	s9,s9,t3
    60f8:	01ccbe33          	sltu	t3,s9,t3
    60fc:	98ce                	add	a7,a7,s3
    60fe:	9446                	add	s0,s0,a7
    6100:	4892                	lw	a7,4(sp)
    6102:	9472                	add	s0,s0,t3
    6104:	03088e33          	mul	t3,a7,a6
    6108:	030e88b3          	mul	a7,t4,a6
    610c:	030eb833          	mulhu	a6,t4,a6
    6110:	9fc6                	add	t6,t6,a7
    6112:	011fb8b3          	sltu	a7,t6,a7
    6116:	9872                	add	a6,a6,t3
    6118:	94c2                	add	s1,s1,a6
    611a:	00988ab3          	add	s5,a7,s1
    611e:	4492                	lw	s1,4(sp)
    6120:	41d00833          	neg	a6,t4
    6124:	027e8e33          	mul	t3,t4,t2
    6128:	02a488b3          	mul	a7,s1,a0
    612c:	9772                	add	a4,a4,t3
    612e:	01c73e33          	sltu	t3,a4,t3
    6132:	02ae84b3          	mul	s1,t4,a0
    6136:	98c2                	add	a7,a7,a6
    6138:	02aeb533          	mulhu	a0,t4,a0
    613c:	92a6                	add	t0,t0,s1
    613e:	0092b4b3          	sltu	s1,t0,s1
    6142:	9546                	add	a0,a0,a7
    6144:	992a                	add	s2,s2,a0
    6146:	4512                	lw	a0,4(sp)
    6148:	9926                	add	s2,s2,s1
    614a:	00fd04b3          	add	s1,s10,a5
    614e:	02b508b3          	mul	a7,a0,a1
    6152:	02be8533          	mul	a0,t4,a1
    6156:	02beb5b3          	mulhu	a1,t4,a1
    615a:	9f2a                	add	t5,t5,a0
    615c:	00af3533          	sltu	a0,t5,a0
    6160:	95c6                	add	a1,a1,a7
    6162:	9b2e                	add	s6,s6,a1
    6164:	4592                	lw	a1,4(sp)
    6166:	027ebeb3          	mulhu	t4,t4,t2
    616a:	016508b3          	add	a7,a0,s6
    616e:	0154db13          	srli	s6,s1,0x15
    6172:	027585b3          	mul	a1,a1,t2
    6176:	982e                	add	a6,a6,a1
    6178:	01a4b5b3          	sltu	a1,s1,s10
    617c:	959a                	add	a1,a1,t1
    617e:	00b59513          	slli	a0,a1,0xb
    6182:	01656b33          	or	s6,a0,s6
    6186:	8cf1                	and	s1,s1,a2
    6188:	4155d513          	srai	a0,a1,0x15
    618c:	942a                	add	s0,s0,a0
    618e:	409d0533          	sub	a0,s10,s1
    6192:	9876                	add	a6,a6,t4
    6194:	00ad3d33          	sltu	s10,s10,a0
    6198:	40b30333          	sub	t1,t1,a1
    619c:	41a305b3          	sub	a1,t1,s10
    61a0:	9a42                	add	s4,s4,a6
    61a2:	00ff8333          	add	t1,t6,a5
    61a6:	9a72                	add	s4,s4,t3
    61a8:	01f33e33          	sltu	t3,t1,t6
    61ac:	9e56                	add	t3,t3,s5
    61ae:	d42a                	sw	a0,40(sp)
    61b0:	da2e                	sw	a1,52(sp)
    61b2:	00be1513          	slli	a0,t3,0xb
    61b6:	01535593          	srli	a1,t1,0x15
    61ba:	97fa                	add	a5,a5,t5
    61bc:	8dc9                	or	a1,a1,a0
    61be:	00558533          	add	a0,a1,t0
    61c2:	415e5e93          	srai	t4,t3,0x15
    61c6:	00667633          	and	a2,a2,t1
    61ca:	01e7b333          	sltu	t1,a5,t5
    61ce:	9346                	add	t1,t1,a7
    61d0:	00b535b3          	sltu	a1,a0,a1
    61d4:	9976                	add	s2,s2,t4
    61d6:	019b0833          	add	a6,s6,s9
    61da:	012584b3          	add	s1,a1,s2
    61de:	41ca8cb3          	sub	s9,s5,t3
    61e2:	00b31593          	slli	a1,t1,0xb
    61e6:	0157de13          	srli	t3,a5,0x15
    61ea:	01c5ee33          	or	t3,a1,t3
    61ee:	00ee05b3          	add	a1,t3,a4
    61f2:	ffe00737          	lui	a4,0xffe00
    61f6:	001002b7          	lui	t0,0x100
    61fa:	8ff9                	and	a5,a5,a4
    61fc:	01683b33          	sltu	s6,a6,s6
    6200:	9b22                	add	s6,s6,s0
    6202:	40ff0433          	sub	s0,t5,a5
    6206:	005687b3          	add	a5,a3,t0
    620a:	406883b3          	sub	t2,a7,t1
    620e:	00d7b8b3          	sltu	a7,a5,a3
    6212:	98de                	add	a7,a7,s7
    6214:	41535e93          	srai	t4,t1,0x15
    6218:	411b8bb3          	sub	s7,s7,a7
    621c:	00b89313          	slli	t1,a7,0xb
    6220:	4158dd13          	srai	s10,a7,0x15
    6224:	48d2                	lw	a7,20(sp)
    6226:	008f3f33          	sltu	t5,t5,s0
    622a:	41e383b3          	sub	t2,t2,t5
    622e:	00588f33          	add	t5,a7,t0
    6232:	9a76                	add	s4,s4,t4
    6234:	011f3ab3          	sltu	s5,t5,a7
    6238:	0157de93          	srli	t4,a5,0x15
    623c:	48f2                	lw	a7,28(sp)
    623e:	01d36eb3          	or	t4,t1,t4
    6242:	4322                	lw	t1,8(sp)
    6244:	9ac6                	add	s5,s5,a7
    6246:	015f5893          	srli	a7,t5,0x15
    624a:	9d1a                	add	s10,s10,t1
    624c:	00ba9313          	slli	t1,s5,0xb
    6250:	011368b3          	or	a7,t1,a7
    6254:	8ff9                	and	a5,a5,a4
    6256:	5312                	lw	t1,36(sp)
    6258:	40f687b3          	sub	a5,a3,a5
    625c:	00f6b6b3          	sltu	a3,a3,a5
    6260:	40db86b3          	sub	a3,s7,a3
    6264:	00688bb3          	add	s7,a7,t1
    6268:	5342                	lw	t1,48(sp)
    626a:	415adc13          	srai	s8,s5,0x15
    626e:	01e77f33          	and	t5,a4,t5
    6272:	9c1a                	add	s8,s8,t1
    6274:	4352                	lw	t1,20(sp)
    6276:	01c5be33          	sltu	t3,a1,t3
    627a:	9e52                	add	t3,t3,s4
    627c:	41e30f33          	sub	t5,t1,t5
    6280:	01e33a33          	sltu	s4,t1,t5
    6284:	4372                	lw	t1,28(sp)
    6286:	40cf8633          	sub	a2,t6,a2
    628a:	01be89b3          	add	s3,t4,s11
    628e:	41530ab3          	sub	s5,t1,s5
    6292:	4342                	lw	t1,16(sp)
    6294:	00cfbfb3          	sltu	t6,t6,a2
    6298:	41fc8cb3          	sub	s9,s9,t6
    629c:	01d9beb3          	sltu	t4,s3,t4
    62a0:	00530fb3          	add	t6,t1,t0
    62a4:	9eea                	add	t4,t4,s10
    62a6:	006fbd33          	sltu	s10,t6,t1
    62aa:	4362                	lw	t1,24(sp)
    62ac:	414a8db3          	sub	s11,s5,s4
    62b0:	5a02                	lw	s4,32(sp)
    62b2:	9d1a                	add	s10,s10,t1
    62b4:	5ab2                	lw	s5,44(sp)
    62b6:	00bd1313          	slli	t1,s10,0xb
    62ba:	015fd913          	srli	s2,t6,0x15
    62be:	01236933          	or	s2,t1,s2
    62c2:	9a4a                	add	s4,s4,s2
    62c4:	415d5313          	srai	t1,s10,0x15
    62c8:	012a3933          	sltu	s2,s4,s2
    62cc:	9356                	add	t1,t1,s5
    62ce:	00690ab3          	add	s5,s2,t1
    62d2:	4342                	lw	t1,16(sp)
    62d4:	4962                	lw	s2,24(sp)
    62d6:	01f77fb3          	and	t6,a4,t6
    62da:	41f30fb3          	sub	t6,t1,t6
    62de:	41a90d33          	sub	s10,s2,s10
    62e2:	01f33333          	sltu	t1,t1,t6
    62e6:	00580933          	add	s2,a6,t0
    62ea:	406d0333          	sub	t1,s10,t1
    62ee:	01093d33          	sltu	s10,s2,a6
    62f2:	9d5a                	add	s10,s10,s6
    62f4:	c81a                	sw	t1,16(sp)
    62f6:	01595293          	srli	t0,s2,0x15
    62fa:	00bd1313          	slli	t1,s10,0xb
    62fe:	011bb8b3          	sltu	a7,s7,a7
    6302:	005362b3          	or	t0,t1,t0
    6306:	00c28333          	add	t1,t0,a2
    630a:	98e2                	add	a7,a7,s8
    630c:	01277933          	and	s2,a4,s2
    6310:	415d5c13          	srai	s8,s10,0x15
    6314:	005332b3          	sltu	t0,t1,t0
    6318:	9ce2                	add	s9,s9,s8
    631a:	41280933          	sub	s2,a6,s2
    631e:	01928633          	add	a2,t0,s9
    6322:	01283833          	sltu	a6,a6,s2
    6326:	41ab0b33          	sub	s6,s6,s10
    632a:	001002b7          	lui	t0,0x100
    632e:	410b0c33          	sub	s8,s6,a6
    6332:	00550b33          	add	s6,a0,t0
    6336:	00ab3833          	sltu	a6,s6,a0
    633a:	9826                	add	a6,a6,s1
    633c:	8d16                	mv	s10,t0
    633e:	ca32                	sw	a2,20(sp)
    6340:	00b81293          	slli	t0,a6,0xb
    6344:	015b5613          	srli	a2,s6,0x15
    6348:	00c2e633          	or	a2,t0,a2
    634c:	00860cb3          	add	s9,a2,s0
    6350:	41585293          	srai	t0,a6,0x15
    6354:	01677b33          	and	s6,a4,s6
    6358:	9396                	add	t2,t2,t0
    635a:	00ccb633          	sltu	a2,s9,a2
    635e:	41650b33          	sub	s6,a0,s6
    6362:	961e                	add	a2,a2,t2
    6364:	01653533          	sltu	a0,a0,s6
    6368:	410484b3          	sub	s1,s1,a6
    636c:	cc32                	sw	a2,24(sp)
    636e:	40a48633          	sub	a2,s1,a0
    6372:	01a584b3          	add	s1,a1,s10
    6376:	00b4b533          	sltu	a0,s1,a1
    637a:	9572                	add	a0,a0,t3
    637c:	ce32                	sw	a2,28(sp)
    637e:	00b51813          	slli	a6,a0,0xb
    6382:	0154d613          	srli	a2,s1,0x15
    6386:	00c86633          	or	a2,a6,a2
    638a:	97b2                	add	a5,a5,a2
    638c:	41555813          	srai	a6,a0,0x15
    6390:	00c7b633          	sltu	a2,a5,a2
    6394:	96c2                	add	a3,a3,a6
    6396:	96b2                	add	a3,a3,a2
    6398:	8cf9                	and	s1,s1,a4
    639a:	c236                	sw	a3,4(sp)
    639c:	409586b3          	sub	a3,a1,s1
    63a0:	40ae0e33          	sub	t3,t3,a0
    63a4:	00d5b5b3          	sltu	a1,a1,a3
    63a8:	d036                	sw	a3,32(sp)
    63aa:	40be06b3          	sub	a3,t3,a1
    63ae:	01a98e33          	add	t3,s3,s10
    63b2:	013e3633          	sltu	a2,t3,s3
    63b6:	9676                	add	a2,a2,t4
    63b8:	d636                	sw	a3,44(sp)
    63ba:	00b61593          	slli	a1,a2,0xb
    63be:	015e5693          	srli	a3,t3,0x15
    63c2:	8ecd                	or	a3,a3,a1
    63c4:	9f36                	add	t5,t5,a3
    63c6:	41565593          	srai	a1,a2,0x15
    63ca:	01c77e33          	and	t3,a4,t3
    63ce:	41c98e33          	sub	t3,s3,t3
    63d2:	9dae                	add	s11,s11,a1
    63d4:	00df36b3          	sltu	a3,t5,a3
    63d8:	96ee                	add	a3,a3,s11
    63da:	01c9b9b3          	sltu	s3,s3,t3
    63de:	40ce8eb3          	sub	t4,t4,a2
    63e2:	01ab83b3          	add	t2,s7,s10
    63e6:	c436                	sw	a3,8(sp)
    63e8:	413e86b3          	sub	a3,t4,s3
    63ec:	c636                	sw	a3,12(sp)
    63ee:	0173b6b3          	sltu	a3,t2,s7
    63f2:	96c6                	add	a3,a3,a7
    63f4:	0153d413          	srli	s0,t2,0x15
    63f8:	007773b3          	and	t2,a4,t2
    63fc:	407b83b3          	sub	t2,s7,t2
    6400:	00b69613          	slli	a2,a3,0xb
    6404:	8c51                	or	s0,s0,a2
    6406:	40d888b3          	sub	a7,a7,a3
    640a:	4642                	lw	a2,16(sp)
    640c:	007bbbb3          	sltu	s7,s7,t2
    6410:	41788bb3          	sub	s7,a7,s7
    6414:	000a38b7          	lui	a7,0xa3
    6418:	c1388893          	addi	a7,a7,-1005 # a2c13 <_data_lma+0x8dd2b>
    641c:	4156dd13          	srai	s10,a3,0x15
    6420:	9d32                	add	s10,s10,a2
    6422:	031a89b3          	mul	s3,s5,a7
    6426:	00073837          	lui	a6,0x73
    642a:	d1880813          	addi	a6,a6,-744 # 72d18 <_data_lma+0x5de30>
    642e:	9fa2                	add	t6,t6,s0
    6430:	000a0537          	lui	a0,0xa0
    6434:	b6750513          	addi	a0,a0,-1177 # 9fb67 <_data_lma+0x8ac7f>
    6438:	008fb433          	sltu	s0,t6,s0
    643c:	946a                	add	s0,s0,s10
    643e:	fff0c5b7          	lui	a1,0xfff0c
    6442:	65358593          	addi	a1,a1,1619 # fff0c653 <__freertos_irq_stack_top+0xdff04653>
    6446:	031a3633          	mulhu	a2,s4,a7
    644a:	031a06b3          	mul	a3,s4,a7
    644e:	99b2                	add	s3,s3,a2
    6450:	5616                	lw	a2,100(sp)
    6452:	00c68eb3          	add	t4,a3,a2
    6456:	560a                	lw	a2,160(sp)
    6458:	00deb6b3          	sltu	a3,t4,a3
    645c:	02aa8db3          	mul	s11,s5,a0
    6460:	99b2                	add	s3,s3,a2
    6462:	96ce                	add	a3,a3,s3
    6464:	d236                	sw	a3,36(sp)
    6466:	030a3633          	mulhu	a2,s4,a6
    646a:	030a89b3          	mul	s3,s5,a6
    646e:	030a06b3          	mul	a3,s4,a6
    6472:	99b2                	add	s3,s3,a2
    6474:	5622                	lw	a2,40(sp)
    6476:	00c684b3          	add	s1,a3,a2
    647a:	5652                	lw	a2,52(sp)
    647c:	00d4b6b3          	sltu	a3,s1,a3
    6480:	99b2                	add	s3,s3,a2
    6482:	01368d33          	add	s10,a3,s3
    6486:	02aa36b3          	mulhu	a3,s4,a0
    648a:	02aa09b3          	mul	s3,s4,a0
    648e:	96ee                	add	a3,a3,s11
    6490:	9c36                	add	s8,s8,a3
    6492:	02ba86b3          	mul	a3,s5,a1
    6496:	994e                	add	s2,s2,s3
    6498:	013939b3          	sltu	s3,s2,s3
    649c:	01898db3          	add	s11,s3,s8
    64a0:	414009b3          	neg	s3,s4
    64a4:	01368633          	add	a2,a3,s3
    64a8:	02ba0c33          	mul	s8,s4,a1
    64ac:	02ba36b3          	mulhu	a3,s4,a1
    64b0:	96b2                	add	a3,a3,a2
    64b2:	006c0633          	add	a2,s8,t1
    64b6:	4352                	lw	t1,20(sp)
    64b8:	01863c33          	sltu	s8,a2,s8
    64bc:	969a                	add	a3,a3,t1
    64be:	96e2                	add	a3,a3,s8
    64c0:	ca36                	sw	a3,20(sp)
    64c2:	000216b7          	lui	a3,0x21
    64c6:	5d168693          	addi	a3,a3,1489 # 215d1 <_data_lma+0xc6e9>
    64ca:	02da32b3          	mulhu	t0,s4,a3
    64ce:	02da8c33          	mul	s8,s5,a3
    64d2:	02da0333          	mul	t1,s4,a3
    64d6:	9c16                	add	s8,s8,t0
    64d8:	42f2                	lw	t0,28(sp)
    64da:	9c16                	add	s8,s8,t0
    64dc:	9b1a                	add	s6,s6,t1
    64de:	006b3333          	sltu	t1,s6,t1
    64e2:	9362                	add	t1,t1,s8
    64e4:	ce1a                	sw	t1,28(sp)
    64e6:	fff59337          	lui	t1,0xfff59
    64ea:	08330313          	addi	t1,t1,131 # fff59083 <__freertos_irq_stack_top+0xdff51083>
    64ee:	026a82b3          	mul	t0,s5,t1
    64f2:	92ce                	add	t0,t0,s3
    64f4:	026a09b3          	mul	s3,s4,t1
    64f8:	026a3a33          	mulhu	s4,s4,t1
    64fc:	01998ab3          	add	s5,s3,s9
    6500:	c856                	sw	s5,16(sp)
    6502:	013ab9b3          	sltu	s3,s5,s3
    6506:	4ae2                	lw	s5,24(sp)
    6508:	9a16                	add	s4,s4,t0
    650a:	9a56                	add	s4,s4,s5
    650c:	99d2                	add	s3,s3,s4
    650e:	031fb2b3          	mulhu	t0,t6,a7
    6512:	cc4e                	sw	s3,24(sp)
    6514:	4ad6                	lw	s5,84(sp)
    6516:	031f8a33          	mul	s4,t6,a7
    651a:	031409b3          	mul	s3,s0,a7
    651e:	9996                	add	s3,s3,t0
    6520:	015a02b3          	add	t0,s4,s5
    6524:	4ada                	lw	s5,148(sp)
    6526:	0142ba33          	sltu	s4,t0,s4
    652a:	03040c33          	mul	s8,s0,a6
    652e:	99d6                	add	s3,s3,s5
    6530:	013a0ab3          	add	s5,s4,s3
    6534:	030fb9b3          	mulhu	s3,t6,a6
    6538:	030f8a33          	mul	s4,t6,a6
    653c:	99e2                	add	s3,s3,s8
    653e:	5c12                	lw	s8,36(sp)
    6540:	99e2                	add	s3,s3,s8
    6542:	9ed2                	add	t4,t4,s4
    6544:	014eba33          	sltu	s4,t4,s4
    6548:	02a40cb3          	mul	s9,s0,a0
    654c:	9a4e                	add	s4,s4,s3
    654e:	02af8c33          	mul	s8,t6,a0
    6552:	02afb9b3          	mulhu	s3,t6,a0
    6556:	94e2                	add	s1,s1,s8
    6558:	0184bc33          	sltu	s8,s1,s8
    655c:	99e6                	add	s3,s3,s9
    655e:	99ea                	add	s3,s3,s10
    6560:	99e2                	add	s3,s3,s8
    6562:	02b40c33          	mul	s8,s0,a1
    6566:	41f00d33          	neg	s10,t6
    656a:	d44e                	sw	s3,40(sp)
    656c:	01ac09b3          	add	s3,s8,s10
    6570:	02bfbc33          	mulhu	s8,t6,a1
    6574:	02bf8cb3          	mul	s9,t6,a1
    6578:	9c4e                	add	s8,s8,s3
    657a:	01bc09b3          	add	s3,s8,s11
    657e:	9966                	add	s2,s2,s9
    6580:	02d40db3          	mul	s11,s0,a3
    6584:	01993cb3          	sltu	s9,s2,s9
    6588:	99e6                	add	s3,s3,s9
    658a:	02dfbc33          	mulhu	s8,t6,a3
    658e:	02df8cb3          	mul	s9,t6,a3
    6592:	9c6e                	add	s8,s8,s11
    6594:	4dd2                	lw	s11,20(sp)
    6596:	9c6e                	add	s8,s8,s11
    6598:	9666                	add	a2,a2,s9
    659a:	01963cb3          	sltu	s9,a2,s9
    659e:	018c8db3          	add	s11,s9,s8
    65a2:	02640433          	mul	s0,s0,t1
    65a6:	026f8c33          	mul	s8,t6,t1
    65aa:	9d22                	add	s10,s10,s0
    65ac:	026fbfb3          	mulhu	t6,t6,t1
    65b0:	016c0433          	add	s0,s8,s6
    65b4:	d222                	sw	s0,36(sp)
    65b6:	01843c33          	sltu	s8,s0,s8
    65ba:	4472                	lw	s0,28(sp)
    65bc:	9d7e                	add	s10,s10,t6
    65be:	9d22                	add	s10,s10,s0
    65c0:	01ac0433          	add	s0,s8,s10
    65c4:	0313bfb3          	mulhu	t6,t2,a7
    65c8:	d822                	sw	s0,48(sp)
    65ca:	4c6a                	lw	s8,152(sp)
    65cc:	031b8433          	mul	s0,s7,a7
    65d0:	03138b33          	mul	s6,t2,a7
    65d4:	947e                	add	s0,s0,t6
    65d6:	4fe6                	lw	t6,88(sp)
    65d8:	9462                	add	s0,s0,s8
    65da:	9fda                	add	t6,t6,s6
    65dc:	016fbb33          	sltu	s6,t6,s6
    65e0:	030b8cb3          	mul	s9,s7,a6
    65e4:	945a                	add	s0,s0,s6
    65e6:	03038c33          	mul	s8,t2,a6
    65ea:	0303bb33          	mulhu	s6,t2,a6
    65ee:	92e2                	add	t0,t0,s8
    65f0:	0182bc33          	sltu	s8,t0,s8
    65f4:	9b66                	add	s6,s6,s9
    65f6:	9ada                	add	s5,s5,s6
    65f8:	02ab8cb3          	mul	s9,s7,a0
    65fc:	9ae2                	add	s5,s5,s8
    65fe:	02a3bb33          	mulhu	s6,t2,a0
    6602:	02a38c33          	mul	s8,t2,a0
    6606:	9b66                	add	s6,s6,s9
    6608:	9a5a                	add	s4,s4,s6
    660a:	40700b33          	neg	s6,t2
    660e:	9ee2                	add	t4,t4,s8
    6610:	018ebc33          	sltu	s8,t4,s8
    6614:	9a62                	add	s4,s4,s8
    6616:	02bb8c33          	mul	s8,s7,a1
    661a:	da52                	sw	s4,52(sp)
    661c:	016c0d33          	add	s10,s8,s6
    6620:	02b3bc33          	mulhu	s8,t2,a1
    6624:	02b38a33          	mul	s4,t2,a1
    6628:	9c6a                	add	s8,s8,s10
    662a:	5d22                	lw	s10,40(sp)
    662c:	9d62                	add	s10,s10,s8
    662e:	94d2                	add	s1,s1,s4
    6630:	0144ba33          	sltu	s4,s1,s4
    6634:	02db8cb3          	mul	s9,s7,a3
    6638:	9d52                	add	s10,s10,s4
    663a:	02d3ba33          	mulhu	s4,t2,a3
    663e:	026b8bb3          	mul	s7,s7,t1
    6642:	9a66                	add	s4,s4,s9
    6644:	9a4e                	add	s4,s4,s3
    6646:	02d38c33          	mul	s8,t2,a3
    664a:	9b5e                	add	s6,s6,s7
    664c:	026389b3          	mul	s3,t2,t1
    6650:	9962                	add	s2,s2,s8
    6652:	01893c33          	sltu	s8,s2,s8
    6656:	9c52                	add	s8,s8,s4
    6658:	4a3a                	lw	s4,140(sp)
    665a:	0263b3b3          	mulhu	t2,t2,t1
    665e:	964e                	add	a2,a2,s3
    6660:	013639b3          	sltu	s3,a2,s3
    6664:	ca32                	sw	a2,20(sp)
    6666:	9b1e                	add	s6,s6,t2
    6668:	9b6e                	add	s6,s6,s11
    666a:	01698633          	add	a2,s3,s6
    666e:	ce32                	sw	a2,28(sp)
    6670:	4622                	lw	a2,8(sp)
    6672:	031f09b3          	mul	s3,t5,a7
    6676:	031603b3          	mul	t2,a2,a7
    667a:	031f3633          	mulhu	a2,t5,a7
    667e:	93b2                	add	t2,t2,a2
    6680:	4636                	lw	a2,76(sp)
    6682:	93d2                	add	t2,t2,s4
    6684:	964e                	add	a2,a2,s3
    6686:	013639b3          	sltu	s3,a2,s3
    668a:	00798bb3          	add	s7,s3,t2
    668e:	43a2                	lw	t2,8(sp)
    6690:	030f09b3          	mul	s3,t5,a6
    6694:	03038a33          	mul	s4,t2,a6
    6698:	9fce                	add	t6,t6,s3
    669a:	013fb9b3          	sltu	s3,t6,s3
    669e:	030f33b3          	mulhu	t2,t5,a6
    66a2:	93d2                	add	t2,t2,s4
    66a4:	941e                	add	s0,s0,t2
    66a6:	43a2                	lw	t2,8(sp)
    66a8:	944e                	add	s0,s0,s3
    66aa:	02af09b3          	mul	s3,t5,a0
    66ae:	02a38a33          	mul	s4,t2,a0
    66b2:	92ce                	add	t0,t0,s3
    66b4:	0132b9b3          	sltu	s3,t0,s3
    66b8:	02af33b3          	mulhu	t2,t5,a0
    66bc:	93d2                	add	t2,t2,s4
    66be:	9a9e                	add	s5,s5,t2
    66c0:	43a2                	lw	t2,8(sp)
    66c2:	9ace                	add	s5,s5,s3
    66c4:	41e009b3          	neg	s3,t5
    66c8:	02b38a33          	mul	s4,t2,a1
    66cc:	013a0b33          	add	s6,s4,s3
    66d0:	02bf3a33          	mulhu	s4,t5,a1
    66d4:	02bf03b3          	mul	t2,t5,a1
    66d8:	9a5a                	add	s4,s4,s6
    66da:	5b52                	lw	s6,52(sp)
    66dc:	9b52                	add	s6,s6,s4
    66de:	9e9e                	add	t4,t4,t2
    66e0:	007eb3b3          	sltu	t2,t4,t2
    66e4:	9b1e                	add	s6,s6,t2
    66e6:	43a2                	lw	t2,8(sp)
    66e8:	02df3a33          	mulhu	s4,t5,a3
    66ec:	02d38cb3          	mul	s9,t2,a3
    66f0:	02df03b3          	mul	t2,t5,a3
    66f4:	9a66                	add	s4,s4,s9
    66f6:	9a6a                	add	s4,s4,s10
    66f8:	949e                	add	s1,s1,t2
    66fa:	0074b3b3          	sltu	t2,s1,t2
    66fe:	9a1e                	add	s4,s4,t2
    6700:	43a2                	lw	t2,8(sp)
    6702:	026383b3          	mul	t2,t2,t1
    6706:	999e                	add	s3,s3,t2
    6708:	026f03b3          	mul	t2,t5,t1
    670c:	026f3f33          	mulhu	t5,t5,t1
    6710:	01238db3          	add	s11,t2,s2
    6714:	007db3b3          	sltu	t2,s11,t2
    6718:	99fa                	add	s3,s3,t5
    671a:	99e2                	add	s3,s3,s8
    671c:	01338f33          	add	t5,t2,s3
    6720:	d47a                	sw	t5,40(sp)
    6722:	4f32                	lw	t5,12(sp)
    6724:	031e0933          	mul	s2,t3,a7
    6728:	49ca                	lw	s3,144(sp)
    672a:	031f03b3          	mul	t2,t5,a7
    672e:	031e3f33          	mulhu	t5,t3,a7
    6732:	93fa                	add	t2,t2,t5
    6734:	4f46                	lw	t5,80(sp)
    6736:	93ce                	add	t2,t2,s3
    6738:	9f4a                	add	t5,t5,s2
    673a:	012f3933          	sltu	s2,t5,s2
    673e:	007909b3          	add	s3,s2,t2
    6742:	43b2                	lw	t2,12(sp)
    6744:	030e0933          	mul	s2,t3,a6
    6748:	03038c33          	mul	s8,t2,a6
    674c:	964a                	add	a2,a2,s2
    674e:	01263933          	sltu	s2,a2,s2
    6752:	030e33b3          	mulhu	t2,t3,a6
    6756:	93e2                	add	t2,t2,s8
    6758:	9b9e                	add	s7,s7,t2
    675a:	43b2                	lw	t2,12(sp)
    675c:	9bca                	add	s7,s7,s2
    675e:	02ae0933          	mul	s2,t3,a0
    6762:	02a38c33          	mul	s8,t2,a0
    6766:	9fca                	add	t6,t6,s2
    6768:	012fb933          	sltu	s2,t6,s2
    676c:	02ae33b3          	mulhu	t2,t3,a0
    6770:	93e2                	add	t2,t2,s8
    6772:	941e                	add	s0,s0,t2
    6774:	43b2                	lw	t2,12(sp)
    6776:	944a                	add	s0,s0,s2
    6778:	41c00933          	neg	s2,t3
    677c:	02b383b3          	mul	t2,t2,a1
    6780:	01238cb3          	add	s9,t2,s2
    6784:	02be33b3          	mulhu	t2,t3,a1
    6788:	02be0c33          	mul	s8,t3,a1
    678c:	93e6                	add	t2,t2,s9
    678e:	9a9e                	add	s5,s5,t2
    6790:	43b2                	lw	t2,12(sp)
    6792:	02d38cb3          	mul	s9,t2,a3
    6796:	92e2                	add	t0,t0,s8
    6798:	0182bc33          	sltu	s8,t0,s8
    679c:	9ae2                	add	s5,s5,s8
    679e:	02de33b3          	mulhu	t2,t3,a3
    67a2:	02de0c33          	mul	s8,t3,a3
    67a6:	93e6                	add	t2,t2,s9
    67a8:	9b1e                	add	s6,s6,t2
    67aa:	43b2                	lw	t2,12(sp)
    67ac:	9ee2                	add	t4,t4,s8
    67ae:	02638d33          	mul	s10,t2,t1
    67b2:	018ebc33          	sltu	s8,t4,s8
    67b6:	9b62                	add	s6,s6,s8
    67b8:	5386                	lw	t2,96(sp)
    67ba:	026e0c33          	mul	s8,t3,t1
    67be:	996a                	add	s2,s2,s10
    67c0:	026e3e33          	mulhu	t3,t3,t1
    67c4:	94e2                	add	s1,s1,s8
    67c6:	0184bc33          	sltu	s8,s1,s8
    67ca:	9e4a                	add	t3,t3,s2
    67cc:	9a72                	add	s4,s4,t3
    67ce:	4e12                	lw	t3,4(sp)
    67d0:	014c0d33          	add	s10,s8,s4
    67d4:	03178933          	mul	s2,a5,a7
    67d8:	031e0a33          	mul	s4,t3,a7
    67dc:	93ca                	add	t2,t2,s2
    67de:	0123b933          	sltu	s2,t2,s2
    67e2:	0317be33          	mulhu	t3,a5,a7
    67e6:	9e52                	add	t3,t3,s4
    67e8:	4a1a                	lw	s4,132(sp)
    67ea:	9e52                	add	t3,t3,s4
    67ec:	01c90a33          	add	s4,s2,t3
    67f0:	4e12                	lw	t3,4(sp)
    67f2:	03078933          	mul	s2,a5,a6
    67f6:	030e0c33          	mul	s8,t3,a6
    67fa:	9f4a                	add	t5,t5,s2
    67fc:	012f3933          	sltu	s2,t5,s2
    6800:	0307be33          	mulhu	t3,a5,a6
    6804:	9e62                	add	t3,t3,s8
    6806:	99f2                	add	s3,s3,t3
    6808:	4e12                	lw	t3,4(sp)
    680a:	99ca                	add	s3,s3,s2
    680c:	02a78c33          	mul	s8,a5,a0
    6810:	02ae0933          	mul	s2,t3,a0
    6814:	9662                	add	a2,a2,s8
    6816:	01863c33          	sltu	s8,a2,s8
    681a:	02a7be33          	mulhu	t3,a5,a0
    681e:	9e4a                	add	t3,t3,s2
    6820:	9bf2                	add	s7,s7,t3
    6822:	4e12                	lw	t3,4(sp)
    6824:	017c0933          	add	s2,s8,s7
    6828:	40f00bb3          	neg	s7,a5
    682c:	02be0e33          	mul	t3,t3,a1
    6830:	017e0cb3          	add	s9,t3,s7
    6834:	02b7be33          	mulhu	t3,a5,a1
    6838:	02b78c33          	mul	s8,a5,a1
    683c:	9e66                	add	t3,t3,s9
    683e:	9472                	add	s0,s0,t3
    6840:	4e12                	lw	t3,4(sp)
    6842:	9fe2                	add	t6,t6,s8
    6844:	018fbc33          	sltu	s8,t6,s8
    6848:	02de0e33          	mul	t3,t3,a3
    684c:	9462                	add	s0,s0,s8
    684e:	02d7bcb3          	mulhu	s9,a5,a3
    6852:	02d78c33          	mul	s8,a5,a3
    6856:	9cf2                	add	s9,s9,t3
    6858:	9ae6                	add	s5,s5,s9
    685a:	00100cb7          	lui	s9,0x100
    685e:	92e2                	add	t0,t0,s8
    6860:	0182bc33          	sltu	s8,t0,s8
    6864:	015c0e33          	add	t3,s8,s5
    6868:	4a92                	lw	s5,4(sp)
    686a:	026a8ab3          	mul	s5,s5,t1
    686e:	9bd6                	add	s7,s7,s5
    6870:	02678ab3          	mul	s5,a5,t1
    6874:	0267b7b3          	mulhu	a5,a5,t1
    6878:	9ed6                	add	t4,t4,s5
    687a:	015ebab3          	sltu	s5,t4,s5
    687e:	97de                	add	a5,a5,s7
    6880:	9b3e                	add	s6,s6,a5
    6882:	9b56                	add	s6,s6,s5
    6884:	01938ab3          	add	s5,t2,s9
    6888:	007ab7b3          	sltu	a5,s5,t2
    688c:	97d2                	add	a5,a5,s4
    688e:	00b79c13          	slli	s8,a5,0xb
    6892:	015adb93          	srli	s7,s5,0x15
    6896:	017c6bb3          	or	s7,s8,s7
    689a:	9f5e                	add	t5,t5,s7
    689c:	4157dc13          	srai	s8,a5,0x15
    68a0:	99e2                	add	s3,s3,s8
    68a2:	01577ab3          	and	s5,a4,s5
    68a6:	017f3bb3          	sltu	s7,t5,s7
    68aa:	9bce                	add	s7,s7,s3
    68ac:	415389b3          	sub	s3,t2,s5
    68b0:	0133b3b3          	sltu	t2,t2,s3
    68b4:	40fa0a33          	sub	s4,s4,a5
    68b8:	407a07b3          	sub	a5,s4,t2
    68bc:	c44e                	sw	s3,8(sp)
    68be:	89e6                	mv	s3,s9
    68c0:	9cb2                	add	s9,s9,a2
    68c2:	da3e                	sw	a5,52(sp)
    68c4:	00ccb7b3          	sltu	a5,s9,a2
    68c8:	97ca                	add	a5,a5,s2
    68ca:	00b79393          	slli	t2,a5,0xb
    68ce:	015cda93          	srli	s5,s9,0x15
    68d2:	01977cb3          	and	s9,a4,s9
    68d6:	0153eab3          	or	s5,t2,s5
    68da:	41960cb3          	sub	s9,a2,s9
    68de:	9fd6                	add	t6,t6,s5
    68e0:	4157d393          	srai	t2,a5,0x15
    68e4:	01963633          	sltu	a2,a2,s9
    68e8:	40f90933          	sub	s2,s2,a5
    68ec:	01328a33          	add	s4,t0,s3
    68f0:	40c907b3          	sub	a5,s2,a2
    68f4:	941e                	add	s0,s0,t2
    68f6:	015fbab3          	sltu	s5,t6,s5
    68fa:	9aa2                	add	s5,s5,s0
    68fc:	dc3e                	sw	a5,56(sp)
    68fe:	015a5413          	srli	s0,s4,0x15
    6902:	005a37b3          	sltu	a5,s4,t0
    6906:	01477a33          	and	s4,a4,s4
    690a:	97f2                	add	a5,a5,t3
    690c:	41428a33          	sub	s4,t0,s4
    6910:	00b79613          	slli	a2,a5,0xb
    6914:	0142b2b3          	sltu	t0,t0,s4
    6918:	40fe0c33          	sub	s8,t3,a5
    691c:	8c51                	or	s0,s0,a2
    691e:	4157d613          	srai	a2,a5,0x15
    6922:	405c07b3          	sub	a5,s8,t0
    6926:	013482b3          	add	t0,s1,s3
    692a:	9b32                	add	s6,s6,a2
    692c:	0092b633          	sltu	a2,t0,s1
    6930:	966a                	add	a2,a2,s10
    6932:	de3e                	sw	a5,60(sp)
    6934:	00b61e13          	slli	t3,a2,0xb
    6938:	0152d793          	srli	a5,t0,0x15
    693c:	00fe67b3          	or	a5,t3,a5
    6940:	5e22                	lw	t3,40(sp)
    6942:	005772b3          	and	t0,a4,t0
    6946:	01b78933          	add	s2,a5,s11
    694a:	405482b3          	sub	t0,s1,t0
    694e:	41565393          	srai	t2,a2,0x15
    6952:	00f937b3          	sltu	a5,s2,a5
    6956:	93f2                	add	t2,t2,t3
    6958:	0054b4b3          	sltu	s1,s1,t0
    695c:	40cd0d33          	sub	s10,s10,a2
    6960:	00778db3          	add	s11,a5,t2
    6964:	409d07b3          	sub	a5,s10,s1
    6968:	d43e                	sw	a5,40(sp)
    696a:	47d2                	lw	a5,20(sp)
    696c:	9ea2                	add	t4,t4,s0
    696e:	008eb433          	sltu	s0,t4,s0
    6972:	01378e33          	add	t3,a5,s3
    6976:	00fe33b3          	sltu	t2,t3,a5
    697a:	47f2                	lw	a5,28(sp)
    697c:	945a                	add	s0,s0,s6
    697e:	93be                	add	t2,t2,a5
    6980:	00b39613          	slli	a2,t2,0xb
    6984:	015e5793          	srli	a5,t3,0x15
    6988:	8fd1                	or	a5,a5,a2
    698a:	5612                	lw	a2,36(sp)
    698c:	4153dc13          	srai	s8,t2,0x15
    6990:	01c77e33          	and	t3,a4,t3
    6994:	00c78b33          	add	s6,a5,a2
    6998:	5642                	lw	a2,48(sp)
    699a:	00fb37b3          	sltu	a5,s6,a5
    699e:	9c32                	add	s8,s8,a2
    69a0:	97e2                	add	a5,a5,s8
    69a2:	c23e                	sw	a5,4(sp)
    69a4:	47d2                	lw	a5,20(sp)
    69a6:	8c4e                	mv	s8,s3
    69a8:	41c78e33          	sub	t3,a5,t3
    69ac:	01c7b633          	sltu	a2,a5,t3
    69b0:	47f2                	lw	a5,28(sp)
    69b2:	407783b3          	sub	t2,a5,t2
    69b6:	40c387b3          	sub	a5,t2,a2
    69ba:	ca3e                	sw	a5,20(sp)
    69bc:	47c2                	lw	a5,16(sp)
    69be:	01378633          	add	a2,a5,s3
    69c2:	00f639b3          	sltu	s3,a2,a5
    69c6:	47e2                	lw	a5,24(sp)
    69c8:	5482                	lw	s1,32(sp)
    69ca:	01565393          	srli	t2,a2,0x15
    69ce:	99be                	add	s3,s3,a5
    69d0:	5d32                	lw	s10,44(sp)
    69d2:	00b99793          	slli	a5,s3,0xb
    69d6:	0077e3b3          	or	t2,a5,t2
    69da:	949e                	add	s1,s1,t2
    69dc:	4159d793          	srai	a5,s3,0x15
    69e0:	97ea                	add	a5,a5,s10
    69e2:	0074b3b3          	sltu	t2,s1,t2
    69e6:	93be                	add	t2,t2,a5
    69e8:	47c2                	lw	a5,16(sp)
    69ea:	8e79                	and	a2,a2,a4
    69ec:	4d62                	lw	s10,24(sp)
    69ee:	8f91                	sub	a5,a5,a2
    69f0:	c63e                	sw	a5,12(sp)
    69f2:	4632                	lw	a2,12(sp)
    69f4:	47c2                	lw	a5,16(sp)
    69f6:	413d09b3          	sub	s3,s10,s3
    69fa:	00c7b7b3          	sltu	a5,a5,a2
    69fe:	40f987b3          	sub	a5,s3,a5
    6a02:	cc3e                	sw	a5,24(sp)
    6a04:	018f07b3          	add	a5,t5,s8
    6a08:	01e7bc33          	sltu	s8,a5,t5
    6a0c:	9c5e                	add	s8,s8,s7
    6a0e:	5662                	lw	a2,56(sp)
    6a10:	00bc1d13          	slli	s10,s8,0xb
    6a14:	0157d993          	srli	s3,a5,0x15
    6a18:	013d69b3          	or	s3,s10,s3
    6a1c:	9cce                	add	s9,s9,s3
    6a1e:	415c5d13          	srai	s10,s8,0x15
    6a22:	8ff9                	and	a5,a5,a4
    6a24:	013cb9b3          	sltu	s3,s9,s3
    6a28:	9d32                	add	s10,s10,a2
    6a2a:	40ff07b3          	sub	a5,t5,a5
    6a2e:	01a98633          	add	a2,s3,s10
    6a32:	00ff3f33          	sltu	t5,t5,a5
    6a36:	418b8bb3          	sub	s7,s7,s8
    6a3a:	00100d37          	lui	s10,0x100
    6a3e:	ce32                	sw	a2,28(sp)
    6a40:	41eb8633          	sub	a2,s7,t5
    6a44:	01af8f33          	add	t5,t6,s10
    6a48:	01ff3bb3          	sltu	s7,t5,t6
    6a4c:	9bd6                	add	s7,s7,s5
    6a4e:	d032                	sw	a2,32(sp)
    6a50:	00bb9c13          	slli	s8,s7,0xb
    6a54:	5672                	lw	a2,60(sp)
    6a56:	015f5993          	srli	s3,t5,0x15
    6a5a:	013c69b3          	or	s3,s8,s3
    6a5e:	01e77f33          	and	t5,a4,t5
    6a62:	415bdc13          	srai	s8,s7,0x15
    6a66:	9a4e                	add	s4,s4,s3
    6a68:	41ef8f33          	sub	t5,t6,t5
    6a6c:	013a39b3          	sltu	s3,s4,s3
    6a70:	01efbfb3          	sltu	t6,t6,t5
    6a74:	417a8ab3          	sub	s5,s5,s7
    6a78:	9c32                	add	s8,s8,a2
    6a7a:	01898633          	add	a2,s3,s8
    6a7e:	41fa8c33          	sub	s8,s5,t6
    6a82:	01ae8fb3          	add	t6,t4,s10
    6a86:	01dfbab3          	sltu	s5,t6,t4
    6a8a:	9aa2                	add	s5,s5,s0
    6a8c:	00ba9b93          	slli	s7,s5,0xb
    6a90:	015fd993          	srli	s3,t6,0x15
    6a94:	013be9b3          	or	s3,s7,s3
    6a98:	d232                	sw	a2,36(sp)
    6a9a:	00598633          	add	a2,s3,t0
    6a9e:	c832                	sw	a2,16(sp)
    6aa0:	013639b3          	sltu	s3,a2,s3
    6aa4:	5622                	lw	a2,40(sp)
    6aa6:	415add13          	srai	s10,s5,0x15
    6aaa:	01f77fb3          	and	t6,a4,t6
    6aae:	9d32                	add	s10,s10,a2
    6ab0:	41fe8fb3          	sub	t6,t4,t6
    6ab4:	01a98633          	add	a2,s3,s10
    6ab8:	01febeb3          	sltu	t4,t4,t6
    6abc:	41540433          	sub	s0,s0,s5
    6ac0:	00100ab7          	lui	s5,0x100
    6ac4:	d432                	sw	a2,40(sp)
    6ac6:	41d40633          	sub	a2,s0,t4
    6aca:	01590eb3          	add	t4,s2,s5
    6ace:	012eb433          	sltu	s0,t4,s2
    6ad2:	946e                	add	s0,s0,s11
    6ad4:	d632                	sw	a2,44(sp)
    6ad6:	00b41993          	slli	s3,s0,0xb
    6ada:	4652                	lw	a2,20(sp)
    6adc:	015ed293          	srli	t0,t4,0x15
    6ae0:	0059e2b3          	or	t0,s3,t0
    6ae4:	9e16                	add	t3,t3,t0
    6ae6:	41545993          	srai	s3,s0,0x15
    6aea:	01d77eb3          	and	t4,a4,t4
    6aee:	005e32b3          	sltu	t0,t3,t0
    6af2:	99b2                	add	s3,s3,a2
    6af4:	41d90eb3          	sub	t4,s2,t4
    6af8:	01328633          	add	a2,t0,s3
    6afc:	01d93933          	sltu	s2,s2,t4
    6b00:	408d8db3          	sub	s11,s11,s0
    6b04:	ca32                	sw	a2,20(sp)
    6b06:	412d8633          	sub	a2,s11,s2
    6b0a:	d832                	sw	a2,48(sp)
    6b0c:	4612                	lw	a2,4(sp)
    6b0e:	015b02b3          	add	t0,s6,s5
    6b12:	0162b933          	sltu	s2,t0,s6
    6b16:	9932                	add	s2,s2,a2
    6b18:	4632                	lw	a2,12(sp)
    6b1a:	4be2                	lw	s7,24(sp)
    6b1c:	00b91993          	slli	s3,s2,0xb
    6b20:	0152d413          	srli	s0,t0,0x15
    6b24:	0089e433          	or	s0,s3,s0
    6b28:	9622                	add	a2,a2,s0
    6b2a:	41595993          	srai	s3,s2,0x15
    6b2e:	99de                	add	s3,s3,s7
    6b30:	00863433          	sltu	s0,a2,s0
    6b34:	944e                	add	s0,s0,s3
    6b36:	c622                	sw	s0,12(sp)
    6b38:	4412                	lw	s0,4(sp)
    6b3a:	005772b3          	and	t0,a4,t0
    6b3e:	405b0db3          	sub	s11,s6,t0
    6b42:	015489b3          	add	s3,s1,s5
    6b46:	01bb3b33          	sltu	s6,s6,s11
    6b4a:	41240933          	sub	s2,s0,s2
    6b4e:	41690433          	sub	s0,s2,s6
    6b52:	01377733          	and	a4,a4,s3
    6b56:	0099b933          	sltu	s2,s3,s1
    6b5a:	991e                	add	s2,s2,t2
    6b5c:	40e48733          	sub	a4,s1,a4
    6b60:	c222                	sw	s0,4(sp)
    6b62:	412383b3          	sub	t2,t2,s2
    6b66:	00b91413          	slli	s0,s2,0xb
    6b6a:	0159d293          	srli	t0,s3,0x15
    6b6e:	00e4b4b3          	sltu	s1,s1,a4
    6b72:	005462b3          	or	t0,s0,t0
    6b76:	409384b3          	sub	s1,t2,s1
    6b7a:	41595413          	srai	s0,s2,0x15
    6b7e:	cc26                	sw	s1,24(sp)
    6b80:	0312b3b3          	mulhu	t2,t0,a7
    6b84:	59d2                	lw	s3,52(sp)
    6b86:	5a82                	lw	s5,32(sp)
    6b88:	40500b33          	neg	s6,t0
    6b8c:	031404b3          	mul	s1,s0,a7
    6b90:	03128933          	mul	s2,t0,a7
    6b94:	93a6                	add	t2,t2,s1
    6b96:	44a2                	lw	s1,8(sp)
    6b98:	93ce                	add	t2,t2,s3
    6b9a:	94ca                	add	s1,s1,s2
    6b9c:	0124b933          	sltu	s2,s1,s2
    6ba0:	03040bb3          	mul	s7,s0,a6
    6ba4:	93ca                	add	t2,t2,s2
    6ba6:	0302b933          	mulhu	s2,t0,a6
    6baa:	030289b3          	mul	s3,t0,a6
    6bae:	995e                	add	s2,s2,s7
    6bb0:	01590bb3          	add	s7,s2,s5
    6bb4:	02a40d33          	mul	s10,s0,a0
    6bb8:	97ce                	add	a5,a5,s3
    6bba:	0137b9b3          	sltu	s3,a5,s3
    6bbe:	9bce                	add	s7,s7,s3
    6bc0:	49f2                	lw	s3,28(sp)
    6bc2:	02a2b933          	mulhu	s2,t0,a0
    6bc6:	02a28ab3          	mul	s5,t0,a0
    6bca:	996a                	add	s2,s2,s10
    6bcc:	01390d33          	add	s10,s2,s3
    6bd0:	02b409b3          	mul	s3,s0,a1
    6bd4:	9cd6                	add	s9,s9,s5
    6bd6:	015cbab3          	sltu	s5,s9,s5
    6bda:	9d56                	add	s10,s10,s5
    6bdc:	02b28933          	mul	s2,t0,a1
    6be0:	01698ab3          	add	s5,s3,s6
    6be4:	02b2b9b3          	mulhu	s3,t0,a1
    6be8:	9f4a                	add	t5,t5,s2
    6bea:	012f3933          	sltu	s2,t5,s2
    6bee:	99d6                	add	s3,s3,s5
    6bf0:	01898ab3          	add	s5,s3,s8
    6bf4:	9aca                	add	s5,s5,s2
    6bf6:	02d409b3          	mul	s3,s0,a3
    6bfa:	02d2b933          	mulhu	s2,t0,a3
    6bfe:	02d28c33          	mul	s8,t0,a3
    6c02:	994e                	add	s2,s2,s3
    6c04:	5992                	lw	s3,36(sp)
    6c06:	994e                	add	s2,s2,s3
    6c08:	02640433          	mul	s0,s0,t1
    6c0c:	9a62                	add	s4,s4,s8
    6c0e:	018a3c33          	sltu	s8,s4,s8
    6c12:	9c4a                	add	s8,s8,s2
    6c14:	02628933          	mul	s2,t0,t1
    6c18:	9b22                	add	s6,s6,s0
    6c1a:	5432                	lw	s0,44(sp)
    6c1c:	0262b2b3          	mulhu	t0,t0,t1
    6c20:	9fca                	add	t6,t6,s2
    6c22:	012fb933          	sltu	s2,t6,s2
    6c26:	9b16                	add	s6,s6,t0
    6c28:	9b22                	add	s6,s6,s0
    6c2a:	0154d293          	srli	t0,s1,0x15
    6c2e:	00b39413          	slli	s0,t2,0xb
    6c32:	005462b3          	or	t0,s0,t0
    6c36:	9796                	add	a5,a5,t0
    6c38:	4153d393          	srai	t2,t2,0x15
    6c3c:	0057b2b3          	sltu	t0,a5,t0
    6c40:	9b9e                	add	s7,s7,t2
    6c42:	9b96                	add	s7,s7,t0
    6c44:	00bb9413          	slli	s0,s7,0xb
    6c48:	0157d293          	srli	t0,a5,0x15
    6c4c:	005462b3          	or	t0,s0,t0
    6c50:	9c96                	add	s9,s9,t0
    6c52:	415bdb93          	srai	s7,s7,0x15
    6c56:	005cb2b3          	sltu	t0,s9,t0
    6c5a:	9bea                	add	s7,s7,s10
    6c5c:	9b96                	add	s7,s7,t0
    6c5e:	00bb9293          	slli	t0,s7,0xb
    6c62:	015cd413          	srli	s0,s9,0x15
    6c66:	0082e433          	or	s0,t0,s0
    6c6a:	9f22                	add	t5,t5,s0
    6c6c:	415bdb93          	srai	s7,s7,0x15
    6c70:	008f3433          	sltu	s0,t5,s0
    6c74:	9bd6                	add	s7,s7,s5
    6c76:	9ba2                	add	s7,s7,s0
    6c78:	00bb9413          	slli	s0,s7,0xb
    6c7c:	015f5293          	srli	t0,t5,0x15
    6c80:	005462b3          	or	t0,s0,t0
    6c84:	9a16                	add	s4,s4,t0
    6c86:	415bdb93          	srai	s7,s7,0x15
    6c8a:	005a32b3          	sltu	t0,s4,t0
    6c8e:	9be2                	add	s7,s7,s8
    6c90:	9b96                	add	s7,s7,t0
    6c92:	00bb9293          	slli	t0,s7,0xb
    6c96:	015a5413          	srli	s0,s4,0x15
    6c9a:	0082e433          	or	s0,t0,s0
    6c9e:	9b4a                	add	s6,s6,s2
    6ca0:	9fa2                	add	t6,t6,s0
    6ca2:	415bdb93          	srai	s7,s7,0x15
    6ca6:	008fb433          	sltu	s0,t6,s0
    6caa:	9bda                	add	s7,s7,s6
    6cac:	9ba2                	add	s7,s7,s0
    6cae:	4442                	lw	s0,16(sp)
    6cb0:	00bb9293          	slli	t0,s7,0xb
    6cb4:	015fd913          	srli	s2,t6,0x15
    6cb8:	0122e933          	or	s2,t0,s2
    6cbc:	008902b3          	add	t0,s2,s0
    6cc0:	5422                	lw	s0,40(sp)
    6cc2:	415bdb93          	srai	s7,s7,0x15
    6cc6:	0122b933          	sltu	s2,t0,s2
    6cca:	9ba2                	add	s7,s7,s0
    6ccc:	995e                	add	s2,s2,s7
    6cce:	00b91413          	slli	s0,s2,0xb
    6cd2:	0152da93          	srli	s5,t0,0x15
    6cd6:	01546ab3          	or	s5,s0,s5
    6cda:	5442                	lw	s0,48(sp)
    6cdc:	9ed6                	add	t4,t4,s5
    6cde:	41595913          	srai	s2,s2,0x15
    6ce2:	015ebab3          	sltu	s5,t4,s5
    6ce6:	9922                	add	s2,s2,s0
    6ce8:	012a89b3          	add	s3,s5,s2
    6cec:	00b99413          	slli	s0,s3,0xb
    6cf0:	015edb13          	srli	s6,t4,0x15
    6cf4:	01646b33          	or	s6,s0,s6
    6cf8:	4452                	lw	s0,20(sp)
    6cfa:	9e5a                	add	t3,t3,s6
    6cfc:	4159d993          	srai	s3,s3,0x15
    6d00:	99a2                	add	s3,s3,s0
    6d02:	016e3b33          	sltu	s6,t3,s6
    6d06:	9b4e                	add	s6,s6,s3
    6d08:	00bb1913          	slli	s2,s6,0xb
    6d0c:	015e5413          	srli	s0,t3,0x15
    6d10:	00896433          	or	s0,s2,s0
    6d14:	4912                	lw	s2,4(sp)
    6d16:	9da2                	add	s11,s11,s0
    6d18:	415b5b13          	srai	s6,s6,0x15
    6d1c:	008db433          	sltu	s0,s11,s0
    6d20:	9b4a                	add	s6,s6,s2
    6d22:	9b22                	add	s6,s6,s0
    6d24:	00bb1413          	slli	s0,s6,0xb
    6d28:	015dd913          	srli	s2,s11,0x15
    6d2c:	01246933          	or	s2,s0,s2
    6d30:	4432                	lw	s0,12(sp)
    6d32:	964a                	add	a2,a2,s2
    6d34:	415b5993          	srai	s3,s6,0x15
    6d38:	01263933          	sltu	s2,a2,s2
    6d3c:	99a2                	add	s3,s3,s0
    6d3e:	99ca                	add	s3,s3,s2
    6d40:	00b99913          	slli	s2,s3,0xb
    6d44:	01565413          	srli	s0,a2,0x15
    6d48:	00896433          	or	s0,s2,s0
    6d4c:	4962                	lw	s2,24(sp)
    6d4e:	9722                	add	a4,a4,s0
    6d50:	4159d993          	srai	s3,s3,0x15
    6d54:	99ca                	add	s3,s3,s2
    6d56:	00873433          	sltu	s0,a4,s0
    6d5a:	944e                	add	s0,s0,s3
    6d5c:	00b41993          	slli	s3,s0,0xb
    6d60:	01575913          	srli	s2,a4,0x15
    6d64:	0129e933          	or	s2,s3,s2
    6d68:	8455                	srai	s0,s0,0x15
    6d6a:	031909b3          	mul	s3,s2,a7
    6d6e:	002003b7          	lui	t2,0x200
    6d72:	13fd                	addi	t2,t2,-1
    6d74:	0074f4b3          	and	s1,s1,t2
    6d78:	0077f7b3          	and	a5,a5,t2
    6d7c:	007cfcb3          	and	s9,s9,t2
    6d80:	007f7f33          	and	t5,t5,t2
    6d84:	007fffb3          	and	t6,t6,t2
    6d88:	007a7a33          	and	s4,s4,t2
    6d8c:	0072f2b3          	and	t0,t0,t2
    6d90:	03140ab3          	mul	s5,s0,a7
    6d94:	94ce                	add	s1,s1,s3
    6d96:	0134b9b3          	sltu	s3,s1,s3
    6d9a:	007efeb3          	and	t4,t4,t2
    6d9e:	007e7e33          	and	t3,t3,t2
    6da2:	007dfdb3          	and	s11,s11,t2
    6da6:	00767633          	and	a2,a2,t2
    6daa:	00777733          	and	a4,a4,t2
    6dae:	031938b3          	mulhu	a7,s2,a7
    6db2:	98d6                	add	a7,a7,s5
    6db4:	98ce                	add	a7,a7,s3
    6db6:	030909b3          	mul	s3,s2,a6
    6dba:	03040ab3          	mul	s5,s0,a6
    6dbe:	97ce                	add	a5,a5,s3
    6dc0:	0137b9b3          	sltu	s3,a5,s3
    6dc4:	03093833          	mulhu	a6,s2,a6
    6dc8:	9856                	add	a6,a6,s5
    6dca:	984e                	add	a6,a6,s3
    6dcc:	02a40ab3          	mul	s5,s0,a0
    6dd0:	02a909b3          	mul	s3,s2,a0
    6dd4:	02a93533          	mulhu	a0,s2,a0
    6dd8:	9cce                	add	s9,s9,s3
    6dda:	013cb9b3          	sltu	s3,s9,s3
    6dde:	02b90b33          	mul	s6,s2,a1
    6de2:	9556                	add	a0,a0,s5
    6de4:	954e                	add	a0,a0,s3
    6de6:	412009b3          	neg	s3,s2
    6dea:	02b40ab3          	mul	s5,s0,a1
    6dee:	9f5a                	add	t5,t5,s6
    6df0:	02b935b3          	mulhu	a1,s2,a1
    6df4:	9ace                	add	s5,s5,s3
    6df6:	95d6                	add	a1,a1,s5
    6df8:	016f3ab3          	sltu	s5,t5,s6
    6dfc:	9aae                	add	s5,s5,a1
    6dfe:	02d90b33          	mul	s6,s2,a3
    6e02:	02d405b3          	mul	a1,s0,a3
    6e06:	9a5a                	add	s4,s4,s6
    6e08:	016a3b33          	sltu	s6,s4,s6
    6e0c:	02d936b3          	mulhu	a3,s2,a3
    6e10:	02640433          	mul	s0,s0,t1
    6e14:	96ae                	add	a3,a3,a1
    6e16:	96da                	add	a3,a3,s6
    6e18:	026905b3          	mul	a1,s2,t1
    6e1c:	99a2                	add	s3,s3,s0
    6e1e:	00b89413          	slli	s0,a7,0xb
    6e22:	4158d893          	srai	a7,a7,0x15
    6e26:	9846                	add	a6,a6,a7
    6e28:	02693333          	mulhu	t1,s2,t1
    6e2c:	9fae                	add	t6,t6,a1
    6e2e:	00bfb5b3          	sltu	a1,t6,a1
    6e32:	934e                	add	t1,t1,s3
    6e34:	932e                	add	t1,t1,a1
    6e36:	0154d593          	srli	a1,s1,0x15
    6e3a:	8dc1                	or	a1,a1,s0
    6e3c:	97ae                	add	a5,a5,a1
    6e3e:	00b7b5b3          	sltu	a1,a5,a1
    6e42:	982e                	add	a6,a6,a1
    6e44:	00b81893          	slli	a7,a6,0xb
    6e48:	0157d593          	srli	a1,a5,0x15
    6e4c:	00b8e5b3          	or	a1,a7,a1
    6e50:	9cae                	add	s9,s9,a1
    6e52:	41585813          	srai	a6,a6,0x15
    6e56:	00bcb5b3          	sltu	a1,s9,a1
    6e5a:	9542                	add	a0,a0,a6
    6e5c:	952e                	add	a0,a0,a1
    6e5e:	00b51593          	slli	a1,a0,0xb
    6e62:	015cd813          	srli	a6,s9,0x15
    6e66:	0105e833          	or	a6,a1,a6
    6e6a:	9f42                	add	t5,t5,a6
    6e6c:	8555                	srai	a0,a0,0x15
    6e6e:	9aaa                	add	s5,s5,a0
    6e70:	010f3833          	sltu	a6,t5,a6
    6e74:	9856                	add	a6,a6,s5
    6e76:	00b81513          	slli	a0,a6,0xb
    6e7a:	015f5593          	srli	a1,t5,0x15
    6e7e:	8dc9                	or	a1,a1,a0
    6e80:	9a2e                	add	s4,s4,a1
    6e82:	41585813          	srai	a6,a6,0x15
    6e86:	96c2                	add	a3,a3,a6
    6e88:	00ba35b3          	sltu	a1,s4,a1
    6e8c:	95b6                	add	a1,a1,a3
    6e8e:	00b59693          	slli	a3,a1,0xb
    6e92:	015a5513          	srli	a0,s4,0x15
    6e96:	8d55                	or	a0,a0,a3
    6e98:	9faa                	add	t6,t6,a0
    6e9a:	85d5                	srai	a1,a1,0x15
    6e9c:	00afb533          	sltu	a0,t6,a0
    6ea0:	959a                	add	a1,a1,t1
    6ea2:	95aa                	add	a1,a1,a0
    6ea4:	00b59693          	slli	a3,a1,0xb
    6ea8:	015fd513          	srli	a0,t6,0x15
    6eac:	8d55                	or	a0,a0,a3
    6eae:	92aa                	add	t0,t0,a0
    6eb0:	85d5                	srai	a1,a1,0x15
    6eb2:	00a2b533          	sltu	a0,t0,a0
    6eb6:	952e                	add	a0,a0,a1
    6eb8:	00b51593          	slli	a1,a0,0xb
    6ebc:	0152d693          	srli	a3,t0,0x15
    6ec0:	8ecd                	or	a3,a3,a1
    6ec2:	9eb6                	add	t4,t4,a3
    6ec4:	8555                	srai	a0,a0,0x15
    6ec6:	00deb6b3          	sltu	a3,t4,a3
    6eca:	96aa                	add	a3,a3,a0
    6ecc:	00b69513          	slli	a0,a3,0xb
    6ed0:	015ed593          	srli	a1,t4,0x15
    6ed4:	8dc9                	or	a1,a1,a0
    6ed6:	9e2e                	add	t3,t3,a1
    6ed8:	86d5                	srai	a3,a3,0x15
    6eda:	00be35b3          	sltu	a1,t3,a1
    6ede:	95b6                	add	a1,a1,a3
    6ee0:	00b59513          	slli	a0,a1,0xb
    6ee4:	015e5693          	srli	a3,t3,0x15
    6ee8:	8ec9                	or	a3,a3,a0
    6eea:	9db6                	add	s11,s11,a3
    6eec:	85d5                	srai	a1,a1,0x15
    6eee:	00ddb6b3          	sltu	a3,s11,a3
    6ef2:	96ae                	add	a3,a3,a1
    6ef4:	00b69513          	slli	a0,a3,0xb
    6ef8:	015dd593          	srli	a1,s11,0x15
    6efc:	8dc9                	or	a1,a1,a0
    6efe:	962e                	add	a2,a2,a1
    6f00:	00b635b3          	sltu	a1,a2,a1
    6f04:	86d5                	srai	a3,a3,0x15
    6f06:	96ae                	add	a3,a3,a1
    6f08:	06ae                	slli	a3,a3,0xb
    6f0a:	01565593          	srli	a1,a2,0x15
    6f0e:	8dd5                	or	a1,a1,a3
    6f10:	4682                	lw	a3,0(sp)
    6f12:	972e                	add	a4,a4,a1
    6f14:	4582                	lw	a1,0(sp)
    6f16:	0074f4b3          	and	s1,s1,t2
    6f1a:	a284                	sb	s1,0(a3)
    6f1c:	0084d693          	srli	a3,s1,0x8
    6f20:	b194                	sb	a3,1(a1)
    6f22:	040006b7          	lui	a3,0x4000
    6f26:	00579593          	slli	a1,a5,0x5
    6f2a:	1681                	addi	a3,a3,-32
    6f2c:	8df5                	and	a1,a1,a3
    6f2e:	80c1                	srli	s1,s1,0x10
    6f30:	8ccd                	or	s1,s1,a1
    6f32:	4582                	lw	a1,0(sp)
    6f34:	4502                	lw	a0,0(sp)
    6f36:	007e73b3          	and	t2,t3,t2
    6f3a:	a1a4                	sb	s1,2(a1)
    6f3c:	0037d593          	srli	a1,a5,0x3
    6f40:	b12c                	sb	a1,3(a0)
    6f42:	00b7d593          	srli	a1,a5,0xb
    6f46:	a14c                	sb	a1,4(a0)
    6f48:	008005b7          	lui	a1,0x800
    6f4c:	002c9513          	slli	a0,s9,0x2
    6f50:	15f1                	addi	a1,a1,-4
    6f52:	83cd                	srli	a5,a5,0x13
    6f54:	8d6d                	and	a0,a0,a1
    6f56:	8b8d                	andi	a5,a5,3
    6f58:	8fc9                	or	a5,a5,a0
    6f5a:	4502                	lw	a0,0(sp)
    6f5c:	b15c                	sb	a5,5(a0)
    6f5e:	006cd793          	srli	a5,s9,0x6
    6f62:	a17c                	sb	a5,6(a0)
    6f64:	10000537          	lui	a0,0x10000
    6f68:	007f1793          	slli	a5,t5,0x7
    6f6c:	f8050513          	addi	a0,a0,-128 # fffff80 <_data_lma+0xffeb098>
    6f70:	00ecdc93          	srli	s9,s9,0xe
    6f74:	8fe9                	and	a5,a5,a0
    6f76:	07fcfc93          	andi	s9,s9,127
    6f7a:	00fcecb3          	or	s9,s9,a5
    6f7e:	4782                	lw	a5,0(sp)
    6f80:	4502                	lw	a0,0(sp)
    6f82:	019783a3          	sb	s9,7(a5) # 100007 <_data_lma+0xeb11f>
    6f86:	00bf1793          	slli	a5,t5,0xb
    6f8a:	83b1                	srli	a5,a5,0xc
    6f8c:	a51c                	sb	a5,8(a0)
    6f8e:	00bf1793          	slli	a5,t5,0xb
    6f92:	83d1                	srli	a5,a5,0x14
    6f94:	b51c                	sb	a5,9(a0)
    6f96:	02000537          	lui	a0,0x2000
    6f9a:	004a1793          	slli	a5,s4,0x4
    6f9e:	1541                	addi	a0,a0,-16
    6fa0:	011f5f13          	srli	t5,t5,0x11
    6fa4:	8fe9                	and	a5,a5,a0
    6fa6:	00ff7f13          	andi	t5,t5,15
    6faa:	00ff6f33          	or	t5,t5,a5
    6fae:	4782                	lw	a5,0(sp)
    6fb0:	4502                	lw	a0,0(sp)
    6fb2:	01e78523          	sb	t5,10(a5)
    6fb6:	00ba1793          	slli	a5,s4,0xb
    6fba:	83bd                	srli	a5,a5,0xf
    6fbc:	b53c                	sb	a5,11(a0)
    6fbe:	00ca5793          	srli	a5,s4,0xc
    6fc2:	a55c                	sb	a5,12(a0)
    6fc4:	00400537          	lui	a0,0x400
    6fc8:	001f9793          	slli	a5,t6,0x1
    6fcc:	1579                	addi	a0,a0,-2
    6fce:	014a5a13          	srli	s4,s4,0x14
    6fd2:	8fe9                	and	a5,a5,a0
    6fd4:	001a7a13          	andi	s4,s4,1
    6fd8:	00fa6a33          	or	s4,s4,a5
    6fdc:	4782                	lw	a5,0(sp)
    6fde:	014786a3          	sb	s4,13(a5)
    6fe2:	4502                	lw	a0,0(sp)
    6fe4:	00bf9793          	slli	a5,t6,0xb
    6fe8:	83c9                	srli	a5,a5,0x12
    6fea:	a57c                	sb	a5,14(a0)
    6fec:	08000537          	lui	a0,0x8000
    6ff0:	00629793          	slli	a5,t0,0x6
    6ff4:	fc050513          	addi	a0,a0,-64 # 7ffffc0 <_data_lma+0x7feb0d8>
    6ff8:	00ffdf93          	srli	t6,t6,0xf
    6ffc:	8fe9                	and	a5,a5,a0
    6ffe:	03ffff93          	andi	t6,t6,63
    7002:	00ffefb3          	or	t6,t6,a5
    7006:	4782                	lw	a5,0(sp)
    7008:	4502                	lw	a0,0(sp)
    700a:	01f787a3          	sb	t6,15(a5)
    700e:	00b29793          	slli	a5,t0,0xb
    7012:	83b5                	srli	a5,a5,0xd
    7014:	a91c                	sb	a5,16(a0)
    7016:	00a2d793          	srli	a5,t0,0xa
    701a:	b91c                	sb	a5,17(a0)
    701c:	01000537          	lui	a0,0x1000
    7020:	003e9793          	slli	a5,t4,0x3
    7024:	1561                	addi	a0,a0,-8
    7026:	0122d293          	srli	t0,t0,0x12
    702a:	8fe9                	and	a5,a5,a0
    702c:	0072f293          	andi	t0,t0,7
    7030:	00f2e2b3          	or	t0,t0,a5
    7034:	4782                	lw	a5,0(sp)
    7036:	4502                	lw	a0,0(sp)
    7038:	00578923          	sb	t0,18(a5)
    703c:	005ed793          	srli	a5,t4,0x5
    7040:	b93c                	sb	a5,19(a0)
    7042:	0083d793          	srli	a5,t2,0x8
    7046:	a97c                	sb	a5,22(a0)
    7048:	005d9793          	slli	a5,s11,0x5
    704c:	8efd                	and	a3,a3,a5
    704e:	00bd9793          	slli	a5,s11,0xb
    7052:	83b9                	srli	a5,a5,0xe
    7054:	ad1c                	sb	a5,24(a0)
    7056:	00bdd793          	srli	a5,s11,0xb
    705a:	bd1c                	sb	a5,25(a0)
    705c:	00261793          	slli	a5,a2,0x2
    7060:	8dfd                	and	a1,a1,a5
    7062:	00b61793          	slli	a5,a2,0xb
    7066:	83c5                	srli	a5,a5,0x11
    7068:	8239                	srli	a2,a2,0xe
    706a:	bd3c                	sb	a5,27(a0)
    706c:	013ddd93          	srli	s11,s11,0x13
    7070:	00771793          	slli	a5,a4,0x7
    7074:	07f67613          	andi	a2,a2,127
    7078:	00750aa3          	sb	t2,21(a0) # 1000015 <_data_lma+0xfeb12d>
    707c:	8e5d                	or	a2,a2,a5
    707e:	0103d393          	srli	t2,t2,0x10
    7082:	00175793          	srli	a5,a4,0x1
    7086:	003dfd93          	andi	s11,s11,3
    708a:	bd5c                	sb	a5,29(a0)
    708c:	00dede93          	srli	t4,t4,0xd
    7090:	00975793          	srli	a5,a4,0x9
    7094:	0076e3b3          	or	t2,a3,t2
    7098:	00bdedb3          	or	s11,s11,a1
    709c:	8345                	srli	a4,a4,0x11
    709e:	01d50a23          	sb	t4,20(a0)
    70a2:	00750ba3          	sb	t2,23(a0)
    70a6:	01b50d23          	sb	s11,26(a0)
    70aa:	ad50                	sb	a2,28(a0)
    70ac:	ad7c                	sb	a5,30(a0)
    70ae:	bd78                	sb	a4,31(a0)
    70b0:	614d                	addi	sp,sp,176
    70b2:	c70f906f          	j	522 <__riscv_restore_12>

000070b6 <sha512_compress>:
    70b6:	d1010113          	addi	sp,sp,-752
    70ba:	2d912423          	sw	s9,712(sp)
    70be:	2da12223          	sw	s10,708(sp)
    70c2:	00850c93          	addi	s9,a0,8
    70c6:	8d0a                	mv	s10,sp
    70c8:	2db12023          	sw	s11,704(sp)
    70cc:	2e812623          	sw	s0,748(sp)
    70d0:	2e912423          	sw	s1,744(sp)
    70d4:	2f212223          	sw	s2,740(sp)
    70d8:	2f312023          	sw	s3,736(sp)
    70dc:	2d412e23          	sw	s4,732(sp)
    70e0:	2d512c23          	sw	s5,728(sp)
    70e4:	2d612a23          	sw	s6,724(sp)
    70e8:	2d712823          	sw	s7,720(sp)
    70ec:	2d812623          	sw	s8,716(sp)
    70f0:	04850d93          	addi	s11,a0,72
    70f4:	876a                	mv	a4,s10
    70f6:	87e6                	mv	a5,s9
    70f8:	4390                	lw	a2,0(a5)
    70fa:	43d4                	lw	a3,4(a5)
    70fc:	07a1                	addi	a5,a5,8
    70fe:	c310                	sw	a2,0(a4)
    7100:	c354                	sw	a3,4(a4)
    7102:	0721                	addi	a4,a4,8
    7104:	fefd9ae3          	bne	s11,a5,70f8 <sha512_compress+0x42>
    7108:	04010b13          	addi	s6,sp,64
    710c:	08058513          	addi	a0,a1,128 # 800080 <_data_lma+0x7eb198>
    7110:	86da                	mv	a3,s6
    7112:	219c                	lbu	a5,0(a1)
    7114:	3198                	lbu	a4,1(a1)
    7116:	21b0                	lbu	a2,2(a1)
    7118:	07e2                	slli	a5,a5,0x18
    711a:	0742                	slli	a4,a4,0x10
    711c:	8fd9                	or	a5,a5,a4
    711e:	0622                	slli	a2,a2,0x8
    7120:	8fd1                	or	a5,a5,a2
    7122:	21d0                	lbu	a2,4(a1)
    7124:	31f8                	lbu	a4,7(a1)
    7126:	0035c803          	lbu	a6,3(a1)
    712a:	0662                	slli	a2,a2,0x18
    712c:	8f51                	or	a4,a4,a2
    712e:	31d0                	lbu	a2,5(a1)
    7130:	0107e7b3          	or	a5,a5,a6
    7134:	c2dc                	sw	a5,4(a3)
    7136:	0642                	slli	a2,a2,0x10
    7138:	8f51                	or	a4,a4,a2
    713a:	21f0                	lbu	a2,6(a1)
    713c:	05a1                	addi	a1,a1,8
    713e:	06a1                	addi	a3,a3,8
    7140:	0622                	slli	a2,a2,0x8
    7142:	8f51                	or	a4,a4,a2
    7144:	fee6ac23          	sw	a4,-8(a3) # 3fffff8 <_data_lma+0x3feb110>
    7148:	fcb515e3          	bne	a0,a1,7112 <sha512_compress+0x5c>
    714c:	200b0893          	addi	a7,s6,512 # 200200 <_data_lma+0x1eb318>
    7150:	86da                	mv	a3,s6
    7152:	0746a803          	lw	a6,116(a3)
    7156:	5aa8                	lw	a0,112(a3)
    7158:	00c6ae03          	lw	t3,12(a3)
    715c:	00d81713          	slli	a4,a6,0xd
    7160:	01355793          	srli	a5,a0,0x13
    7164:	8f5d                	or	a4,a4,a5
    7166:	00d51593          	slli	a1,a0,0xd
    716a:	01385793          	srli	a5,a6,0x13
    716e:	00381613          	slli	a2,a6,0x3
    7172:	8ddd                	or	a1,a1,a5
    7174:	01d55793          	srli	a5,a0,0x1d
    7178:	8fd1                	or	a5,a5,a2
    717a:	00351e93          	slli	t4,a0,0x3
    717e:	01d85613          	srli	a2,a6,0x1d
    7182:	01d66633          	or	a2,a2,t4
    7186:	8dbd                	xor	a1,a1,a5
    7188:	8119                	srli	a0,a0,0x6
    718a:	01a81793          	slli	a5,a6,0x1a
    718e:	8d5d                	or	a0,a0,a5
    7190:	8f31                	xor	a4,a4,a2
    7192:	46bc                	lw	a5,72(a3)
    7194:	00685813          	srli	a6,a6,0x6
    7198:	4290                	lw	a2,0(a3)
    719a:	8f29                	xor	a4,a4,a0
    719c:	0105c5b3          	xor	a1,a1,a6
    71a0:	46e8                	lw	a0,76(a3)
    71a2:	0046a803          	lw	a6,4(a3)
    71a6:	0086a303          	lw	t1,8(a3)
    71aa:	963e                	add	a2,a2,a5
    71ac:	9542                	add	a0,a0,a6
    71ae:	00f637b3          	sltu	a5,a2,a5
    71b2:	00c70eb3          	add	t4,a4,a2
    71b6:	97aa                	add	a5,a5,a0
    71b8:	95be                	add	a1,a1,a5
    71ba:	00135613          	srli	a2,t1,0x1
    71be:	00eeb733          	sltu	a4,t4,a4
    71c2:	01fe1793          	slli	a5,t3,0x1f
    71c6:	972e                	add	a4,a4,a1
    71c8:	8fd1                	or	a5,a5,a2
    71ca:	001e5513          	srli	a0,t3,0x1
    71ce:	00835593          	srli	a1,t1,0x8
    71d2:	01f31813          	slli	a6,t1,0x1f
    71d6:	018e1613          	slli	a2,t3,0x18
    71da:	8e4d                	or	a2,a2,a1
    71dc:	00a86833          	or	a6,a6,a0
    71e0:	008e5593          	srli	a1,t3,0x8
    71e4:	01831513          	slli	a0,t1,0x18
    71e8:	8d4d                	or	a0,a0,a1
    71ea:	8fb1                	xor	a5,a5,a2
    71ec:	019e1593          	slli	a1,t3,0x19
    71f0:	00735613          	srli	a2,t1,0x7
    71f4:	8e4d                	or	a2,a2,a1
    71f6:	00a84833          	xor	a6,a6,a0
    71fa:	8fb1                	xor	a5,a5,a2
    71fc:	007e5513          	srli	a0,t3,0x7
    7200:	97f6                	add	a5,a5,t4
    7202:	00a84533          	xor	a0,a6,a0
    7206:	01d7b633          	sltu	a2,a5,t4
    720a:	953a                	add	a0,a0,a4
    720c:	00a60733          	add	a4,a2,a0
    7210:	08f6a023          	sw	a5,128(a3)
    7214:	08e6a223          	sw	a4,132(a3)
    7218:	06a1                	addi	a3,a3,8
    721a:	f2d89ce3          	bne	a7,a3,7152 <sha512_compress+0x9c>
    721e:	53e2                	lw	t2,56(sp)
    7220:	5872                	lw	a6,60(sp)
    7222:	5f02                	lw	t5,32(sp)
    7224:	5692                	lw	a3,36(sp)
    7226:	5ec2                	lw	t4,48(sp)
    7228:	54d2                	lw	s1,52(sp)
    722a:	5aa2                	lw	s5,40(sp)
    722c:	5432                	lw	s0,44(sp)
    722e:	4702                	lw	a4,0(sp)
    7230:	4e12                	lw	t3,4(sp)
    7232:	45a2                	lw	a1,8(sp)
    7234:	4332                	lw	t1,12(sp)
    7236:	4642                	lw	a2,16(sp)
    7238:	48d2                	lw	a7,20(sp)
    723a:	47e2                	lw	a5,24(sp)
    723c:	4972                	lw	s2,28(sp)
    723e:	6a55                	lui	s4,0x15
    7240:	a38a0a13          	addi	s4,s4,-1480 # 14a38 <K>
    7244:	01269f93          	slli	t6,a3,0x12
    7248:	00ef5513          	srli	a0,t5,0xe
    724c:	00afe9b3          	or	s3,t6,a0
    7250:	012f1293          	slli	t0,t5,0x12
    7254:	00e6d513          	srli	a0,a3,0xe
    7258:	00a2e2b3          	or	t0,t0,a0
    725c:	00e69f93          	slli	t6,a3,0xe
    7260:	012f5513          	srli	a0,t5,0x12
    7264:	0126db93          	srli	s7,a3,0x12
    7268:	00afefb3          	or	t6,t6,a0
    726c:	00ef1513          	slli	a0,t5,0xe
    7270:	01756533          	or	a0,a0,s7
    7274:	01f9cfb3          	xor	t6,s3,t6
    7278:	00a2c2b3          	xor	t0,t0,a0
    727c:	009f5993          	srli	s3,t5,0x9
    7280:	01769513          	slli	a0,a3,0x17
    7284:	00a9e533          	or	a0,s3,a0
    7288:	017f1b93          	slli	s7,t5,0x17
    728c:	0096d993          	srli	s3,a3,0x9
    7290:	0179e9b3          	or	s3,s3,s7
    7294:	00a2c2b3          	xor	t0,t0,a0
    7298:	000a2b83          	lw	s7,0(s4)
    729c:	000b2503          	lw	a0,0(s6)
    72a0:	013fcfb3          	xor	t6,t6,s3
    72a4:	004b2c03          	lw	s8,4(s6)
    72a8:	004a2983          	lw	s3,4(s4)
    72ac:	955e                	add	a0,a0,s7
    72ae:	01753bb3          	sltu	s7,a0,s7
    72b2:	99e2                	add	s3,s3,s8
    72b4:	9bce                	add	s7,s7,s3
    72b6:	015ec9b3          	xor	s3,t4,s5
    72ba:	957e                	add	a0,a0,t6
    72bc:	9b96                	add	s7,s7,t0
    72be:	01e9f9b3          	and	s3,s3,t5
    72c2:	0084c2b3          	xor	t0,s1,s0
    72c6:	01f53fb3          	sltu	t6,a0,t6
    72ca:	00d2f2b3          	and	t0,t0,a3
    72ce:	01d9c9b3          	xor	s3,s3,t4
    72d2:	0092c2b3          	xor	t0,t0,s1
    72d6:	99aa                	add	s3,s3,a0
    72d8:	9fde                	add	t6,t6,s7
    72da:	00a9b533          	sltu	a0,s3,a0
    72de:	9f96                	add	t6,t6,t0
    72e0:	9faa                	add	t6,t6,a0
    72e2:	00798533          	add	a0,s3,t2
    72e6:	987e                	add	a6,a6,t6
    72e8:	013539b3          	sltu	s3,a0,s3
    72ec:	00a78bb3          	add	s7,a5,a0
    72f0:	99c2                	add	s3,s3,a6
    72f2:	994e                	add	s2,s2,s3
    72f4:	01c75813          	srli	a6,a4,0x1c
    72f8:	00fbb7b3          	sltu	a5,s7,a5
    72fc:	004e1f93          	slli	t6,t3,0x4
    7300:	97ca                	add	a5,a5,s2
    7302:	010fefb3          	or	t6,t6,a6
    7306:	00471913          	slli	s2,a4,0x4
    730a:	01ce5813          	srli	a6,t3,0x1c
    730e:	01096933          	or	s2,s2,a6
    7312:	00275293          	srli	t0,a4,0x2
    7316:	01ee1813          	slli	a6,t3,0x1e
    731a:	0102e2b3          	or	t0,t0,a6
    731e:	01e71393          	slli	t2,a4,0x1e
    7322:	002e5813          	srli	a6,t3,0x2
    7326:	00786833          	or	a6,a6,t2
    732a:	010fcfb3          	xor	t6,t6,a6
    732e:	00594933          	xor	s2,s2,t0
    7332:	019e1813          	slli	a6,t3,0x19
    7336:	00775293          	srli	t0,a4,0x7
    733a:	0102e2b3          	or	t0,t0,a6
    733e:	01971393          	slli	t2,a4,0x19
    7342:	007e5813          	srli	a6,t3,0x7
    7346:	00786833          	or	a6,a6,t2
    734a:	00594933          	xor	s2,s2,t0
    734e:	00b762b3          	or	t0,a4,a1
    7352:	010fcfb3          	xor	t6,t6,a6
    7356:	006e6c33          	or	s8,t3,t1
    735a:	00c2f2b3          	and	t0,t0,a2
    735e:	00b77833          	and	a6,a4,a1
    7362:	011c7c33          	and	s8,s8,a7
    7366:	006e73b3          	and	t2,t3,t1
    736a:	0102e833          	or	a6,t0,a6
    736e:	987e                	add	a6,a6,t6
    7370:	007c63b3          	or	t2,s8,t2
    7374:	93ca                	add	t2,t2,s2
    7376:	01f83fb3          	sltu	t6,a6,t6
    737a:	9542                	add	a0,a0,a6
    737c:	9f9e                	add	t6,t6,t2
    737e:	01053833          	sltu	a6,a0,a6
    7382:	99fe                	add	s3,s3,t6
    7384:	013802b3          	add	t0,a6,s3
    7388:	008b2383          	lw	t2,8(s6)
    738c:	008a2803          	lw	a6,8(s4)
    7390:	00cb2f83          	lw	t6,12(s6)
    7394:	00ca2c03          	lw	s8,12(s4)
    7398:	93c2                	add	t2,t2,a6
    739a:	0103b833          	sltu	a6,t2,a6
    739e:	9c7e                	add	s8,s8,t6
    73a0:	9862                	add	a6,a6,s8
    73a2:	9e9e                	add	t4,t4,t2
    73a4:	007eb3b3          	sltu	t2,t4,t2
    73a8:	015f4fb3          	xor	t6,t5,s5
    73ac:	94c2                	add	s1,s1,a6
    73ae:	949e                	add	s1,s1,t2
    73b0:	017fffb3          	and	t6,t6,s7
    73b4:	0086c3b3          	xor	t2,a3,s0
    73b8:	00f3f3b3          	and	t2,t2,a5
    73bc:	015fcfb3          	xor	t6,t6,s5
    73c0:	0083c3b3          	xor	t2,t2,s0
    73c4:	9ff6                	add	t6,t6,t4
    73c6:	949e                	add	s1,s1,t2
    73c8:	01dfbeb3          	sltu	t4,t6,t4
    73cc:	00ebd813          	srli	a6,s7,0xe
    73d0:	9ea6                	add	t4,t4,s1
    73d2:	01279493          	slli	s1,a5,0x12
    73d6:	0104e933          	or	s2,s1,a6
    73da:	012b9393          	slli	t2,s7,0x12
    73de:	00e7d813          	srli	a6,a5,0xe
    73e2:	0103e3b3          	or	t2,t2,a6
    73e6:	00e79493          	slli	s1,a5,0xe
    73ea:	012bd813          	srli	a6,s7,0x12
    73ee:	0127d993          	srli	s3,a5,0x12
    73f2:	0104e4b3          	or	s1,s1,a6
    73f6:	00eb9813          	slli	a6,s7,0xe
    73fa:	01386833          	or	a6,a6,s3
    73fe:	0103c3b3          	xor	t2,t2,a6
    7402:	009bdc13          	srli	s8,s7,0x9
    7406:	01779813          	slli	a6,a5,0x17
    740a:	010c6c33          	or	s8,s8,a6
    740e:	009944b3          	xor	s1,s2,s1
    7412:	0097d813          	srli	a6,a5,0x9
    7416:	017b9913          	slli	s2,s7,0x17
    741a:	01286833          	or	a6,a6,s2
    741e:	0104c4b3          	xor	s1,s1,a6
    7422:	0183c3b3          	xor	t2,t2,s8
    7426:	94fe                	add	s1,s1,t6
    7428:	9e9e                	add	t4,t4,t2
    742a:	01f4bfb3          	sltu	t6,s1,t6
    742e:	9ff6                	add	t6,t6,t4
    7430:	01c55813          	srli	a6,a0,0x1c
    7434:	00960eb3          	add	t4,a2,s1
    7438:	00429913          	slli	s2,t0,0x4
    743c:	98fe                	add	a7,a7,t6
    743e:	01096933          	or	s2,s2,a6
    7442:	00ceb633          	sltu	a2,t4,a2
    7446:	01c2d813          	srli	a6,t0,0x1c
    744a:	00451393          	slli	t2,a0,0x4
    744e:	9646                	add	a2,a2,a7
    7450:	0103e3b3          	or	t2,t2,a6
    7454:	00255893          	srli	a7,a0,0x2
    7458:	01e29813          	slli	a6,t0,0x1e
    745c:	0108e8b3          	or	a7,a7,a6
    7460:	01e51993          	slli	s3,a0,0x1e
    7464:	0022d813          	srli	a6,t0,0x2
    7468:	01386833          	or	a6,a6,s3
    746c:	01094833          	xor	a6,s2,a6
    7470:	0113c3b3          	xor	t2,t2,a7
    7474:	00755913          	srli	s2,a0,0x7
    7478:	01929893          	slli	a7,t0,0x19
    747c:	01196933          	or	s2,s2,a7
    7480:	01951993          	slli	s3,a0,0x19
    7484:	0072d893          	srli	a7,t0,0x7
    7488:	0138e8b3          	or	a7,a7,s3
    748c:	00a76c33          	or	s8,a4,a0
    7490:	01184833          	xor	a6,a6,a7
    7494:	005e69b3          	or	s3,t3,t0
    7498:	00bc7c33          	and	s8,s8,a1
    749c:	00a778b3          	and	a7,a4,a0
    74a0:	0123c3b3          	xor	t2,t2,s2
    74a4:	0069f9b3          	and	s3,s3,t1
    74a8:	005e7933          	and	s2,t3,t0
    74ac:	011c68b3          	or	a7,s8,a7
    74b0:	98c2                	add	a7,a7,a6
    74b2:	0129e933          	or	s2,s3,s2
    74b6:	991e                	add	s2,s2,t2
    74b8:	0108b833          	sltu	a6,a7,a6
    74bc:	94c6                	add	s1,s1,a7
    74be:	984a                	add	a6,a6,s2
    74c0:	0114bc33          	sltu	s8,s1,a7
    74c4:	9fc2                	add	t6,t6,a6
    74c6:	9c7e                	add	s8,s8,t6
    74c8:	010a2803          	lw	a6,16(s4)
    74cc:	010b2f83          	lw	t6,16(s6)
    74d0:	014b2883          	lw	a7,20(s6)
    74d4:	014a2983          	lw	s3,20(s4)
    74d8:	9fc2                	add	t6,t6,a6
    74da:	010fb833          	sltu	a6,t6,a6
    74de:	99c6                	add	s3,s3,a7
    74e0:	984e                	add	a6,a6,s3
    74e2:	9afe                	add	s5,s5,t6
    74e4:	01fabfb3          	sltu	t6,s5,t6
    74e8:	017f48b3          	xor	a7,t5,s7
    74ec:	9442                	add	s0,s0,a6
    74ee:	947e                	add	s0,s0,t6
    74f0:	01d8f8b3          	and	a7,a7,t4
    74f4:	00f6cfb3          	xor	t6,a3,a5
    74f8:	00cfffb3          	and	t6,t6,a2
    74fc:	01e8c8b3          	xor	a7,a7,t5
    7500:	00dfcfb3          	xor	t6,t6,a3
    7504:	98d6                	add	a7,a7,s5
    7506:	947e                	add	s0,s0,t6
    7508:	0158bab3          	sltu	s5,a7,s5
    750c:	00eed813          	srli	a6,t4,0xe
    7510:	9aa2                	add	s5,s5,s0
    7512:	01261413          	slli	s0,a2,0x12
    7516:	01046433          	or	s0,s0,a6
    751a:	012e9f93          	slli	t6,t4,0x12
    751e:	00e65813          	srli	a6,a2,0xe
    7522:	010fefb3          	or	t6,t6,a6
    7526:	00e61393          	slli	t2,a2,0xe
    752a:	012ed813          	srli	a6,t4,0x12
    752e:	0103e3b3          	or	t2,t2,a6
    7532:	01265913          	srli	s2,a2,0x12
    7536:	00ee9813          	slli	a6,t4,0xe
    753a:	01286833          	or	a6,a6,s2
    753e:	010fcfb3          	xor	t6,t6,a6
    7542:	009ed993          	srli	s3,t4,0x9
    7546:	01761813          	slli	a6,a2,0x17
    754a:	0109e9b3          	or	s3,s3,a6
    754e:	00744433          	xor	s0,s0,t2
    7552:	00965813          	srli	a6,a2,0x9
    7556:	017e9393          	slli	t2,t4,0x17
    755a:	00786833          	or	a6,a6,t2
    755e:	01044433          	xor	s0,s0,a6
    7562:	013fcfb3          	xor	t6,t6,s3
    7566:	9446                	add	s0,s0,a7
    7568:	9afe                	add	s5,s5,t6
    756a:	011438b3          	sltu	a7,s0,a7
    756e:	98d6                	add	a7,a7,s5
    7570:	01c4d813          	srli	a6,s1,0x1c
    7574:	00858ab3          	add	s5,a1,s0
    7578:	004c1393          	slli	t2,s8,0x4
    757c:	9346                	add	t1,t1,a7
    757e:	0103e3b3          	or	t2,t2,a6
    7582:	00bab5b3          	sltu	a1,s5,a1
    7586:	01cc5813          	srli	a6,s8,0x1c
    758a:	00449f93          	slli	t6,s1,0x4
    758e:	959a                	add	a1,a1,t1
    7590:	010fefb3          	or	t6,t6,a6
    7594:	0024d313          	srli	t1,s1,0x2
    7598:	01ec1813          	slli	a6,s8,0x1e
    759c:	01036333          	or	t1,t1,a6
    75a0:	01e49913          	slli	s2,s1,0x1e
    75a4:	002c5813          	srli	a6,s8,0x2
    75a8:	01286833          	or	a6,a6,s2
    75ac:	0103c833          	xor	a6,t2,a6
    75b0:	006fcfb3          	xor	t6,t6,t1
    75b4:	0074d393          	srli	t2,s1,0x7
    75b8:	019c1313          	slli	t1,s8,0x19
    75bc:	0063e3b3          	or	t2,t2,t1
    75c0:	01949913          	slli	s2,s1,0x19
    75c4:	007c5313          	srli	t1,s8,0x7
    75c8:	01236333          	or	t1,t1,s2
    75cc:	009569b3          	or	s3,a0,s1
    75d0:	00684833          	xor	a6,a6,t1
    75d4:	0182e933          	or	s2,t0,s8
    75d8:	00e9f9b3          	and	s3,s3,a4
    75dc:	00957333          	and	t1,a0,s1
    75e0:	007fcfb3          	xor	t6,t6,t2
    75e4:	01c97933          	and	s2,s2,t3
    75e8:	0182f3b3          	and	t2,t0,s8
    75ec:	0069e333          	or	t1,s3,t1
    75f0:	9342                	add	t1,t1,a6
    75f2:	007963b3          	or	t2,s2,t2
    75f6:	93fe                	add	t2,t2,t6
    75f8:	01033833          	sltu	a6,t1,a6
    75fc:	941a                	add	s0,s0,t1
    75fe:	981e                	add	a6,a6,t2
    7600:	006439b3          	sltu	s3,s0,t1
    7604:	98c2                	add	a7,a7,a6
    7606:	018b2303          	lw	t1,24(s6)
    760a:	018a2803          	lw	a6,24(s4)
    760e:	99c6                	add	s3,s3,a7
    7610:	01cb2f83          	lw	t6,28(s6)
    7614:	01ca2883          	lw	a7,28(s4)
    7618:	9342                	add	t1,t1,a6
    761a:	01033833          	sltu	a6,t1,a6
    761e:	98fe                	add	a7,a7,t6
    7620:	9846                	add	a6,a6,a7
    7622:	9f1a                	add	t5,t5,t1
    7624:	006f3333          	sltu	t1,t5,t1
    7628:	01dbc8b3          	xor	a7,s7,t4
    762c:	96c2                	add	a3,a3,a6
    762e:	969a                	add	a3,a3,t1
    7630:	0158f8b3          	and	a7,a7,s5
    7634:	00c7c333          	xor	t1,a5,a2
    7638:	00b37333          	and	t1,t1,a1
    763c:	0178c8b3          	xor	a7,a7,s7
    7640:	00f34333          	xor	t1,t1,a5
    7644:	98fa                	add	a7,a7,t5
    7646:	969a                	add	a3,a3,t1
    7648:	01e8bf33          	sltu	t5,a7,t5
    764c:	9f36                	add	t5,t5,a3
    764e:	01259f93          	slli	t6,a1,0x12
    7652:	00ead693          	srli	a3,s5,0xe
    7656:	00dfefb3          	or	t6,t6,a3
    765a:	012a9313          	slli	t1,s5,0x12
    765e:	00e5d693          	srli	a3,a1,0xe
    7662:	00e59813          	slli	a6,a1,0xe
    7666:	00d36333          	or	t1,t1,a3
    766a:	012ad693          	srli	a3,s5,0x12
    766e:	0125d393          	srli	t2,a1,0x12
    7672:	00d866b3          	or	a3,a6,a3
    7676:	00ea9813          	slli	a6,s5,0xe
    767a:	00786833          	or	a6,a6,t2
    767e:	00dfc6b3          	xor	a3,t6,a3
    7682:	01034333          	xor	t1,t1,a6
    7686:	009adf93          	srli	t6,s5,0x9
    768a:	01759813          	slli	a6,a1,0x17
    768e:	010fefb3          	or	t6,t6,a6
    7692:	017a9393          	slli	t2,s5,0x17
    7696:	0095d813          	srli	a6,a1,0x9
    769a:	00786833          	or	a6,a6,t2
    769e:	0106c6b3          	xor	a3,a3,a6
    76a2:	01f34333          	xor	t1,t1,t6
    76a6:	96c6                	add	a3,a3,a7
    76a8:	9f1a                	add	t5,t5,t1
    76aa:	0116b8b3          	sltu	a7,a3,a7
    76ae:	98fa                	add	a7,a7,t5
    76b0:	00d70f33          	add	t5,a4,a3
    76b4:	9e46                	add	t3,t3,a7
    76b6:	01c45813          	srli	a6,s0,0x1c
    76ba:	00ef3733          	sltu	a4,t5,a4
    76be:	00499f93          	slli	t6,s3,0x4
    76c2:	9772                	add	a4,a4,t3
    76c4:	010fefb3          	or	t6,t6,a6
    76c8:	00441e13          	slli	t3,s0,0x4
    76cc:	01c9d813          	srli	a6,s3,0x1c
    76d0:	010e6e33          	or	t3,t3,a6
    76d4:	00245313          	srli	t1,s0,0x2
    76d8:	01e99813          	slli	a6,s3,0x1e
    76dc:	01036333          	or	t1,t1,a6
    76e0:	01e41393          	slli	t2,s0,0x1e
    76e4:	0029d813          	srli	a6,s3,0x2
    76e8:	00786833          	or	a6,a6,t2
    76ec:	010fc833          	xor	a6,t6,a6
    76f0:	006e4e33          	xor	t3,t3,t1
    76f4:	00745f93          	srli	t6,s0,0x7
    76f8:	01999313          	slli	t1,s3,0x19
    76fc:	006fefb3          	or	t6,t6,t1
    7700:	01941393          	slli	t2,s0,0x19
    7704:	0079d313          	srli	t1,s3,0x7
    7708:	00736333          	or	t1,t1,t2
    770c:	01fe4e33          	xor	t3,t3,t6
    7710:	0084efb3          	or	t6,s1,s0
    7714:	00684833          	xor	a6,a6,t1
    7718:	013c6933          	or	s2,s8,s3
    771c:	00afffb3          	and	t6,t6,a0
    7720:	0084f333          	and	t1,s1,s0
    7724:	00597933          	and	s2,s2,t0
    7728:	013c73b3          	and	t2,s8,s3
    772c:	006fe333          	or	t1,t6,t1
    7730:	9342                	add	t1,t1,a6
    7732:	007963b3          	or	t2,s2,t2
    7736:	93f2                	add	t2,t2,t3
    7738:	01033833          	sltu	a6,t1,a6
    773c:	969a                	add	a3,a3,t1
    773e:	981e                	add	a6,a6,t2
    7740:	0066bfb3          	sltu	t6,a3,t1
    7744:	98c2                	add	a7,a7,a6
    7746:	020b2303          	lw	t1,32(s6)
    774a:	020a2803          	lw	a6,32(s4)
    774e:	9fc6                	add	t6,t6,a7
    7750:	024a2903          	lw	s2,36(s4)
    7754:	024b2883          	lw	a7,36(s6)
    7758:	9342                	add	t1,t1,a6
    775a:	01033833          	sltu	a6,t1,a6
    775e:	9946                	add	s2,s2,a7
    7760:	984a                	add	a6,a6,s2
    7762:	9b9a                	add	s7,s7,t1
    7764:	006bb333          	sltu	t1,s7,t1
    7768:	015ec8b3          	xor	a7,t4,s5
    776c:	97c2                	add	a5,a5,a6
    776e:	979a                	add	a5,a5,t1
    7770:	01e8f8b3          	and	a7,a7,t5
    7774:	00b64333          	xor	t1,a2,a1
    7778:	00e37333          	and	t1,t1,a4
    777c:	01d8c8b3          	xor	a7,a7,t4
    7780:	00c34333          	xor	t1,t1,a2
    7784:	98de                	add	a7,a7,s7
    7786:	979a                	add	a5,a5,t1
    7788:	0178bbb3          	sltu	s7,a7,s7
    778c:	9bbe                	add	s7,s7,a5
    778e:	01271e13          	slli	t3,a4,0x12
    7792:	00ef5793          	srli	a5,t5,0xe
    7796:	00fe6e33          	or	t3,t3,a5
    779a:	012f1313          	slli	t1,t5,0x12
    779e:	00e75793          	srli	a5,a4,0xe
    77a2:	00e71813          	slli	a6,a4,0xe
    77a6:	00f36333          	or	t1,t1,a5
    77aa:	012f5793          	srli	a5,t5,0x12
    77ae:	01275393          	srli	t2,a4,0x12
    77b2:	00f867b3          	or	a5,a6,a5
    77b6:	00ef1813          	slli	a6,t5,0xe
    77ba:	00786833          	or	a6,a6,t2
    77be:	01034333          	xor	t1,t1,a6
    77c2:	009f5913          	srli	s2,t5,0x9
    77c6:	01771813          	slli	a6,a4,0x17
    77ca:	01096933          	or	s2,s2,a6
    77ce:	00fe47b3          	xor	a5,t3,a5
    77d2:	00975813          	srli	a6,a4,0x9
    77d6:	017f1e13          	slli	t3,t5,0x17
    77da:	01c86833          	or	a6,a6,t3
    77de:	0107c7b3          	xor	a5,a5,a6
    77e2:	01234333          	xor	t1,t1,s2
    77e6:	97c6                	add	a5,a5,a7
    77e8:	9b9a                	add	s7,s7,t1
    77ea:	0117b8b3          	sltu	a7,a5,a7
    77ee:	00f503b3          	add	t2,a0,a5
    77f2:	98de                	add	a7,a7,s7
    77f4:	92c6                	add	t0,t0,a7
    77f6:	00a3b833          	sltu	a6,t2,a0
    77fa:	9816                	add	a6,a6,t0
    77fc:	01c6d513          	srli	a0,a3,0x1c
    7800:	004f9293          	slli	t0,t6,0x4
    7804:	00a2e2b3          	or	t0,t0,a0
    7808:	00469e13          	slli	t3,a3,0x4
    780c:	01cfd513          	srli	a0,t6,0x1c
    7810:	00ae6e33          	or	t3,t3,a0
    7814:	0026d313          	srli	t1,a3,0x2
    7818:	01ef9513          	slli	a0,t6,0x1e
    781c:	00a36333          	or	t1,t1,a0
    7820:	01e69913          	slli	s2,a3,0x1e
    7824:	002fd513          	srli	a0,t6,0x2
    7828:	01256533          	or	a0,a0,s2
    782c:	00a2c533          	xor	a0,t0,a0
    7830:	006e4e33          	xor	t3,t3,t1
    7834:	0076d293          	srli	t0,a3,0x7
    7838:	019f9313          	slli	t1,t6,0x19
    783c:	0062e2b3          	or	t0,t0,t1
    7840:	01969913          	slli	s2,a3,0x19
    7844:	007fd313          	srli	t1,t6,0x7
    7848:	01236333          	or	t1,t1,s2
    784c:	00d46933          	or	s2,s0,a3
    7850:	00654533          	xor	a0,a0,t1
    7854:	01f9ebb3          	or	s7,s3,t6
    7858:	00997933          	and	s2,s2,s1
    785c:	00d47333          	and	t1,s0,a3
    7860:	005e4e33          	xor	t3,t3,t0
    7864:	018bfbb3          	and	s7,s7,s8
    7868:	01f9f2b3          	and	t0,s3,t6
    786c:	00696333          	or	t1,s2,t1
    7870:	932a                	add	t1,t1,a0
    7872:	005be2b3          	or	t0,s7,t0
    7876:	92f2                	add	t0,t0,t3
    7878:	00a33533          	sltu	a0,t1,a0
    787c:	979a                	add	a5,a5,t1
    787e:	9516                	add	a0,a0,t0
    7880:	98aa                	add	a7,a7,a0
    7882:	0067b933          	sltu	s2,a5,t1
    7886:	028a2503          	lw	a0,40(s4)
    788a:	028b2e03          	lw	t3,40(s6)
    788e:	9946                	add	s2,s2,a7
    7890:	02cb2303          	lw	t1,44(s6)
    7894:	02ca2883          	lw	a7,44(s4)
    7898:	9e2a                	add	t3,t3,a0
    789a:	00ae3533          	sltu	a0,t3,a0
    789e:	989a                	add	a7,a7,t1
    78a0:	9546                	add	a0,a0,a7
    78a2:	9ef2                	add	t4,t4,t3
    78a4:	01cebe33          	sltu	t3,t4,t3
    78a8:	01eac333          	xor	t1,s5,t5
    78ac:	962a                	add	a2,a2,a0
    78ae:	9672                	add	a2,a2,t3
    78b0:	00737333          	and	t1,t1,t2
    78b4:	00e5ce33          	xor	t3,a1,a4
    78b8:	01534333          	xor	t1,t1,s5
    78bc:	010e7e33          	and	t3,t3,a6
    78c0:	00be4e33          	xor	t3,t3,a1
    78c4:	9376                	add	t1,t1,t4
    78c6:	9672                	add	a2,a2,t3
    78c8:	01d33eb3          	sltu	t4,t1,t4
    78cc:	9eb2                	add	t4,t4,a2
    78ce:	01281e13          	slli	t3,a6,0x12
    78d2:	00e3d613          	srli	a2,t2,0xe
    78d6:	00ce6e33          	or	t3,t3,a2
    78da:	01239893          	slli	a7,t2,0x12
    78de:	00e85613          	srli	a2,a6,0xe
    78e2:	00c8e8b3          	or	a7,a7,a2
    78e6:	00e81513          	slli	a0,a6,0xe
    78ea:	0123d613          	srli	a2,t2,0x12
    78ee:	8e49                	or	a2,a2,a0
    78f0:	01285293          	srli	t0,a6,0x12
    78f4:	00e39513          	slli	a0,t2,0xe
    78f8:	00556533          	or	a0,a0,t0
    78fc:	00ce4633          	xor	a2,t3,a2
    7900:	00a8c8b3          	xor	a7,a7,a0
    7904:	0093de13          	srli	t3,t2,0x9
    7908:	01781513          	slli	a0,a6,0x17
    790c:	00ae6e33          	or	t3,t3,a0
    7910:	01739293          	slli	t0,t2,0x17
    7914:	00985513          	srli	a0,a6,0x9
    7918:	00556533          	or	a0,a0,t0
    791c:	8e29                	xor	a2,a2,a0
    791e:	00491293          	slli	t0,s2,0x4
    7922:	01c7d513          	srli	a0,a5,0x1c
    7926:	01c8c8b3          	xor	a7,a7,t3
    792a:	00a2e2b3          	or	t0,t0,a0
    792e:	00479e13          	slli	t3,a5,0x4
    7932:	01c95513          	srli	a0,s2,0x1c
    7936:	961a                	add	a2,a2,t1
    7938:	9ec6                	add	t4,t4,a7
    793a:	00ae6e33          	or	t3,t3,a0
    793e:	0027d893          	srli	a7,a5,0x2
    7942:	01e91513          	slli	a0,s2,0x1e
    7946:	00a8e8b3          	or	a7,a7,a0
    794a:	00663333          	sltu	t1,a2,t1
    794e:	01e79b93          	slli	s7,a5,0x1e
    7952:	00295513          	srli	a0,s2,0x2
    7956:	9376                	add	t1,t1,t4
    7958:	01756533          	or	a0,a0,s7
    795c:	00c48eb3          	add	t4,s1,a2
    7960:	9c1a                	add	s8,s8,t1
    7962:	00a2c533          	xor	a0,t0,a0
    7966:	011e4e33          	xor	t3,t3,a7
    796a:	0077d293          	srli	t0,a5,0x7
    796e:	009eb4b3          	sltu	s1,t4,s1
    7972:	01991893          	slli	a7,s2,0x19
    7976:	94e2                	add	s1,s1,s8
    7978:	0112e8b3          	or	a7,t0,a7
    797c:	01979b93          	slli	s7,a5,0x19
    7980:	00f6ec33          	or	s8,a3,a5
    7984:	00795293          	srli	t0,s2,0x7
    7988:	0172e2b3          	or	t0,t0,s7
    798c:	011e4e33          	xor	t3,t3,a7
    7990:	012febb3          	or	s7,t6,s2
    7994:	00f6f8b3          	and	a7,a3,a5
    7998:	008c7c33          	and	s8,s8,s0
    799c:	00554533          	xor	a0,a0,t0
    79a0:	013bfbb3          	and	s7,s7,s3
    79a4:	012ff2b3          	and	t0,t6,s2
    79a8:	011c6c33          	or	s8,s8,a7
    79ac:	9c2a                	add	s8,s8,a0
    79ae:	005be2b3          	or	t0,s7,t0
    79b2:	92f2                	add	t0,t0,t3
    79b4:	00ac3533          	sltu	a0,s8,a0
    79b8:	9662                	add	a2,a2,s8
    79ba:	9516                	add	a0,a0,t0
    79bc:	932a                	add	t1,t1,a0
    79be:	018638b3          	sltu	a7,a2,s8
    79c2:	030a2503          	lw	a0,48(s4)
    79c6:	030b2283          	lw	t0,48(s6)
    79ca:	989a                	add	a7,a7,t1
    79cc:	034b2e03          	lw	t3,52(s6)
    79d0:	034a2303          	lw	t1,52(s4)
    79d4:	92aa                	add	t0,t0,a0
    79d6:	00a2b533          	sltu	a0,t0,a0
    79da:	9372                	add	t1,t1,t3
    79dc:	951a                	add	a0,a0,t1
    79de:	9a96                	add	s5,s5,t0
    79e0:	005ab2b3          	sltu	t0,s5,t0
    79e4:	95aa                	add	a1,a1,a0
    79e6:	007f4e33          	xor	t3,t5,t2
    79ea:	9596                	add	a1,a1,t0
    79ec:	01de7e33          	and	t3,t3,t4
    79f0:	010742b3          	xor	t0,a4,a6
    79f4:	01ee4e33          	xor	t3,t3,t5
    79f8:	0092f2b3          	and	t0,t0,s1
    79fc:	00e2c2b3          	xor	t0,t0,a4
    7a00:	9e56                	add	t3,t3,s5
    7a02:	9596                	add	a1,a1,t0
    7a04:	015e3ab3          	sltu	s5,t3,s5
    7a08:	9aae                	add	s5,s5,a1
    7a0a:	01249293          	slli	t0,s1,0x12
    7a0e:	00eed593          	srli	a1,t4,0xe
    7a12:	00b2e2b3          	or	t0,t0,a1
    7a16:	012e9313          	slli	t1,t4,0x12
    7a1a:	00e4d593          	srli	a1,s1,0xe
    7a1e:	00b36333          	or	t1,t1,a1
    7a22:	00e49513          	slli	a0,s1,0xe
    7a26:	012ed593          	srli	a1,t4,0x12
    7a2a:	8dc9                	or	a1,a1,a0
    7a2c:	0124db93          	srli	s7,s1,0x12
    7a30:	00ee9513          	slli	a0,t4,0xe
    7a34:	01756533          	or	a0,a0,s7
    7a38:	00b2c5b3          	xor	a1,t0,a1
    7a3c:	00a34333          	xor	t1,t1,a0
    7a40:	009ed293          	srli	t0,t4,0x9
    7a44:	01749513          	slli	a0,s1,0x17
    7a48:	00a2e2b3          	or	t0,t0,a0
    7a4c:	017e9b93          	slli	s7,t4,0x17
    7a50:	0094d513          	srli	a0,s1,0x9
    7a54:	01756533          	or	a0,a0,s7
    7a58:	8da9                	xor	a1,a1,a0
    7a5a:	00534333          	xor	t1,t1,t0
    7a5e:	95f2                	add	a1,a1,t3
    7a60:	9a9a                	add	s5,s5,t1
    7a62:	01c5be33          	sltu	t3,a1,t3
    7a66:	9e56                	add	t3,t3,s5
    7a68:	00b40ab3          	add	s5,s0,a1
    7a6c:	99f2                	add	s3,s3,t3
    7a6e:	008ab433          	sltu	s0,s5,s0
    7a72:	944e                	add	s0,s0,s3
    7a74:	01c65513          	srli	a0,a2,0x1c
    7a78:	00489993          	slli	s3,a7,0x4
    7a7c:	00a9e9b3          	or	s3,s3,a0
    7a80:	00461293          	slli	t0,a2,0x4
    7a84:	01c8d513          	srli	a0,a7,0x1c
    7a88:	00a2e2b3          	or	t0,t0,a0
    7a8c:	00265313          	srli	t1,a2,0x2
    7a90:	01e89513          	slli	a0,a7,0x1e
    7a94:	00a36333          	or	t1,t1,a0
    7a98:	01e61b93          	slli	s7,a2,0x1e
    7a9c:	0028d513          	srli	a0,a7,0x2
    7aa0:	01756533          	or	a0,a0,s7
    7aa4:	00a9c533          	xor	a0,s3,a0
    7aa8:	0062c2b3          	xor	t0,t0,t1
    7aac:	00765993          	srli	s3,a2,0x7
    7ab0:	01989313          	slli	t1,a7,0x19
    7ab4:	0069e333          	or	t1,s3,t1
    7ab8:	01961b93          	slli	s7,a2,0x19
    7abc:	0078d993          	srli	s3,a7,0x7
    7ac0:	00c7ec33          	or	s8,a5,a2
    7ac4:	0179e9b3          	or	s3,s3,s7
    7ac8:	0062c2b3          	xor	t0,t0,t1
    7acc:	00dc7c33          	and	s8,s8,a3
    7ad0:	00c7f333          	and	t1,a5,a2
    7ad4:	01196bb3          	or	s7,s2,a7
    7ad8:	01354533          	xor	a0,a0,s3
    7adc:	01fbfbb3          	and	s7,s7,t6
    7ae0:	006c6c33          	or	s8,s8,t1
    7ae4:	011979b3          	and	s3,s2,a7
    7ae8:	9c2a                	add	s8,s8,a0
    7aea:	013be9b3          	or	s3,s7,s3
    7aee:	9996                	add	s3,s3,t0
    7af0:	00ac3533          	sltu	a0,s8,a0
    7af4:	95e2                	add	a1,a1,s8
    7af6:	954e                	add	a0,a0,s3
    7af8:	9e2a                	add	t3,t3,a0
    7afa:	0185b333          	sltu	t1,a1,s8
    7afe:	038a2503          	lw	a0,56(s4)
    7b02:	038b2983          	lw	s3,56(s6)
    7b06:	9372                	add	t1,t1,t3
    7b08:	03cb2283          	lw	t0,60(s6)
    7b0c:	03ca2e03          	lw	t3,60(s4)
    7b10:	99aa                	add	s3,s3,a0
    7b12:	00a9b533          	sltu	a0,s3,a0
    7b16:	9e16                	add	t3,t3,t0
    7b18:	9572                	add	a0,a0,t3
    7b1a:	9f4e                	add	t5,t5,s3
    7b1c:	013f39b3          	sltu	s3,t5,s3
    7b20:	972a                	add	a4,a4,a0
    7b22:	01d3c2b3          	xor	t0,t2,t4
    7b26:	974e                	add	a4,a4,s3
    7b28:	0152f2b3          	and	t0,t0,s5
    7b2c:	009849b3          	xor	s3,a6,s1
    7b30:	0089f9b3          	and	s3,s3,s0
    7b34:	0072c2b3          	xor	t0,t0,t2
    7b38:	92fa                	add	t0,t0,t5
    7b3a:	0109c9b3          	xor	s3,s3,a6
    7b3e:	974e                	add	a4,a4,s3
    7b40:	01e2bf33          	sltu	t5,t0,t5
    7b44:	9f3a                	add	t5,t5,a4
    7b46:	01241993          	slli	s3,s0,0x12
    7b4a:	00ead713          	srli	a4,s5,0xe
    7b4e:	00e9e9b3          	or	s3,s3,a4
    7b52:	012a9e13          	slli	t3,s5,0x12
    7b56:	00e45713          	srli	a4,s0,0xe
    7b5a:	00ee6e33          	or	t3,t3,a4
    7b5e:	00e41513          	slli	a0,s0,0xe
    7b62:	012ad713          	srli	a4,s5,0x12
    7b66:	8f49                	or	a4,a4,a0
    7b68:	01245b93          	srli	s7,s0,0x12
    7b6c:	00ea9513          	slli	a0,s5,0xe
    7b70:	01756533          	or	a0,a0,s7
    7b74:	00e9c733          	xor	a4,s3,a4
    7b78:	00ae4e33          	xor	t3,t3,a0
    7b7c:	009ad993          	srli	s3,s5,0x9
    7b80:	01741513          	slli	a0,s0,0x17
    7b84:	00a9e9b3          	or	s3,s3,a0
    7b88:	017a9b93          	slli	s7,s5,0x17
    7b8c:	00945513          	srli	a0,s0,0x9
    7b90:	01756533          	or	a0,a0,s7
    7b94:	8f29                	xor	a4,a4,a0
    7b96:	013e4e33          	xor	t3,t3,s3
    7b9a:	9716                	add	a4,a4,t0
    7b9c:	9f72                	add	t5,t5,t3
    7b9e:	005732b3          	sltu	t0,a4,t0
    7ba2:	92fa                	add	t0,t0,t5
    7ba4:	00e68f33          	add	t5,a3,a4
    7ba8:	9f96                	add	t6,t6,t0
    7baa:	01c5d513          	srli	a0,a1,0x1c
    7bae:	00df36b3          	sltu	a3,t5,a3
    7bb2:	00431993          	slli	s3,t1,0x4
    7bb6:	00a9e9b3          	or	s3,s3,a0
    7bba:	96fe                	add	a3,a3,t6
    7bbc:	01c35513          	srli	a0,t1,0x1c
    7bc0:	00459f93          	slli	t6,a1,0x4
    7bc4:	00afefb3          	or	t6,t6,a0
    7bc8:	0025de13          	srli	t3,a1,0x2
    7bcc:	01e31513          	slli	a0,t1,0x1e
    7bd0:	00ae6e33          	or	t3,t3,a0
    7bd4:	01e59b93          	slli	s7,a1,0x1e
    7bd8:	00235513          	srli	a0,t1,0x2
    7bdc:	01756533          	or	a0,a0,s7
    7be0:	00a9c533          	xor	a0,s3,a0
    7be4:	01cfcfb3          	xor	t6,t6,t3
    7be8:	0075d993          	srli	s3,a1,0x7
    7bec:	01931e13          	slli	t3,t1,0x19
    7bf0:	01c9ee33          	or	t3,s3,t3
    7bf4:	01959b93          	slli	s7,a1,0x19
    7bf8:	00735993          	srli	s3,t1,0x7
    7bfc:	00b66c33          	or	s8,a2,a1
    7c00:	0179e9b3          	or	s3,s3,s7
    7c04:	01cfcfb3          	xor	t6,t6,t3
    7c08:	0068ebb3          	or	s7,a7,t1
    7c0c:	00b67e33          	and	t3,a2,a1
    7c10:	00fc7c33          	and	s8,s8,a5
    7c14:	01354533          	xor	a0,a0,s3
    7c18:	01cc6c33          	or	s8,s8,t3
    7c1c:	012bfbb3          	and	s7,s7,s2
    7c20:	0068f9b3          	and	s3,a7,t1
    7c24:	9c2a                	add	s8,s8,a0
    7c26:	013be9b3          	or	s3,s7,s3
    7c2a:	00ac3533          	sltu	a0,s8,a0
    7c2e:	99fe                	add	s3,s3,t6
    7c30:	954e                	add	a0,a0,s3
    7c32:	92aa                	add	t0,t0,a0
    7c34:	9762                	add	a4,a4,s8
    7c36:	6555                	lui	a0,0x15
    7c38:	01873e33          	sltu	t3,a4,s8
    7c3c:	040a0a13          	addi	s4,s4,64
    7c40:	cb850513          	addi	a0,a0,-840 # 14cb8 <K+0x280>
    7c44:	9e16                	add	t3,t3,t0
    7c46:	040b0b13          	addi	s6,s6,64
    7c4a:	df451d63          	bne	a0,s4,7244 <sha512_compress+0x18e>
    7c4e:	dc1e                	sw	t2,56(sp)
    7c50:	de42                	sw	a6,60(sp)
    7c52:	d07a                	sw	t5,32(sp)
    7c54:	d236                	sw	a3,36(sp)
    7c56:	d876                	sw	t4,48(sp)
    7c58:	da26                	sw	s1,52(sp)
    7c5a:	d456                	sw	s5,40(sp)
    7c5c:	d622                	sw	s0,44(sp)
    7c5e:	c03a                	sw	a4,0(sp)
    7c60:	c272                	sw	t3,4(sp)
    7c62:	c42e                	sw	a1,8(sp)
    7c64:	c61a                	sw	t1,12(sp)
    7c66:	c832                	sw	a2,16(sp)
    7c68:	ca46                	sw	a7,20(sp)
    7c6a:	cc3e                	sw	a5,24(sp)
    7c6c:	ce4a                	sw	s2,28(sp)
    7c6e:	000ca783          	lw	a5,0(s9) # 100000 <_data_lma+0xeb118>
    7c72:	000d2703          	lw	a4,0(s10) # 100000 <_data_lma+0xeb118>
    7c76:	004ca683          	lw	a3,4(s9)
    7c7a:	004d2603          	lw	a2,4(s10)
    7c7e:	973e                	add	a4,a4,a5
    7c80:	00f737b3          	sltu	a5,a4,a5
    7c84:	96b2                	add	a3,a3,a2
    7c86:	97b6                	add	a5,a5,a3
    7c88:	00eca023          	sw	a4,0(s9)
    7c8c:	00fca223          	sw	a5,4(s9)
    7c90:	0ca1                	addi	s9,s9,8
    7c92:	0d21                	addi	s10,s10,8
    7c94:	fd9d9de3          	bne	s11,s9,7c6e <sha512_compress+0xbb8>
    7c98:	2ec12403          	lw	s0,748(sp)
    7c9c:	2e812483          	lw	s1,744(sp)
    7ca0:	2e412903          	lw	s2,740(sp)
    7ca4:	2e012983          	lw	s3,736(sp)
    7ca8:	2dc12a03          	lw	s4,732(sp)
    7cac:	2d812a83          	lw	s5,728(sp)
    7cb0:	2d412b03          	lw	s6,724(sp)
    7cb4:	2d012b83          	lw	s7,720(sp)
    7cb8:	2cc12c03          	lw	s8,716(sp)
    7cbc:	2c812c83          	lw	s9,712(sp)
    7cc0:	2c412d03          	lw	s10,708(sp)
    7cc4:	2c012d83          	lw	s11,704(sp)
    7cc8:	4501                	li	a0,0
    7cca:	2f010113          	addi	sp,sp,752
    7cce:	8082                	ret

00007cd0 <sha512_init>:
    7cd0:	c951                	beqz	a0,7d64 <sha512_init+0x94>
    7cd2:	4781                	li	a5,0
    7cd4:	c11c                	sw	a5,0(a0)
    7cd6:	000157b7          	lui	a5,0x15
    7cda:	cb87a703          	lw	a4,-840(a5) # 14cb8 <K+0x280>
    7cde:	cbc7a783          	lw	a5,-836(a5)
    7ce2:	4801                	li	a6,0
    7ce4:	c518                	sw	a4,8(a0)
    7ce6:	c55c                	sw	a5,12(a0)
    7ce8:	000157b7          	lui	a5,0x15
    7cec:	cc07a703          	lw	a4,-832(a5) # 14cc0 <K+0x288>
    7cf0:	cc47a783          	lw	a5,-828(a5)
    7cf4:	01052223          	sw	a6,4(a0)
    7cf8:	c918                	sw	a4,16(a0)
    7cfa:	c95c                	sw	a5,20(a0)
    7cfc:	000157b7          	lui	a5,0x15
    7d00:	cc87a703          	lw	a4,-824(a5) # 14cc8 <K+0x290>
    7d04:	ccc7a783          	lw	a5,-820(a5)
    7d08:	04052423          	sw	zero,72(a0)
    7d0c:	cd18                	sw	a4,24(a0)
    7d0e:	cd5c                	sw	a5,28(a0)
    7d10:	000157b7          	lui	a5,0x15
    7d14:	cd07a703          	lw	a4,-816(a5) # 14cd0 <K+0x298>
    7d18:	cd47a783          	lw	a5,-812(a5)
    7d1c:	d118                	sw	a4,32(a0)
    7d1e:	d15c                	sw	a5,36(a0)
    7d20:	000157b7          	lui	a5,0x15
    7d24:	cd87a703          	lw	a4,-808(a5) # 14cd8 <K+0x2a0>
    7d28:	cdc7a783          	lw	a5,-804(a5)
    7d2c:	d518                	sw	a4,40(a0)
    7d2e:	d55c                	sw	a5,44(a0)
    7d30:	000157b7          	lui	a5,0x15
    7d34:	ce07a703          	lw	a4,-800(a5) # 14ce0 <K+0x2a8>
    7d38:	ce47a783          	lw	a5,-796(a5)
    7d3c:	d918                	sw	a4,48(a0)
    7d3e:	d95c                	sw	a5,52(a0)
    7d40:	000157b7          	lui	a5,0x15
    7d44:	ce87a703          	lw	a4,-792(a5) # 14ce8 <K+0x2b0>
    7d48:	cec7a783          	lw	a5,-788(a5)
    7d4c:	dd18                	sw	a4,56(a0)
    7d4e:	dd5c                	sw	a5,60(a0)
    7d50:	000157b7          	lui	a5,0x15
    7d54:	cf07a703          	lw	a4,-784(a5) # 14cf0 <K+0x2b8>
    7d58:	cf47a783          	lw	a5,-780(a5)
    7d5c:	c138                	sw	a4,64(a0)
    7d5e:	c17c                	sw	a5,68(a0)
    7d60:	4501                	li	a0,0
    7d62:	8082                	ret
    7d64:	4505                	li	a0,1
    7d66:	8082                	ret

00007d68 <sha512_update>:
    7d68:	c55d                	beqz	a0,7e16 <sha512_update+0xae>
    7d6a:	f92f82ef          	jal	t0,4fc <__riscv_save_4>
    7d6e:	842a                	mv	s0,a0
    7d70:	892e                	mv	s2,a1
    7d72:	4505                	li	a0,1
    7d74:	cd99                	beqz	a1,7d92 <sha512_update+0x2a>
    7d76:	4438                	lw	a4,72(s0)
    7d78:	08000793          	li	a5,128
    7d7c:	00e7eb63          	bltu	a5,a4,7d92 <sha512_update+0x2a>
    7d80:	84b2                	mv	s1,a2
    7d82:	08000993          	li	s3,128
    7d86:	04c40a13          	addi	s4,s0,76 # 20004c <_data_lma+0x1eb164>
    7d8a:	07f00a93          	li	s5,127
    7d8e:	e481                	bnez	s1,7d96 <sha512_update+0x2e>
    7d90:	4501                	li	a0,0
    7d92:	f9ef806f          	j	530 <__riscv_restore_4>
    7d96:	443c                	lw	a5,72(s0)
    7d98:	e795                	bnez	a5,7dc4 <sha512_update+0x5c>
    7d9a:	029af563          	bgeu	s5,s1,7dc4 <sha512_update+0x5c>
    7d9e:	85ca                	mv	a1,s2
    7da0:	8522                	mv	a0,s0
    7da2:	b14ff0ef          	jal	ra,70b6 <sha512_compress>
    7da6:	f575                	bnez	a0,7d92 <sha512_update+0x2a>
    7da8:	401c                	lw	a5,0(s0)
    7daa:	4054                	lw	a3,4(s0)
    7dac:	08090913          	addi	s2,s2,128
    7db0:	40078713          	addi	a4,a5,1024
    7db4:	00f737b3          	sltu	a5,a4,a5
    7db8:	97b6                	add	a5,a5,a3
    7dba:	c018                	sw	a4,0(s0)
    7dbc:	c05c                	sw	a5,4(s0)
    7dbe:	f8048493          	addi	s1,s1,-128
    7dc2:	b7f1                	j	7d8e <sha512_update+0x26>
    7dc4:	40f98733          	sub	a4,s3,a5
    7dc8:	00e4f363          	bgeu	s1,a4,7dce <sha512_update+0x66>
    7dcc:	8726                	mv	a4,s1
    7dce:	00f40633          	add	a2,s0,a5
    7dd2:	4681                	li	a3,0
    7dd4:	0605                	addi	a2,a2,1
    7dd6:	02d71963          	bne	a4,a3,7e08 <sha512_update+0xa0>
    7dda:	97ba                	add	a5,a5,a4
    7ddc:	c43c                	sw	a5,72(s0)
    7dde:	993a                	add	s2,s2,a4
    7de0:	8c99                	sub	s1,s1,a4
    7de2:	fb3796e3          	bne	a5,s3,7d8e <sha512_update+0x26>
    7de6:	85d2                	mv	a1,s4
    7de8:	8522                	mv	a0,s0
    7dea:	accff0ef          	jal	ra,70b6 <sha512_compress>
    7dee:	f155                	bnez	a0,7d92 <sha512_update+0x2a>
    7df0:	401c                	lw	a5,0(s0)
    7df2:	4054                	lw	a3,4(s0)
    7df4:	04042423          	sw	zero,72(s0)
    7df8:	40078713          	addi	a4,a5,1024
    7dfc:	00f737b3          	sltu	a5,a4,a5
    7e00:	97b6                	add	a5,a5,a3
    7e02:	c018                	sw	a4,0(s0)
    7e04:	c05c                	sw	a5,4(s0)
    7e06:	b761                	j	7d8e <sha512_update+0x26>
    7e08:	00d905b3          	add	a1,s2,a3
    7e0c:	218c                	lbu	a1,0(a1)
    7e0e:	0685                	addi	a3,a3,1
    7e10:	04b605a3          	sb	a1,75(a2) # ffe0004b <__freertos_irq_stack_top+0xdfdf804b>
    7e14:	b7c1                	j	7dd4 <sha512_update+0x6c>
    7e16:	4505                	li	a0,1
    7e18:	8082                	ret

00007e1a <sha512_final>:
    7e1a:	4705                	li	a4,1
    7e1c:	12050563          	beqz	a0,7f46 <sha512_final+0x12c>
    7e20:	12058363          	beqz	a1,7f46 <sha512_final+0x12c>
    7e24:	453c                	lw	a5,72(a0)
    7e26:	07f00693          	li	a3,127
    7e2a:	10f6ee63          	bltu	a3,a5,7f46 <sha512_final+0x12c>
    7e2e:	ee8f82ef          	jal	t0,516 <__riscv_save_0>
    7e32:	4118                	lw	a4,0(a0)
    7e34:	4150                	lw	a2,4(a0)
    7e36:	00379693          	slli	a3,a5,0x3
    7e3a:	96ba                	add	a3,a3,a4
    7e3c:	84ae                	mv	s1,a1
    7e3e:	01d7d593          	srli	a1,a5,0x1d
    7e42:	00e6b733          	sltu	a4,a3,a4
    7e46:	962e                	add	a2,a2,a1
    7e48:	9732                	add	a4,a4,a2
    7e4a:	c158                	sw	a4,4(a0)
    7e4c:	00178713          	addi	a4,a5,1
    7e50:	c114                	sw	a3,0(a0)
    7e52:	97aa                	add	a5,a5,a0
    7e54:	c538                	sw	a4,72(a0)
    7e56:	f8000693          	li	a3,-128
    7e5a:	04d78623          	sb	a3,76(a5)
    7e5e:	07000793          	li	a5,112
    7e62:	842a                	mv	s0,a0
    7e64:	00e7fe63          	bgeu	a5,a4,7e80 <sha512_final+0x66>
    7e68:	07f00713          	li	a4,127
    7e6c:	443c                	lw	a5,72(s0)
    7e6e:	0af77e63          	bgeu	a4,a5,7f2a <sha512_final+0x110>
    7e72:	04c40593          	addi	a1,s0,76
    7e76:	8522                	mv	a0,s0
    7e78:	a3eff0ef          	jal	ra,70b6 <sha512_compress>
    7e7c:	04042423          	sw	zero,72(s0)
    7e80:	07700713          	li	a4,119
    7e84:	443c                	lw	a5,72(s0)
    7e86:	0af77963          	bgeu	a4,a5,7f38 <sha512_final+0x11e>
    7e8a:	201e                	lhu	a5,0(s0)
    7e8c:	4058                	lw	a4,4(s0)
    7e8e:	04c40593          	addi	a1,s0,76
    7e92:	00879693          	slli	a3,a5,0x8
    7e96:	83a1                	srli	a5,a5,0x8
    7e98:	8edd                	or	a3,a3,a5
    7e9a:	401c                	lw	a5,0(s0)
    7e9c:	01875613          	srli	a2,a4,0x18
    7ea0:	0cc40223          	sb	a2,196(s0)
    7ea4:	01075613          	srli	a2,a4,0x10
    7ea8:	0cc402a3          	sb	a2,197(s0)
    7eac:	0ce403a3          	sb	a4,199(s0)
    7eb0:	00875613          	srli	a2,a4,0x8
    7eb4:	0187d713          	srli	a4,a5,0x18
    7eb8:	83c1                	srli	a5,a5,0x10
    7eba:	0ce40423          	sb	a4,200(s0)
    7ebe:	0cc40323          	sb	a2,198(s0)
    7ec2:	0cf404a3          	sb	a5,201(s0)
    7ec6:	0cd41523          	sh	a3,202(s0)
    7eca:	8522                	mv	a0,s0
    7ecc:	9eaff0ef          	jal	ra,70b6 <sha512_compress>
    7ed0:	0421                	addi	s0,s0,8
    7ed2:	85a6                	mv	a1,s1
    7ed4:	04048713          	addi	a4,s1,64
    7ed8:	307c                	lbu	a5,7(s0)
    7eda:	05a1                	addi	a1,a1,8
    7edc:	0421                	addi	s0,s0,8
    7ede:	fef58c23          	sb	a5,-8(a1)
    7ee2:	ffe45783          	lhu	a5,-2(s0)
    7ee6:	fef58ca3          	sb	a5,-7(a1)
    7eea:	ffc42783          	lw	a5,-4(s0)
    7eee:	83a1                	srli	a5,a5,0x8
    7ef0:	fef58d23          	sb	a5,-6(a1)
    7ef4:	ffc42783          	lw	a5,-4(s0)
    7ef8:	fef58da3          	sb	a5,-5(a1)
    7efc:	ffb44783          	lbu	a5,-5(s0)
    7f00:	fef58e23          	sb	a5,-4(a1)
    7f04:	ffa45783          	lhu	a5,-6(s0)
    7f08:	fef58ea3          	sb	a5,-3(a1)
    7f0c:	ff842783          	lw	a5,-8(s0)
    7f10:	83a1                	srli	a5,a5,0x8
    7f12:	fef58f23          	sb	a5,-2(a1)
    7f16:	ff842783          	lw	a5,-8(s0)
    7f1a:	fef58fa3          	sb	a5,-1(a1)
    7f1e:	fab71de3          	bne	a4,a1,7ed8 <sha512_final+0xbe>
    7f22:	4701                	li	a4,0
    7f24:	853a                	mv	a0,a4
    7f26:	e14f806f          	j	53a <__riscv_restore_0>
    7f2a:	00178693          	addi	a3,a5,1
    7f2e:	c434                	sw	a3,72(s0)
    7f30:	97a2                	add	a5,a5,s0
    7f32:	04078623          	sb	zero,76(a5)
    7f36:	bf1d                	j	7e6c <sha512_final+0x52>
    7f38:	00178693          	addi	a3,a5,1
    7f3c:	c434                	sw	a3,72(s0)
    7f3e:	97a2                	add	a5,a5,s0
    7f40:	04078623          	sb	zero,76(a5)
    7f44:	b781                	j	7e84 <sha512_final+0x6a>
    7f46:	853a                	mv	a0,a4
    7f48:	8082                	ret

00007f4a <sha512>:
    7f4a:	dccf82ef          	jal	t0,516 <__riscv_save_0>
    7f4e:	7115                	addi	sp,sp,-224
    7f50:	84aa                	mv	s1,a0
    7f52:	0808                	addi	a0,sp,16
    7f54:	c62e                	sw	a1,12(sp)
    7f56:	8432                	mv	s0,a2
    7f58:	d79ff0ef          	jal	ra,7cd0 <sha512_init>
    7f5c:	ed01                	bnez	a0,7f74 <sha512+0x2a>
    7f5e:	45b2                	lw	a1,12(sp)
    7f60:	0808                	addi	a0,sp,16
    7f62:	862e                	mv	a2,a1
    7f64:	85a6                	mv	a1,s1
    7f66:	e03ff0ef          	jal	ra,7d68 <sha512_update>
    7f6a:	e509                	bnez	a0,7f74 <sha512+0x2a>
    7f6c:	85a2                	mv	a1,s0
    7f6e:	0808                	addi	a0,sp,16
    7f70:	eabff0ef          	jal	ra,7e1a <sha512_final>
    7f74:	612d                	addi	sp,sp,224
    7f76:	dc4f806f          	j	53a <__riscv_restore_0>

00007f7a <ed25519_sign>:
    7f7a:	d82f82ef          	jal	t0,4fc <__riscv_save_4>
    7f7e:	7101                	addi	sp,sp,-512
    7f80:	842a                	mv	s0,a0
    7f82:	1a08                	addi	a0,sp,304
    7f84:	84ba                	mv	s1,a4
    7f86:	c636                	sw	a3,12(sp)
    7f88:	892e                	mv	s2,a1
    7f8a:	89b2                	mv	s3,a2
    7f8c:	d45ff0ef          	jal	ra,7cd0 <sha512_init>
    7f90:	02048593          	addi	a1,s1,32
    7f94:	02000613          	li	a2,32
    7f98:	1a08                	addi	a0,sp,304
    7f9a:	dcfff0ef          	jal	ra,7d68 <sha512_update>
    7f9e:	864e                	mv	a2,s3
    7fa0:	85ca                	mv	a1,s2
    7fa2:	1a08                	addi	a0,sp,304
    7fa4:	dc5ff0ef          	jal	ra,7d68 <sha512_update>
    7fa8:	088c                	addi	a1,sp,80
    7faa:	1a08                	addi	a0,sp,304
    7fac:	e6fff0ef          	jal	ra,7e1a <sha512_final>
    7fb0:	0888                	addi	a0,sp,80
    7fb2:	c38fb0ef          	jal	ra,33ea <sc_reduce>
    7fb6:	088c                	addi	a1,sp,80
    7fb8:	0908                	addi	a0,sp,144
    7fba:	fb9fa0ef          	jal	ra,2f72 <ge_scalarmult_base>
    7fbe:	090c                	addi	a1,sp,144
    7fc0:	8522                	mv	a0,s0
    7fc2:	f6bfa0ef          	jal	ra,2f2c <ge_p3_tobytes>
    7fc6:	1a08                	addi	a0,sp,304
    7fc8:	d09ff0ef          	jal	ra,7cd0 <sha512_init>
    7fcc:	85a2                	mv	a1,s0
    7fce:	02000613          	li	a2,32
    7fd2:	1a08                	addi	a0,sp,304
    7fd4:	d95ff0ef          	jal	ra,7d68 <sha512_update>
    7fd8:	46b2                	lw	a3,12(sp)
    7fda:	02000613          	li	a2,32
    7fde:	1a08                	addi	a0,sp,304
    7fe0:	85b6                	mv	a1,a3
    7fe2:	d87ff0ef          	jal	ra,7d68 <sha512_update>
    7fe6:	864e                	mv	a2,s3
    7fe8:	85ca                	mv	a1,s2
    7fea:	1a08                	addi	a0,sp,304
    7fec:	d7dff0ef          	jal	ra,7d68 <sha512_update>
    7ff0:	080c                	addi	a1,sp,16
    7ff2:	1a08                	addi	a0,sp,304
    7ff4:	e27ff0ef          	jal	ra,7e1a <sha512_final>
    7ff8:	0808                	addi	a0,sp,16
    7ffa:	bf0fb0ef          	jal	ra,33ea <sc_reduce>
    7ffe:	0894                	addi	a3,sp,80
    8000:	080c                	addi	a1,sp,16
    8002:	8626                	mv	a2,s1
    8004:	02040513          	addi	a0,s0,32
    8008:	fd0fc0ef          	jal	ra,47d8 <sc_muladd>
    800c:	20010113          	addi	sp,sp,512
    8010:	d20f806f          	j	530 <__riscv_restore_4>

00008014 <ed25519_verify>:
    8014:	03f54783          	lbu	a5,63(a0)
    8018:	0e07f793          	andi	a5,a5,224
    801c:	cb81                	beqz	a5,802c <ed25519_verify+0x18>
    801e:	4501                	li	a0,0
    8020:	8082                	ret
    8022:	4501                	li	a0,0
    8024:	25010113          	addi	sp,sp,592
    8028:	d08f806f          	j	530 <__riscv_restore_4>
    802c:	cd0f82ef          	jal	t0,4fc <__riscv_save_4>
    8030:	db010113          	addi	sp,sp,-592
    8034:	892e                	mv	s2,a1
    8036:	842a                	mv	s0,a0
    8038:	85b6                	mv	a1,a3
    803a:	1188                	addi	a0,sp,224
    803c:	84b6                	mv	s1,a3
    803e:	89b2                	mv	s3,a2
    8040:	b27fa0ef          	jal	ra,2b66 <ge_frombytes_negate_vartime>
    8044:	fd79                	bnez	a0,8022 <ed25519_verify+0xe>
    8046:	0308                	addi	a0,sp,384
    8048:	c89ff0ef          	jal	ra,7cd0 <sha512_init>
    804c:	02000613          	li	a2,32
    8050:	85a2                	mv	a1,s0
    8052:	0308                	addi	a0,sp,384
    8054:	d15ff0ef          	jal	ra,7d68 <sha512_update>
    8058:	02000613          	li	a2,32
    805c:	85a6                	mv	a1,s1
    805e:	0308                	addi	a0,sp,384
    8060:	d09ff0ef          	jal	ra,7d68 <sha512_update>
    8064:	864e                	mv	a2,s3
    8066:	85ca                	mv	a1,s2
    8068:	0308                	addi	a0,sp,384
    806a:	cffff0ef          	jal	ra,7d68 <sha512_update>
    806e:	102c                	addi	a1,sp,40
    8070:	0308                	addi	a0,sp,384
    8072:	da9ff0ef          	jal	ra,7e1a <sha512_final>
    8076:	1028                	addi	a0,sp,40
    8078:	b72fb0ef          	jal	ra,33ea <sc_reduce>
    807c:	02040693          	addi	a3,s0,32
    8080:	1190                	addi	a2,sp,224
    8082:	102c                	addi	a1,sp,40
    8084:	10a8                	addi	a0,sp,104
    8086:	87cfb0ef          	jal	ra,3102 <ge_double_scalarmult_vartime>
    808a:	0028                	addi	a0,sp,8
    808c:	10ac                	addi	a1,sp,104
    808e:	aacfb0ef          	jal	ra,333a <ge_tobytes>
    8092:	2018                	lbu	a4,0(s0)
    8094:	841c                	lbu	a5,8(sp)
    8096:	3014                	lbu	a3,1(s0)
    8098:	8fb9                	xor	a5,a5,a4
    809a:	8498                	lbu	a4,9(sp)
    809c:	8f35                	xor	a4,a4,a3
    809e:	8fd9                	or	a5,a5,a4
    80a0:	2034                	lbu	a3,2(s0)
    80a2:	8518                	lbu	a4,10(sp)
    80a4:	8f35                	xor	a4,a4,a3
    80a6:	8fd9                	or	a5,a5,a4
    80a8:	3034                	lbu	a3,3(s0)
    80aa:	8598                	lbu	a4,11(sp)
    80ac:	8f35                	xor	a4,a4,a3
    80ae:	8fd9                	or	a5,a5,a4
    80b0:	2054                	lbu	a3,4(s0)
    80b2:	8618                	lbu	a4,12(sp)
    80b4:	8f35                	xor	a4,a4,a3
    80b6:	8fd9                	or	a5,a5,a4
    80b8:	3054                	lbu	a3,5(s0)
    80ba:	8698                	lbu	a4,13(sp)
    80bc:	8f35                	xor	a4,a4,a3
    80be:	8fd9                	or	a5,a5,a4
    80c0:	2074                	lbu	a3,6(s0)
    80c2:	8718                	lbu	a4,14(sp)
    80c4:	8f35                	xor	a4,a4,a3
    80c6:	8fd9                	or	a5,a5,a4
    80c8:	3074                	lbu	a3,7(s0)
    80ca:	8798                	lbu	a4,15(sp)
    80cc:	8f35                	xor	a4,a4,a3
    80ce:	8fd9                	or	a5,a5,a4
    80d0:	2414                	lbu	a3,8(s0)
    80d2:	01014703          	lbu	a4,16(sp)
    80d6:	8f35                	xor	a4,a4,a3
    80d8:	8fd9                	or	a5,a5,a4
    80da:	3414                	lbu	a3,9(s0)
    80dc:	01114703          	lbu	a4,17(sp)
    80e0:	8f35                	xor	a4,a4,a3
    80e2:	8fd9                	or	a5,a5,a4
    80e4:	2434                	lbu	a3,10(s0)
    80e6:	01214703          	lbu	a4,18(sp)
    80ea:	8f35                	xor	a4,a4,a3
    80ec:	8fd9                	or	a5,a5,a4
    80ee:	3434                	lbu	a3,11(s0)
    80f0:	01314703          	lbu	a4,19(sp)
    80f4:	8f35                	xor	a4,a4,a3
    80f6:	8fd9                	or	a5,a5,a4
    80f8:	2454                	lbu	a3,12(s0)
    80fa:	01414703          	lbu	a4,20(sp)
    80fe:	8f35                	xor	a4,a4,a3
    8100:	8fd9                	or	a5,a5,a4
    8102:	3454                	lbu	a3,13(s0)
    8104:	01514703          	lbu	a4,21(sp)
    8108:	8f35                	xor	a4,a4,a3
    810a:	8fd9                	or	a5,a5,a4
    810c:	2474                	lbu	a3,14(s0)
    810e:	01614703          	lbu	a4,22(sp)
    8112:	8f35                	xor	a4,a4,a3
    8114:	8fd9                	or	a5,a5,a4
    8116:	3474                	lbu	a3,15(s0)
    8118:	01714703          	lbu	a4,23(sp)
    811c:	8f35                	xor	a4,a4,a3
    811e:	8fd9                	or	a5,a5,a4
    8120:	01814703          	lbu	a4,24(sp)
    8124:	2814                	lbu	a3,16(s0)
    8126:	02314503          	lbu	a0,35(sp)
    812a:	8f35                	xor	a4,a4,a3
    812c:	8fd9                	or	a5,a5,a4
    812e:	3814                	lbu	a3,17(s0)
    8130:	01914703          	lbu	a4,25(sp)
    8134:	8f35                	xor	a4,a4,a3
    8136:	8fd9                	or	a5,a5,a4
    8138:	2834                	lbu	a3,18(s0)
    813a:	01a14703          	lbu	a4,26(sp)
    813e:	8f35                	xor	a4,a4,a3
    8140:	8fd9                	or	a5,a5,a4
    8142:	3834                	lbu	a3,19(s0)
    8144:	01b14703          	lbu	a4,27(sp)
    8148:	8f35                	xor	a4,a4,a3
    814a:	8fd9                	or	a5,a5,a4
    814c:	2854                	lbu	a3,20(s0)
    814e:	01c14703          	lbu	a4,28(sp)
    8152:	8f35                	xor	a4,a4,a3
    8154:	8fd9                	or	a5,a5,a4
    8156:	3854                	lbu	a3,21(s0)
    8158:	01d14703          	lbu	a4,29(sp)
    815c:	8f35                	xor	a4,a4,a3
    815e:	8fd9                	or	a5,a5,a4
    8160:	2874                	lbu	a3,22(s0)
    8162:	01e14703          	lbu	a4,30(sp)
    8166:	8f35                	xor	a4,a4,a3
    8168:	8fd9                	or	a5,a5,a4
    816a:	3874                	lbu	a3,23(s0)
    816c:	01f14703          	lbu	a4,31(sp)
    8170:	8f35                	xor	a4,a4,a3
    8172:	8fd9                	or	a5,a5,a4
    8174:	2c14                	lbu	a3,24(s0)
    8176:	02014703          	lbu	a4,32(sp)
    817a:	8f35                	xor	a4,a4,a3
    817c:	8fd9                	or	a5,a5,a4
    817e:	3c14                	lbu	a3,25(s0)
    8180:	02114703          	lbu	a4,33(sp)
    8184:	8f35                	xor	a4,a4,a3
    8186:	8fd9                	or	a5,a5,a4
    8188:	2c34                	lbu	a3,26(s0)
    818a:	02214703          	lbu	a4,34(sp)
    818e:	8f35                	xor	a4,a4,a3
    8190:	8fd9                	or	a5,a5,a4
    8192:	3c38                	lbu	a4,27(s0)
    8194:	8d39                	xor	a0,a0,a4
    8196:	8fc9                	or	a5,a5,a0
    8198:	2c58                	lbu	a4,28(s0)
    819a:	02414503          	lbu	a0,36(sp)
    819e:	8d39                	xor	a0,a0,a4
    81a0:	8fc9                	or	a5,a5,a0
    81a2:	3c58                	lbu	a4,29(s0)
    81a4:	02514503          	lbu	a0,37(sp)
    81a8:	8d39                	xor	a0,a0,a4
    81aa:	8fc9                	or	a5,a5,a0
    81ac:	2c78                	lbu	a4,30(s0)
    81ae:	02614503          	lbu	a0,38(sp)
    81b2:	8d39                	xor	a0,a0,a4
    81b4:	8fc9                	or	a5,a5,a0
    81b6:	3c78                	lbu	a4,31(s0)
    81b8:	02714503          	lbu	a0,39(sp)
    81bc:	8d39                	xor	a0,a0,a4
    81be:	8d5d                	or	a0,a0,a5
    81c0:	00153513          	seqz	a0,a0
    81c4:	b585                	j	8024 <ed25519_verify+0x10>

000081c6 <ble_data_recv_task>:
    81c6:	b36f82ef          	jal	t0,4fc <__riscv_save_4>
    81ca:	200007b7          	lui	a5,0x20000
    81ce:	4401                	li	s0,0
    81d0:	15878913          	addi	s2,a5,344 # 20000158 <ble_data_rx_buf>
    81d4:	200009b7          	lui	s3,0x20000
    81d8:	4a05                	li	s4,1
    81da:	84be                	mv	s1,a5
    81dc:	0f000a93          	li	s5,240
    81e0:	20000b37          	lui	s6,0x20000
    81e4:	0b49a503          	lw	a0,180(s3) # 200000b4 <ble_data_recv_byte>
    81e8:	03200613          	li	a2,50
    81ec:	008905b3          	add	a1,s2,s0
    81f0:	0bd020ef          	jal	ra,aaac <xQueueReceive>
    81f4:	01450d63          	beq	a0,s4,820e <ble_data_recv_task+0x48>
    81f8:	d475                	beqz	s0,81e4 <ble_data_recv_task+0x1e>
    81fa:	0b0b2503          	lw	a0,176(s6) # 200000b0 <_edata>
    81fe:	4681                	li	a3,0
    8200:	4601                	li	a2,0
    8202:	15848593          	addi	a1,s1,344
    8206:	5d6020ef          	jal	ra,a7dc <xQueueGenericSend>
    820a:	4401                	li	s0,0
    820c:	bfe1                	j	81e4 <ble_data_recv_task+0x1e>
    820e:	0405                	addi	s0,s0,1
    8210:	fd541ae3          	bne	s0,s5,81e4 <ble_data_recv_task+0x1e>
    8214:	b7dd                	j	81fa <ble_data_recv_task+0x34>

00008216 <ble_ctrl_init>:
    8216:	b00f82ef          	jal	t0,516 <__riscv_save_0>
    821a:	1101                	addi	sp,sp,-32
    821c:	4585                	li	a1,1
    821e:	4541                	li	a0,16
    8220:	3e7010ef          	jal	ra,9e06 <RCC_APB2PeriphClockCmd>
    8224:	47c1                	li	a5,16
    8226:	827c                	sh	a5,4(sp)
    8228:	4785                	li	a5,1
    822a:	c43e                	sw	a5,8(sp)
    822c:	004c                	addi	a1,sp,4
    822e:	47e1                	li	a5,24
    8230:	40011537          	lui	a0,0x40011
    8234:	c63e                	sw	a5,12(sp)
    8236:	00011323          	sh	zero,6(sp)
    823a:	0b5010ef          	jal	ra,9aee <GPIO_Init>
    823e:	02000793          	li	a5,32
    8242:	827c                	sh	a5,4(sp)
    8244:	004c                	addi	a1,sp,4
    8246:	4791                	li	a5,4
    8248:	40011537          	lui	a0,0x40011
    824c:	c63e                	sw	a5,12(sp)
    824e:	0a1010ef          	jal	ra,9aee <GPIO_Init>
    8252:	4585                	li	a1,1
    8254:	10000513          	li	a0,256
    8258:	3cd010ef          	jal	ra,9e24 <RCC_APB1PeriphClockCmd>
    825c:	67f1                	lui	a5,0x1c
    825e:	20078793          	addi	a5,a5,512 # 1c200 <_data_lma+0x7318>
    8262:	cc02                	sw	zero,24(sp)
    8264:	c83e                	sw	a5,16(sp)
    8266:	080c                	addi	a1,sp,16
    8268:	47b1                	li	a5,12
    826a:	40002537          	lui	a0,0x40002
    826e:	85fc                	sh	a5,26(sp)
    8270:	ca02                	sw	zero,20(sp)
    8272:	ce02                	sw	zero,28(sp)
    8274:	5b9010ef          	jal	ra,a02c <USART_Init>
    8278:	4585                	li	a1,1
    827a:	40002537          	lui	a0,0x40002
    827e:	63f010ef          	jal	ra,a0bc <USART_Cmd>
    8282:	6105                	addi	sp,sp,32
    8284:	ab6f806f          	j	53a <__riscv_restore_0>

00008288 <ble_ctrl_recv_byte>:
    8288:	a8ef82ef          	jal	t0,516 <__riscv_save_0>
    828c:	02000593          	li	a1,32
    8290:	40002537          	lui	a0,0x40002
    8294:	685010ef          	jal	ra,a118 <USART_GetFlagStatus>
    8298:	d975                	beqz	a0,828c <ble_ctrl_recv_byte+0x4>
    829a:	40002537          	lui	a0,0x40002
    829e:	673010ef          	jal	ra,a110 <USART_ReceiveData>
    82a2:	0ff57513          	andi	a0,a0,255
    82a6:	a94f806f          	j	53a <__riscv_restore_0>

000082aa <ble_ctrl_check>:
    82aa:	a6cf82ef          	jal	t0,516 <__riscv_save_0>
    82ae:	3fe9                	jal	8288 <ble_ctrl_recv_byte>
    82b0:	fd650513          	addi	a0,a0,-42 # 40001fd6 <__freertos_irq_stack_top+0x1fff9fd6>
    82b4:	00a03533          	snez	a0,a0
    82b8:	a82f806f          	j	53a <__riscv_restore_0>

000082bc <ble_ctrl_send_byte>:
    82bc:	a5af82ef          	jal	t0,516 <__riscv_save_0>
    82c0:	842a                	mv	s0,a0
    82c2:	04000593          	li	a1,64
    82c6:	40002537          	lui	a0,0x40002
    82ca:	64f010ef          	jal	ra,a118 <USART_GetFlagStatus>
    82ce:	d975                	beqz	a0,82c2 <ble_ctrl_send_byte+0x6>
    82d0:	85a2                	mv	a1,s0
    82d2:	40002537          	lui	a0,0x40002
    82d6:	633010ef          	jal	ra,a108 <USART_SendData>
    82da:	a60f806f          	j	53a <__riscv_restore_0>

000082de <ble_ctrl_send_str>:
    82de:	a38f82ef          	jal	t0,516 <__riscv_save_0>
    82e2:	842a                	mv	s0,a0
    82e4:	2008                	lbu	a0,0(s0)
    82e6:	e119                	bnez	a0,82ec <ble_ctrl_send_str+0xe>
    82e8:	a52f806f          	j	53a <__riscv_restore_0>
    82ec:	3fc1                	jal	82bc <ble_ctrl_send_byte>
    82ee:	0405                	addi	s0,s0,1
    82f0:	bfd5                	j	82e4 <ble_ctrl_send_str+0x6>

000082f2 <ble_ctrl_send_dat>:
    82f2:	a24f82ef          	jal	t0,516 <__riscv_save_0>
    82f6:	842a                	mv	s0,a0
    82f8:	00b504b3          	add	s1,a0,a1
    82fc:	00941463          	bne	s0,s1,8304 <ble_ctrl_send_dat+0x12>
    8300:	a3af806f          	j	53a <__riscv_restore_0>
    8304:	2008                	lbu	a0,0(s0)
    8306:	0405                	addi	s0,s0,1
    8308:	3f55                	jal	82bc <ble_ctrl_send_byte>
    830a:	bfcd                	j	82fc <ble_ctrl_send_dat+0xa>

0000830c <ble_set_name>:
    830c:	a0af82ef          	jal	t0,516 <__riscv_save_0>
    8310:	842a                	mv	s0,a0
    8312:	02a00513          	li	a0,42
    8316:	375d                	jal	82bc <ble_ctrl_send_byte>
    8318:	04e00513          	li	a0,78
    831c:	fa1ff0ef          	jal	ra,82bc <ble_ctrl_send_byte>
    8320:	8522                	mv	a0,s0
    8322:	3f75                	jal	82de <ble_ctrl_send_str>
    8324:	4501                	li	a0,0
    8326:	f97ff0ef          	jal	ra,82bc <ble_ctrl_send_byte>
    832a:	f81ff0ef          	jal	ra,82aa <ble_ctrl_check>
    832e:	a0cf806f          	j	53a <__riscv_restore_0>

00008332 <ble_set_passkey>:
    8332:	9e4f82ef          	jal	t0,516 <__riscv_save_0>
    8336:	1141                	addi	sp,sp,-16
    8338:	c62a                	sw	a0,12(sp)
    833a:	02a00513          	li	a0,42
    833e:	f7fff0ef          	jal	ra,82bc <ble_ctrl_send_byte>
    8342:	05000513          	li	a0,80
    8346:	f77ff0ef          	jal	ra,82bc <ble_ctrl_send_byte>
    834a:	4591                	li	a1,4
    834c:	0068                	addi	a0,sp,12
    834e:	fa5ff0ef          	jal	ra,82f2 <ble_ctrl_send_dat>
    8352:	f59ff0ef          	jal	ra,82aa <ble_ctrl_check>
    8356:	0141                	addi	sp,sp,16
    8358:	9e2f806f          	j	53a <__riscv_restore_0>

0000835c <ble_ctrl_simple>:
    835c:	9baf82ef          	jal	t0,516 <__riscv_save_0>
    8360:	842a                	mv	s0,a0
    8362:	02a00513          	li	a0,42
    8366:	f57ff0ef          	jal	ra,82bc <ble_ctrl_send_byte>
    836a:	8522                	mv	a0,s0
    836c:	f51ff0ef          	jal	ra,82bc <ble_ctrl_send_byte>
    8370:	f3bff0ef          	jal	ra,82aa <ble_ctrl_check>
    8374:	9c6f806f          	j	53a <__riscv_restore_0>

00008378 <ble_set_advert>:
    8378:	99ef82ef          	jal	t0,516 <__riscv_save_0>
    837c:	00a03533          	snez	a0,a0
    8380:	04150513          	addi	a0,a0,65 # 40002041 <__freertos_irq_stack_top+0x1fffa041>
    8384:	fd9ff0ef          	jal	ra,835c <ble_ctrl_simple>
    8388:	9b2f806f          	j	53a <__riscv_restore_0>

0000838c <ble_factory_reset>:
    838c:	98af82ef          	jal	t0,516 <__riscv_save_0>
    8390:	05200513          	li	a0,82
    8394:	fc9ff0ef          	jal	ra,835c <ble_ctrl_simple>
    8398:	9a2f806f          	j	53a <__riscv_restore_0>

0000839c <ble_continue>:
    839c:	97af82ef          	jal	t0,516 <__riscv_save_0>
    83a0:	04300513          	li	a0,67
    83a4:	fb9ff0ef          	jal	ra,835c <ble_ctrl_simple>
    83a8:	992f806f          	j	53a <__riscv_restore_0>

000083ac <ble_set_serial>:
    83ac:	96af82ef          	jal	t0,516 <__riscv_save_0>
    83b0:	1141                	addi	sp,sp,-16
    83b2:	8768                	sh	a0,14(sp)
    83b4:	02a00513          	li	a0,42
    83b8:	f05ff0ef          	jal	ra,82bc <ble_ctrl_send_byte>
    83bc:	05300513          	li	a0,83
    83c0:	efdff0ef          	jal	ra,82bc <ble_ctrl_send_byte>
    83c4:	4589                	li	a1,2
    83c6:	00e10513          	addi	a0,sp,14
    83ca:	f29ff0ef          	jal	ra,82f2 <ble_ctrl_send_dat>
    83ce:	eddff0ef          	jal	ra,82aa <ble_ctrl_check>
    83d2:	0141                	addi	sp,sp,16
    83d4:	966f806f          	j	53a <__riscv_restore_0>

000083d8 <ble_data_init>:
    83d8:	93ef82ef          	jal	t0,516 <__riscv_save_0>
    83dc:	1101                	addi	sp,sp,-32
    83de:	4585                	li	a1,1
    83e0:	4511                	li	a0,4
    83e2:	225010ef          	jal	ra,9e06 <RCC_APB2PeriphClockCmd>
    83e6:	4791                	li	a5,4
    83e8:	827c                	sh	a5,4(sp)
    83ea:	40011437          	lui	s0,0x40011
    83ee:	4785                	li	a5,1
    83f0:	c43e                	sw	a5,8(sp)
    83f2:	004c                	addi	a1,sp,4
    83f4:	47e1                	li	a5,24
    83f6:	80040513          	addi	a0,s0,-2048 # 40010800 <__freertos_irq_stack_top+0x20008800>
    83fa:	c63e                	sw	a5,12(sp)
    83fc:	00011323          	sh	zero,6(sp)
    8400:	6ee010ef          	jal	ra,9aee <GPIO_Init>
    8404:	47a1                	li	a5,8
    8406:	827c                	sh	a5,4(sp)
    8408:	004c                	addi	a1,sp,4
    840a:	4791                	li	a5,4
    840c:	80040513          	addi	a0,s0,-2048
    8410:	c63e                	sw	a5,12(sp)
    8412:	6dc010ef          	jal	ra,9aee <GPIO_Init>
    8416:	4585                	li	a1,1
    8418:	00020537          	lui	a0,0x20
    841c:	209010ef          	jal	ra,9e24 <RCC_APB1PeriphClockCmd>
    8420:	67f1                	lui	a5,0x1c
    8422:	40004437          	lui	s0,0x40004
    8426:	20078793          	addi	a5,a5,512 # 1c200 <_data_lma+0x7318>
    842a:	cc02                	sw	zero,24(sp)
    842c:	c83e                	sw	a5,16(sp)
    842e:	080c                	addi	a1,sp,16
    8430:	47b1                	li	a5,12
    8432:	40040513          	addi	a0,s0,1024 # 40004400 <__freertos_irq_stack_top+0x1fffc400>
    8436:	85fc                	sh	a5,26(sp)
    8438:	ca02                	sw	zero,20(sp)
    843a:	ce02                	sw	zero,28(sp)
    843c:	3f1010ef          	jal	ra,a02c <USART_Init>
    8440:	4605                	li	a2,1
    8442:	40040513          	addi	a0,s0,1024
    8446:	52500593          	li	a1,1317
    844a:	489010ef          	jal	ra,a0d2 <USART_ITConfig>
    844e:	4585                	li	a1,1
    8450:	40040513          	addi	a0,s0,1024
    8454:	469010ef          	jal	ra,a0bc <USART_Cmd>
    8458:	e000e7b7          	lui	a5,0xe000e
    845c:	00400737          	lui	a4,0x400
    8460:	10e7a223          	sw	a4,260(a5) # e000e104 <__freertos_irq_stack_top+0xc0006104>
    8464:	6105                	addi	sp,sp,32
    8466:	8d4f806f          	j	53a <__riscv_restore_0>

0000846a <ble_data_byte>:
    846a:	892f82ef          	jal	t0,4fc <__riscv_save_4>
    846e:	40004437          	lui	s0,0x40004
    8472:	84aa                	mv	s1,a0
    8474:	40040913          	addi	s2,s0,1024 # 40004400 <__freertos_irq_stack_top+0x1fffc400>
    8478:	e000e9b7          	lui	s3,0xe000e
    847c:	6a11                	lui	s4,0x4
    847e:	08000593          	li	a1,128
    8482:	854a                	mv	a0,s2
    8484:	495010ef          	jal	ra,a118 <USART_GetFlagStatus>
    8488:	c901                	beqz	a0,8498 <ble_data_byte+0x2e>
    848a:	85a6                	mv	a1,s1
    848c:	40040513          	addi	a0,s0,1024
    8490:	479010ef          	jal	ra,a108 <USART_SendData>
    8494:	89cf806f          	j	530 <__riscv_restore_4>
    8498:	2149a023          	sw	s4,512(s3) # e000e200 <__freertos_irq_stack_top+0xc0006200>
    849c:	b7cd                	j	847e <ble_data_byte+0x14>

0000849e <ble_data_send>:
    849e:	878f82ef          	jal	t0,516 <__riscv_save_0>
    84a2:	842a                	mv	s0,a0
    84a4:	00b504b3          	add	s1,a0,a1
    84a8:	00941463          	bne	s0,s1,84b0 <ble_data_send+0x12>
    84ac:	88ef806f          	j	53a <__riscv_restore_0>
    84b0:	2008                	lbu	a0,0(s0)
    84b2:	0405                	addi	s0,s0,1
    84b4:	fb7ff0ef          	jal	ra,846a <ble_data_byte>
    84b8:	bfc5                	j	84a8 <ble_data_send+0xa>

000084ba <USART2_IRQHandler>:
    84ba:	40004537          	lui	a0,0x40004
    84be:	1141                	addi	sp,sp,-16
    84c0:	40050513          	addi	a0,a0,1024 # 40004400 <__freertos_irq_stack_top+0x1fffc400>
    84c4:	44d010ef          	jal	ra,a110 <USART_ReceiveData>
    84c8:	200007b7          	lui	a5,0x20000
    84cc:	87c8                	sb	a0,15(sp)
    84ce:	0b47a503          	lw	a0,180(a5) # 200000b4 <ble_data_recv_byte>
    84d2:	00f10593          	addi	a1,sp,15
    84d6:	4681                	li	a3,0
    84d8:	4601                	li	a2,0
    84da:	4aa020ef          	jal	ra,a984 <xQueueGenericSendFromISR>
    84de:	0141                	addi	sp,sp,16
    84e0:	30200073          	mret

000084e4 <ble_status_get>:
    84e4:	832f82ef          	jal	t0,516 <__riscv_save_0>
    84e8:	45a1                	li	a1,8
    84ea:	40011537          	lui	a0,0x40011
    84ee:	6c0010ef          	jal	ra,9bae <GPIO_ReadInputDataBit>
    84f2:	200007b7          	lui	a5,0x20000
    84f6:	0b87c683          	lbu	a3,184(a5) # 200000b8 <prev.6023>
    84fa:	4709                	li	a4,2
    84fc:	0b878793          	addi	a5,a5,184
    8500:	00a69363          	bne	a3,a0,8506 <ble_status_get+0x22>
    8504:	4701                	li	a4,0
    8506:	a388                	sb	a0,0(a5)
    8508:	8d59                	or	a0,a0,a4
    850a:	830f806f          	j	53a <__riscv_restore_0>

0000850e <ble_status_init>:
    850e:	808f82ef          	jal	t0,516 <__riscv_save_0>
    8512:	1141                	addi	sp,sp,-16
    8514:	4585                	li	a1,1
    8516:	4511                	li	a0,4
    8518:	0ef010ef          	jal	ra,9e06 <RCC_APB2PeriphClockCmd>
    851c:	47a1                	li	a5,8
    851e:	827c                	sh	a5,4(sp)
    8520:	004c                	addi	a1,sp,4
    8522:	02800793          	li	a5,40
    8526:	40011537          	lui	a0,0x40011
    852a:	c63e                	sw	a5,12(sp)
    852c:	00011323          	sh	zero,6(sp)
    8530:	00011423          	sh	zero,8(sp)
    8534:	00011523          	sh	zero,10(sp)
    8538:	5b6010ef          	jal	ra,9aee <GPIO_Init>
    853c:	0141                	addi	sp,sp,16
    853e:	ffdf706f          	j	53a <__riscv_restore_0>

00008542 <ble_init>:
    8542:	fd5f72ef          	jal	t0,516 <__riscv_save_0>
    8546:	4601                	li	a2,0
    8548:	4585                	li	a1,1
    854a:	0f000513          	li	a0,240
    854e:	220020ef          	jal	ra,a76e <xQueueGenericCreate>
    8552:	200007b7          	lui	a5,0x20000
    8556:	4601                	li	a2,0
    8558:	0f000593          	li	a1,240
    855c:	0aa7aa23          	sw	a0,180(a5) # 200000b4 <ble_data_recv_byte>
    8560:	4509                	li	a0,2
    8562:	20c020ef          	jal	ra,a76e <xQueueGenericCreate>
    8566:	200007b7          	lui	a5,0x20000
    856a:	0aa7a823          	sw	a0,176(a5) # 200000b0 <_edata>
    856e:	fa1ff0ef          	jal	ra,850e <ble_status_init>
    8572:	e67ff0ef          	jal	ra,83d8 <ble_data_init>
    8576:	ca1ff0ef          	jal	ra,8216 <ble_ctrl_init>
    857a:	000155b7          	lui	a1,0x15
    857e:	00008537          	lui	a0,0x8
    8582:	4781                	li	a5,0
    8584:	4715                	li	a4,5
    8586:	4681                	li	a3,0
    8588:	20000613          	li	a2,512
    858c:	cf858593          	addi	a1,a1,-776 # 14cf8 <K+0x2c0>
    8590:	1c650513          	addi	a0,a0,454 # 81c6 <ble_data_recv_task>
    8594:	05b020ef          	jal	ra,adee <xTaskCreate>
    8598:	157d                	addi	a0,a0,-1
    859a:	00a03533          	snez	a0,a0
    859e:	f9df706f          	j	53a <__riscv_restore_0>

000085a2 <button_get>:
    85a2:	f75f72ef          	jal	t0,516 <__riscv_save_0>
    85a6:	40011537          	lui	a0,0x40011
    85aa:	65a1                	lui	a1,0x8
    85ac:	80050513          	addi	a0,a0,-2048 # 40010800 <__freertos_irq_stack_top+0x20008800>
    85b0:	5fe010ef          	jal	ra,9bae <GPIO_ReadInputDataBit>
    85b4:	f87f706f          	j	53a <__riscv_restore_0>

000085b8 <button_task>:
    85b8:	f45f72ef          	jal	t0,4fc <__riscv_save_4>
    85bc:	6485                	lui	s1,0x1
    85be:	1141                	addi	sp,sp,-16
    85c0:	4405                	li	s0,1
    85c2:	4985                	li	s3,1
    85c4:	9c548493          	addi	s1,s1,-1595 # 9c5 <fe_frombytes+0x1c5>
    85c8:	20000a37          	lui	s4,0x20000
    85cc:	fd7ff0ef          	jal	ra,85a2 <button_get>
    85d0:	892a                	mv	s2,a0
    85d2:	03341d63          	bne	s0,s3,860c <button_task+0x54>
    85d6:	e91d                	bnez	a0,860c <button_task+0x54>
    85d8:	2bd020ef          	jal	ra,b094 <xTaskGetTickCount>
    85dc:	842a                	mv	s0,a0
    85de:	06400513          	li	a0,100
    85e2:	5d1020ef          	jal	ra,b3b2 <vTaskDelay>
    85e6:	fbdff0ef          	jal	ra,85a2 <button_get>
    85ea:	dd75                	beqz	a0,85e6 <button_task+0x2e>
    85ec:	2a9020ef          	jal	ra,b094 <xTaskGetTickCount>
    85f0:	8d01                	sub	a0,a0,s0
    85f2:	00953533          	sltu	a0,a0,s1
    85f6:	00154513          	xori	a0,a0,1
    85fa:	87c8                	sb	a0,15(sp)
    85fc:	0bca2503          	lw	a0,188(s4) # 200000bc <button_cmd>
    8600:	4681                	li	a3,0
    8602:	4601                	li	a2,0
    8604:	00f10593          	addi	a1,sp,15
    8608:	1d4020ef          	jal	ra,a7dc <xQueueGenericSend>
    860c:	4529                	li	a0,10
    860e:	5a5020ef          	jal	ra,b3b2 <vTaskDelay>
    8612:	844a                	mv	s0,s2
    8614:	bf65                	j	85cc <button_task+0x14>

00008616 <button_init>:
    8616:	f01f72ef          	jal	t0,516 <__riscv_save_0>
    861a:	1141                	addi	sp,sp,-16
    861c:	4585                	li	a1,1
    861e:	4511                	li	a0,4
    8620:	7e6010ef          	jal	ra,9e06 <RCC_APB2PeriphClockCmd>
    8624:	04800793          	li	a5,72
    8628:	c63e                	sw	a5,12(sp)
    862a:	40011537          	lui	a0,0x40011
    862e:	4789                	li	a5,2
    8630:	c43e                	sw	a5,8(sp)
    8632:	004c                	addi	a1,sp,4
    8634:	77e1                	lui	a5,0xffff8
    8636:	80050513          	addi	a0,a0,-2048 # 40010800 <__freertos_irq_stack_top+0x20008800>
    863a:	827c                	sh	a5,4(sp)
    863c:	4b2010ef          	jal	ra,9aee <GPIO_Init>
    8640:	4601                	li	a2,0
    8642:	4585                	li	a1,1
    8644:	02000513          	li	a0,32
    8648:	126020ef          	jal	ra,a76e <xQueueGenericCreate>
    864c:	20000737          	lui	a4,0x20000
    8650:	87aa                	mv	a5,a0
    8652:	0aa72e23          	sw	a0,188(a4) # 200000bc <button_cmd>
    8656:	4509                	li	a0,2
    8658:	c39d                	beqz	a5,867e <button_init+0x68>
    865a:	000155b7          	lui	a1,0x15
    865e:	00008537          	lui	a0,0x8
    8662:	4781                	li	a5,0
    8664:	4715                	li	a4,5
    8666:	4681                	li	a3,0
    8668:	10000613          	li	a2,256
    866c:	d0058593          	addi	a1,a1,-768 # 14d00 <K+0x2c8>
    8670:	5b850513          	addi	a0,a0,1464 # 85b8 <button_task>
    8674:	77a020ef          	jal	ra,adee <xTaskCreate>
    8678:	157d                	addi	a0,a0,-1
    867a:	00a03533          	snez	a0,a0
    867e:	0141                	addi	sp,sp,16
    8680:	ebbf706f          	j	53a <__riscv_restore_0>

00008684 <NMI_Handler>:
    8684:	a001                	j	8684 <NMI_Handler>

00008686 <HardFault_Handler>:
    8686:	beef07b7          	lui	a5,0xbeef0
    868a:	e000e737          	lui	a4,0xe000e
    868e:	08078793          	addi	a5,a5,128 # beef0080 <__freertos_irq_stack_top+0x9eee8080>
    8692:	c73c                	sw	a5,72(a4)
    8694:	a001                	j	8694 <HardFault_Handler+0xe>

00008696 <flash_spi>:
    8696:	e81f72ef          	jal	t0,516 <__riscv_save_0>
    869a:	842a                	mv	s0,a0
    869c:	4589                	li	a1,2
    869e:	40013537          	lui	a0,0x40013
    86a2:	181010ef          	jal	ra,a022 <SPI_I2S_GetFlagStatus>
    86a6:	d97d                	beqz	a0,869c <flash_spi+0x6>
    86a8:	0442                	slli	s0,s0,0x10
    86aa:	8041                	srli	s0,s0,0x10
    86ac:	400137b7          	lui	a5,0x40013
    86b0:	a7c2                	sh	s0,12(a5)
    86b2:	4405                	li	s0,1
    86b4:	08000593          	li	a1,128
    86b8:	40013537          	lui	a0,0x40013
    86bc:	167010ef          	jal	ra,a022 <SPI_I2S_GetFlagStatus>
    86c0:	fe850ae3          	beq	a0,s0,86b4 <flash_spi+0x1e>
    86c4:	400137b7          	lui	a5,0x40013
    86c8:	27ca                	lhu	a0,12(a5)
    86ca:	0ff57513          	andi	a0,a0,255
    86ce:	e6df706f          	j	53a <__riscv_restore_0>

000086d2 <flash_write_en>:
    86d2:	e45f72ef          	jal	t0,516 <__riscv_save_0>
    86d6:	4585                	li	a1,1
    86d8:	40013537          	lui	a0,0x40013
    86dc:	12f010ef          	jal	ra,a00a <SPI_SSOutputCmd>
    86e0:	4519                	li	a0,6
    86e2:	fb5ff0ef          	jal	ra,8696 <flash_spi>
    86e6:	4581                	li	a1,0
    86e8:	40013537          	lui	a0,0x40013
    86ec:	11f010ef          	jal	ra,a00a <SPI_SSOutputCmd>
    86f0:	e4bf706f          	j	53a <__riscv_restore_0>

000086f4 <flash_is_busy>:
    86f4:	e23f72ef          	jal	t0,516 <__riscv_save_0>
    86f8:	4585                	li	a1,1
    86fa:	40013537          	lui	a0,0x40013
    86fe:	10d010ef          	jal	ra,a00a <SPI_SSOutputCmd>
    8702:	4515                	li	a0,5
    8704:	f93ff0ef          	jal	ra,8696 <flash_spi>
    8708:	0ff00513          	li	a0,255
    870c:	f8bff0ef          	jal	ra,8696 <flash_spi>
    8710:	842a                	mv	s0,a0
    8712:	4581                	li	a1,0
    8714:	40013537          	lui	a0,0x40013
    8718:	0f3010ef          	jal	ra,a00a <SPI_SSOutputCmd>
    871c:	00147513          	andi	a0,s0,1
    8720:	e1bf706f          	j	53a <__riscv_restore_0>

00008724 <flash_erase_chip>:
    8724:	df3f72ef          	jal	t0,516 <__riscv_save_0>
    8728:	fabff0ef          	jal	ra,86d2 <flash_write_en>
    872c:	4585                	li	a1,1
    872e:	40013537          	lui	a0,0x40013
    8732:	0d9010ef          	jal	ra,a00a <SPI_SSOutputCmd>
    8736:	0c700513          	li	a0,199
    873a:	f5dff0ef          	jal	ra,8696 <flash_spi>
    873e:	4581                	li	a1,0
    8740:	40013537          	lui	a0,0x40013
    8744:	0c7010ef          	jal	ra,a00a <SPI_SSOutputCmd>
    8748:	fadff0ef          	jal	ra,86f4 <flash_is_busy>
    874c:	fd75                	bnez	a0,8748 <flash_erase_chip+0x24>
    874e:	dedf706f          	j	53a <__riscv_restore_0>

00008752 <flash_erase_sector>:
    8752:	dc5f72ef          	jal	t0,516 <__riscv_save_0>
    8756:	842a                	mv	s0,a0
    8758:	f7bff0ef          	jal	ra,86d2 <flash_write_en>
    875c:	4585                	li	a1,1
    875e:	40013537          	lui	a0,0x40013
    8762:	0a9010ef          	jal	ra,a00a <SPI_SSOutputCmd>
    8766:	02000513          	li	a0,32
    876a:	f2dff0ef          	jal	ra,8696 <flash_spi>
    876e:	01045513          	srli	a0,s0,0x10
    8772:	0ff57513          	andi	a0,a0,255
    8776:	f21ff0ef          	jal	ra,8696 <flash_spi>
    877a:	00845513          	srli	a0,s0,0x8
    877e:	0ff57513          	andi	a0,a0,255
    8782:	f15ff0ef          	jal	ra,8696 <flash_spi>
    8786:	0ff47513          	andi	a0,s0,255
    878a:	f0dff0ef          	jal	ra,8696 <flash_spi>
    878e:	4581                	li	a1,0
    8790:	40013537          	lui	a0,0x40013
    8794:	077010ef          	jal	ra,a00a <SPI_SSOutputCmd>
    8798:	f5dff0ef          	jal	ra,86f4 <flash_is_busy>
    879c:	fd75                	bnez	a0,8798 <flash_erase_sector+0x46>
    879e:	d9df706f          	j	53a <__riscv_restore_0>

000087a2 <flash_prog>:
    87a2:	d75f72ef          	jal	t0,516 <__riscv_save_0>
    87a6:	1141                	addi	sp,sp,-16
    87a8:	c632                	sw	a2,12(sp)
    87aa:	84aa                	mv	s1,a0
    87ac:	842e                	mv	s0,a1
    87ae:	f25ff0ef          	jal	ra,86d2 <flash_write_en>
    87b2:	4585                	li	a1,1
    87b4:	40013537          	lui	a0,0x40013
    87b8:	053010ef          	jal	ra,a00a <SPI_SSOutputCmd>
    87bc:	4509                	li	a0,2
    87be:	ed9ff0ef          	jal	ra,8696 <flash_spi>
    87c2:	0104d513          	srli	a0,s1,0x10
    87c6:	0ff57513          	andi	a0,a0,255
    87ca:	ecdff0ef          	jal	ra,8696 <flash_spi>
    87ce:	0084d513          	srli	a0,s1,0x8
    87d2:	0ff57513          	andi	a0,a0,255
    87d6:	ec1ff0ef          	jal	ra,8696 <flash_spi>
    87da:	0ff4f513          	andi	a0,s1,255
    87de:	eb9ff0ef          	jal	ra,8696 <flash_spi>
    87e2:	4632                	lw	a2,12(sp)
    87e4:	00c404b3          	add	s1,s0,a2
    87e8:	00941d63          	bne	s0,s1,8802 <flash_prog+0x60>
    87ec:	4581                	li	a1,0
    87ee:	40013537          	lui	a0,0x40013
    87f2:	019010ef          	jal	ra,a00a <SPI_SSOutputCmd>
    87f6:	effff0ef          	jal	ra,86f4 <flash_is_busy>
    87fa:	fd75                	bnez	a0,87f6 <flash_prog+0x54>
    87fc:	0141                	addi	sp,sp,16
    87fe:	d3df706f          	j	53a <__riscv_restore_0>
    8802:	0405                	addi	s0,s0,1
    8804:	fff44503          	lbu	a0,-1(s0)
    8808:	e8fff0ef          	jal	ra,8696 <flash_spi>
    880c:	bff1                	j	87e8 <flash_prog+0x46>

0000880e <flash_read>:
    880e:	d09f72ef          	jal	t0,516 <__riscv_save_0>
    8812:	1141                	addi	sp,sp,-16
    8814:	84aa                	mv	s1,a0
    8816:	842e                	mv	s0,a1
    8818:	40013537          	lui	a0,0x40013
    881c:	4585                	li	a1,1
    881e:	c632                	sw	a2,12(sp)
    8820:	7ea010ef          	jal	ra,a00a <SPI_SSOutputCmd>
    8824:	450d                	li	a0,3
    8826:	e71ff0ef          	jal	ra,8696 <flash_spi>
    882a:	0104d513          	srli	a0,s1,0x10
    882e:	0ff57513          	andi	a0,a0,255
    8832:	e65ff0ef          	jal	ra,8696 <flash_spi>
    8836:	0084d513          	srli	a0,s1,0x8
    883a:	0ff57513          	andi	a0,a0,255
    883e:	e59ff0ef          	jal	ra,8696 <flash_spi>
    8842:	0ff4f513          	andi	a0,s1,255
    8846:	e51ff0ef          	jal	ra,8696 <flash_spi>
    884a:	4632                	lw	a2,12(sp)
    884c:	00c404b3          	add	s1,s0,a2
    8850:	00941a63          	bne	s0,s1,8864 <flash_read+0x56>
    8854:	4581                	li	a1,0
    8856:	40013537          	lui	a0,0x40013
    885a:	7b0010ef          	jal	ra,a00a <SPI_SSOutputCmd>
    885e:	0141                	addi	sp,sp,16
    8860:	cdbf706f          	j	53a <__riscv_restore_0>
    8864:	0ff00513          	li	a0,255
    8868:	0405                	addi	s0,s0,1
    886a:	e2dff0ef          	jal	ra,8696 <flash_spi>
    886e:	fea40fa3          	sb	a0,-1(s0)
    8872:	bff9                	j	8850 <flash_read+0x42>

00008874 <flash_check_erasure>:
    8874:	ca3f72ef          	jal	t0,516 <__riscv_save_0>
    8878:	842a                	mv	s0,a0
    887a:	84ae                	mv	s1,a1
    887c:	40013537          	lui	a0,0x40013
    8880:	4585                	li	a1,1
    8882:	788010ef          	jal	ra,a00a <SPI_SSOutputCmd>
    8886:	450d                	li	a0,3
    8888:	e0fff0ef          	jal	ra,8696 <flash_spi>
    888c:	01045513          	srli	a0,s0,0x10
    8890:	0ff57513          	andi	a0,a0,255
    8894:	e03ff0ef          	jal	ra,8696 <flash_spi>
    8898:	00845513          	srli	a0,s0,0x8
    889c:	0ff57513          	andi	a0,a0,255
    88a0:	df7ff0ef          	jal	ra,8696 <flash_spi>
    88a4:	0ff47513          	andi	a0,s0,255
    88a8:	defff0ef          	jal	ra,8696 <flash_spi>
    88ac:	4401                	li	s0,0
    88ae:	00941b63          	bne	s0,s1,88c4 <flash_check_erasure+0x50>
    88b2:	4401                	li	s0,0
    88b4:	4581                	li	a1,0
    88b6:	40013537          	lui	a0,0x40013
    88ba:	750010ef          	jal	ra,a00a <SPI_SSOutputCmd>
    88be:	8522                	mv	a0,s0
    88c0:	c7bf706f          	j	53a <__riscv_restore_0>
    88c4:	0ff00513          	li	a0,255
    88c8:	dcfff0ef          	jal	ra,8696 <flash_spi>
    88cc:	0ff00793          	li	a5,255
    88d0:	00f51463          	bne	a0,a5,88d8 <flash_check_erasure+0x64>
    88d4:	0405                	addi	s0,s0,1
    88d6:	bfe1                	j	88ae <flash_check_erasure+0x3a>
    88d8:	4405                	li	s0,1
    88da:	bfe9                	j	88b4 <flash_check_erasure+0x40>

000088dc <flash_init>:
    88dc:	c3bf72ef          	jal	t0,516 <__riscv_save_0>
    88e0:	6505                	lui	a0,0x1
    88e2:	1101                	addi	sp,sp,-32
    88e4:	4585                	li	a1,1
    88e6:	0511                	addi	a0,a0,4
    88e8:	51e010ef          	jal	ra,9e06 <RCC_APB2PeriphClockCmd>
    88ec:	0f000793          	li	a5,240
    88f0:	807c                	sh	a5,0(sp)
    88f2:	40011537          	lui	a0,0x40011
    88f6:	478d                	li	a5,3
    88f8:	c23e                	sw	a5,4(sp)
    88fa:	858a                	mv	a1,sp
    88fc:	47e1                	li	a5,24
    88fe:	80050513          	addi	a0,a0,-2048 # 40010800 <__freertos_irq_stack_top+0x20008800>
    8902:	c43e                	sw	a5,8(sp)
    8904:	1ea010ef          	jal	ra,9aee <GPIO_Init>
    8908:	010407b7          	lui	a5,0x1040
    890c:	c63e                	sw	a5,12(sp)
    890e:	020007b7          	lui	a5,0x2000
    8912:	ca3e                	sw	a5,20(sp)
    8914:	006c                	addi	a1,sp,12
    8916:	47a1                	li	a5,8
    8918:	40013537          	lui	a0,0x40013
    891c:	cc3e                	sw	a5,24(sp)
    891e:	c802                	sw	zero,16(sp)
    8920:	692010ef          	jal	ra,9fb2 <SPI_Init>
    8924:	4585                	li	a1,1
    8926:	40013537          	lui	a0,0x40013
    892a:	6c6010ef          	jal	ra,9ff0 <SPI_Cmd>
    892e:	4581                	li	a1,0
    8930:	40013537          	lui	a0,0x40013
    8934:	6d6010ef          	jal	ra,a00a <SPI_SSOutputCmd>
    8938:	4501                	li	a0,0
    893a:	6105                	addi	sp,sp,32
    893c:	bfff706f          	j	53a <__riscv_restore_0>

00008940 <flash_device_info_get>:
    8940:	bd7f72ef          	jal	t0,516 <__riscv_save_0>
    8944:	842a                	mv	s0,a0
    8946:	85aa                	mv	a1,a0
    8948:	0a800613          	li	a2,168
    894c:	4501                	li	a0,0
    894e:	ec1ff0ef          	jal	ra,880e <flash_read>
    8952:	301c                	lbu	a5,1(s0)
    8954:	2008                	lbu	a0,0(s0)
    8956:	07a2                	slli	a5,a5,0x8
    8958:	8fc9                	or	a5,a5,a0
    895a:	2028                	lbu	a0,2(s0)
    895c:	0542                	slli	a0,a0,0x10
    895e:	8fc9                	or	a5,a5,a0
    8960:	3028                	lbu	a0,3(s0)
    8962:	0562                	slli	a0,a0,0x18
    8964:	8d5d                	or	a0,a0,a5
    8966:	b4bdb7b7          	lui	a5,0xb4bdb
    896a:	0a878793          	addi	a5,a5,168 # b4bdb0a8 <__freertos_irq_stack_top+0x94bd30a8>
    896e:	953e                	add	a0,a0,a5
    8970:	00a03533          	snez	a0,a0
    8974:	bc7f706f          	j	53a <__riscv_restore_0>

00008978 <flash_device_info_set>:
    8978:	b9ff72ef          	jal	t0,516 <__riscv_save_0>
    897c:	842a                	mv	s0,a0
    897e:	4501                	li	a0,0
    8980:	dd3ff0ef          	jal	ra,8752 <flash_erase_sector>
    8984:	0a800593          	li	a1,168
    8988:	4501                	li	a0,0
    898a:	eebff0ef          	jal	ra,8874 <flash_check_erasure>
    898e:	4485                	li	s1,1
    8990:	e11d                	bnez	a0,89b6 <flash_device_info_set+0x3e>
    8992:	05800793          	li	a5,88
    8996:	a01c                	sb	a5,0(s0)
    8998:	04f00793          	li	a5,79
    899c:	b01c                	sb	a5,1(s0)
    899e:	04200793          	li	a5,66
    89a2:	a03c                	sb	a5,2(s0)
    89a4:	04b00793          	li	a5,75
    89a8:	b03c                	sb	a5,3(s0)
    89aa:	0a800613          	li	a2,168
    89ae:	85a2                	mv	a1,s0
    89b0:	84aa                	mv	s1,a0
    89b2:	df1ff0ef          	jal	ra,87a2 <flash_prog>
    89b6:	8526                	mv	a0,s1
    89b8:	b83f706f          	j	53a <__riscv_restore_0>

000089bc <flash_user_count>:
    89bc:	b41f72ef          	jal	t0,4fc <__riscv_save_4>
    89c0:	1141                	addi	sp,sp,-16
    89c2:	4401                	li	s0,0
    89c4:	20000937          	lui	s2,0x20000
    89c8:	08100993          	li	s3,129
    89cc:	00140493          	addi	s1,s0,1
    89d0:	4641                	li	a2,16
    89d2:	858a                	mv	a1,sp
    89d4:	00c49513          	slli	a0,s1,0xc
    89d8:	e37ff0ef          	jal	ra,880e <flash_read>
    89dc:	4641                	li	a2,16
    89de:	00090593          	mv	a1,s2
    89e2:	850a                	mv	a0,sp
    89e4:	634030ef          	jal	ra,c018 <memcmp>
    89e8:	e509                	bnez	a0,89f2 <flash_user_count+0x36>
    89ea:	8522                	mv	a0,s0
    89ec:	0141                	addi	sp,sp,16
    89ee:	b43f706f          	j	530 <__riscv_restore_4>
    89f2:	8426                	mv	s0,s1
    89f4:	fd349ce3          	bne	s1,s3,89cc <flash_user_count+0x10>
    89f8:	08000413          	li	s0,128
    89fc:	b7fd                	j	89ea <flash_user_count+0x2e>

000089fe <flash_user_get_at>:
    89fe:	08000793          	li	a5,128
    8a02:	02a7e863          	bltu	a5,a0,8a32 <flash_user_get_at+0x34>
    8a06:	b11f72ef          	jal	t0,516 <__riscv_save_0>
    8a0a:	0505                	addi	a0,a0,1
    8a0c:	05100613          	li	a2,81
    8a10:	0532                	slli	a0,a0,0xc
    8a12:	842e                	mv	s0,a1
    8a14:	dfbff0ef          	jal	ra,880e <flash_read>
    8a18:	200005b7          	lui	a1,0x20000
    8a1c:	4641                	li	a2,16
    8a1e:	00058593          	mv	a1,a1
    8a22:	8522                	mv	a0,s0
    8a24:	5f4030ef          	jal	ra,c018 <memcmp>
    8a28:	00153513          	seqz	a0,a0
    8a2c:	0506                	slli	a0,a0,0x1
    8a2e:	b0df706f          	j	53a <__riscv_restore_0>
    8a32:	4505                	li	a0,1
    8a34:	8082                	ret

00008a36 <flash_user_search>:
    8a36:	ac7f72ef          	jal	t0,4fc <__riscv_save_4>
    8a3a:	1141                	addi	sp,sp,-16
    8a3c:	8b2a                	mv	s6,a0
    8a3e:	892e                	mv	s2,a1
    8a40:	89b2                	mv	s3,a2
    8a42:	4401                	li	s0,0
    8a44:	20000ab7          	lui	s5,0x20000
    8a48:	00140493          	addi	s1,s0,1
    8a4c:	00c49a13          	slli	s4,s1,0xc
    8a50:	4641                	li	a2,16
    8a52:	858a                	mv	a1,sp
    8a54:	8552                	mv	a0,s4
    8a56:	db9ff0ef          	jal	ra,880e <flash_read>
    8a5a:	4641                	li	a2,16
    8a5c:	85da                	mv	a1,s6
    8a5e:	850a                	mv	a0,sp
    8a60:	5b8030ef          	jal	ra,c018 <memcmp>
    8a64:	e10d                	bnez	a0,8a86 <flash_user_search+0x50>
    8a66:	00090863          	beqz	s2,8a76 <flash_user_search+0x40>
    8a6a:	05100613          	li	a2,81
    8a6e:	85ca                	mv	a1,s2
    8a70:	8552                	mv	a0,s4
    8a72:	d9dff0ef          	jal	ra,880e <flash_read>
    8a76:	4501                	li	a0,0
    8a78:	00098463          	beqz	s3,8a80 <flash_user_search+0x4a>
    8a7c:	0089a023          	sw	s0,0(s3)
    8a80:	0141                	addi	sp,sp,16
    8a82:	aaff706f          	j	530 <__riscv_restore_4>
    8a86:	4641                	li	a2,16
    8a88:	000a8593          	mv	a1,s5
    8a8c:	850a                	mv	a0,sp
    8a8e:	58a030ef          	jal	ra,c018 <memcmp>
    8a92:	8426                	mv	s0,s1
    8a94:	f955                	bnez	a0,8a48 <flash_user_search+0x12>
    8a96:	4505                	li	a0,1
    8a98:	b7e5                	j	8a80 <flash_user_search+0x4a>

00008a9a <flash_user_add>:
    8a9a:	a7df72ef          	jal	t0,516 <__riscv_save_0>
    8a9e:	892a                	mv	s2,a0
    8aa0:	f1dff0ef          	jal	ra,89bc <flash_user_count>
    8aa4:	07f00793          	li	a5,127
    8aa8:	4485                	li	s1,1
    8aaa:	02a7c263          	blt	a5,a0,8ace <flash_user_add+0x34>
    8aae:	0505                	addi	a0,a0,1
    8ab0:	00c51413          	slli	s0,a0,0xc
    8ab4:	05100593          	li	a1,81
    8ab8:	8522                	mv	a0,s0
    8aba:	dbbff0ef          	jal	ra,8874 <flash_check_erasure>
    8abe:	84aa                	mv	s1,a0
    8ac0:	e911                	bnez	a0,8ad4 <flash_user_add+0x3a>
    8ac2:	05100613          	li	a2,81
    8ac6:	85ca                	mv	a1,s2
    8ac8:	8522                	mv	a0,s0
    8aca:	cd9ff0ef          	jal	ra,87a2 <flash_prog>
    8ace:	8526                	mv	a0,s1
    8ad0:	a6bf706f          	j	53a <__riscv_restore_0>
    8ad4:	4489                	li	s1,2
    8ad6:	bfe5                	j	8ace <flash_user_add+0x34>

00008ad8 <flash_user_overwrite>:
    8ad8:	a3ff72ef          	jal	t0,516 <__riscv_save_0>
    8adc:	0585                	addi	a1,a1,1
    8ade:	00c59413          	slli	s0,a1,0xc
    8ae2:	892a                	mv	s2,a0
    8ae4:	8522                	mv	a0,s0
    8ae6:	c6dff0ef          	jal	ra,8752 <flash_erase_sector>
    8aea:	6585                	lui	a1,0x1
    8aec:	8522                	mv	a0,s0
    8aee:	d87ff0ef          	jal	ra,8874 <flash_check_erasure>
    8af2:	4485                	li	s1,1
    8af4:	e901                	bnez	a0,8b04 <flash_user_overwrite+0x2c>
    8af6:	84aa                	mv	s1,a0
    8af8:	05100613          	li	a2,81
    8afc:	85ca                	mv	a1,s2
    8afe:	8522                	mv	a0,s0
    8b00:	ca3ff0ef          	jal	ra,87a2 <flash_prog>
    8b04:	8526                	mv	a0,s1
    8b06:	a35f706f          	j	53a <__riscv_restore_0>

00008b0a <flash_user_block>:
    8b0a:	9f3f72ef          	jal	t0,4fc <__riscv_save_4>
    8b0e:	1101                	addi	sp,sp,-32
    8b10:	89aa                	mv	s3,a0
    8b12:	6405                	lui	s0,0x1
    8b14:	20000937          	lui	s2,0x20000
    8b18:	6485                	lui	s1,0x1
    8b1a:	4641                	li	a2,16
    8b1c:	080c                	addi	a1,sp,16
    8b1e:	8522                	mv	a0,s0
    8b20:	cefff0ef          	jal	ra,880e <flash_read>
    8b24:	4641                	li	a2,16
    8b26:	85ce                	mv	a1,s3
    8b28:	0808                	addi	a0,sp,16
    8b2a:	4ee030ef          	jal	ra,c018 <memcmp>
    8b2e:	ed11                	bnez	a0,8b4a <flash_user_block+0x40>
    8b30:	05040513          	addi	a0,s0,80 # 1050 <fe_mul+0x5bc>
    8b34:	4605                	li	a2,1
    8b36:	00f10593          	addi	a1,sp,15
    8b3a:	000107a3          	sb	zero,15(sp)
    8b3e:	c65ff0ef          	jal	ra,87a2 <flash_prog>
    8b42:	4501                	li	a0,0
    8b44:	6105                	addi	sp,sp,32
    8b46:	9ebf706f          	j	530 <__riscv_restore_4>
    8b4a:	4641                	li	a2,16
    8b4c:	00090593          	mv	a1,s2
    8b50:	0808                	addi	a0,sp,16
    8b52:	4c6030ef          	jal	ra,c018 <memcmp>
    8b56:	9426                	add	s0,s0,s1
    8b58:	f169                	bnez	a0,8b1a <flash_user_block+0x10>
    8b5a:	4505                	li	a0,1
    8b5c:	b7e5                	j	8b44 <flash_user_block+0x3a>

00008b5e <keyfob>:
    8b5e:	9b9f72ef          	jal	t0,516 <__riscv_save_0>
    8b62:	842a                	mv	s0,a0
    8b64:	40011537          	lui	a0,0x40011
    8b68:	c0050513          	addi	a0,a0,-1024 # 40010c00 <__freertos_irq_stack_top+0x20008c00>
    8b6c:	84ae                	mv	s1,a1
    8b6e:	08000593          	li	a1,128
    8b72:	046010ef          	jal	ra,9bb8 <GPIO_SetBits>
    8b76:	1f400513          	li	a0,500
    8b7a:	039020ef          	jal	ra,b3b2 <vTaskDelay>
    8b7e:	00147593          	andi	a1,s0,1
    8b82:	00247793          	andi	a5,s0,2
    8b86:	059a                	slli	a1,a1,0x6
    8b88:	c399                	beqz	a5,8b8e <keyfob+0x30>
    8b8a:	0205e593          	ori	a1,a1,32
    8b8e:	00447793          	andi	a5,s0,4
    8b92:	c399                	beqz	a5,8b98 <keyfob+0x3a>
    8b94:	0105e593          	ori	a1,a1,16
    8b98:	8821                	andi	s0,s0,8
    8b9a:	c019                	beqz	s0,8ba0 <keyfob+0x42>
    8b9c:	0085e593          	ori	a1,a1,8
    8ba0:	40011437          	lui	s0,0x40011
    8ba4:	c0040513          	addi	a0,s0,-1024 # 40010c00 <__freertos_irq_stack_top+0x20008c00>
    8ba8:	010010ef          	jal	ra,9bb8 <GPIO_SetBits>
    8bac:	0485                	addi	s1,s1,1
    8bae:	0fa00513          	li	a0,250
    8bb2:	02a48533          	mul	a0,s1,a0
    8bb6:	7fc020ef          	jal	ra,b3b2 <vTaskDelay>
    8bba:	07800593          	li	a1,120
    8bbe:	c0040513          	addi	a0,s0,-1024
    8bc2:	7fb000ef          	jal	ra,9bbc <GPIO_ResetBits>
    8bc6:	1f400513          	li	a0,500
    8bca:	7e8020ef          	jal	ra,b3b2 <vTaskDelay>
    8bce:	08000593          	li	a1,128
    8bd2:	c0040513          	addi	a0,s0,-1024
    8bd6:	7e7000ef          	jal	ra,9bbc <GPIO_ResetBits>
    8bda:	961f706f          	j	53a <__riscv_restore_0>

00008bde <keyfob_task>:
    8bde:	939f72ef          	jal	t0,516 <__riscv_save_0>
    8be2:	1141                	addi	sp,sp,-16
    8be4:	20000437          	lui	s0,0x20000
    8be8:	4485                	li	s1,1
    8bea:	0c042503          	lw	a0,192(s0) # 200000c0 <keyfob_cmd>
    8bee:	567d                	li	a2,-1
    8bf0:	006c                	addi	a1,sp,12
    8bf2:	6bb010ef          	jal	ra,aaac <xQueueReceive>
    8bf6:	fe951ae3          	bne	a0,s1,8bea <keyfob_task+0xc>
    8bfa:	868c                	lbu	a1,13(sp)
    8bfc:	8608                	lbu	a0,12(sp)
    8bfe:	f61ff0ef          	jal	ra,8b5e <keyfob>
    8c02:	b7e5                	j	8bea <keyfob_task+0xc>

00008c04 <keyfob_set>:
    8c04:	913f72ef          	jal	t0,516 <__riscv_save_0>
    8c08:	1141                	addi	sp,sp,-16
    8c0a:	200007b7          	lui	a5,0x20000
    8c0e:	8648                	sb	a0,12(sp)
    8c10:	0c07a503          	lw	a0,192(a5) # 200000c0 <keyfob_cmd>
    8c14:	86cc                	sb	a1,13(sp)
    8c16:	4681                	li	a3,0
    8c18:	006c                	addi	a1,sp,12
    8c1a:	4601                	li	a2,0
    8c1c:	3c1010ef          	jal	ra,a7dc <xQueueGenericSend>
    8c20:	0141                	addi	sp,sp,16
    8c22:	919f706f          	j	53a <__riscv_restore_0>

00008c26 <keyfob_init>:
    8c26:	8f1f72ef          	jal	t0,516 <__riscv_save_0>
    8c2a:	1141                	addi	sp,sp,-16
    8c2c:	4585                	li	a1,1
    8c2e:	4521                	li	a0,8
    8c30:	1d6010ef          	jal	ra,9e06 <RCC_APB2PeriphClockCmd>
    8c34:	47c1                	li	a5,16
    8c36:	c63e                	sw	a5,12(sp)
    8c38:	40011437          	lui	s0,0x40011
    8c3c:	4789                	li	a5,2
    8c3e:	c43e                	sw	a5,8(sp)
    8c40:	004c                	addi	a1,sp,4
    8c42:	0f800793          	li	a5,248
    8c46:	c0040513          	addi	a0,s0,-1024 # 40010c00 <__freertos_irq_stack_top+0x20008c00>
    8c4a:	827c                	sh	a5,4(sp)
    8c4c:	6a3000ef          	jal	ra,9aee <GPIO_Init>
    8c50:	822c                	lhu	a1,4(sp)
    8c52:	c0040513          	addi	a0,s0,-1024
    8c56:	767000ef          	jal	ra,9bbc <GPIO_ResetBits>
    8c5a:	4601                	li	a2,0
    8c5c:	4589                	li	a1,2
    8c5e:	04000513          	li	a0,64
    8c62:	30d010ef          	jal	ra,a76e <xQueueGenericCreate>
    8c66:	20000737          	lui	a4,0x20000
    8c6a:	87aa                	mv	a5,a0
    8c6c:	0ca72023          	sw	a0,192(a4) # 200000c0 <keyfob_cmd>
    8c70:	4509                	li	a0,2
    8c72:	c39d                	beqz	a5,8c98 <keyfob_init+0x72>
    8c74:	000155b7          	lui	a1,0x15
    8c78:	00009537          	lui	a0,0x9
    8c7c:	4781                	li	a5,0
    8c7e:	4715                	li	a4,5
    8c80:	4681                	li	a3,0
    8c82:	10000613          	li	a2,256
    8c86:	d0858593          	addi	a1,a1,-760 # 14d08 <K+0x2d0>
    8c8a:	bde50513          	addi	a0,a0,-1058 # 8bde <keyfob_task>
    8c8e:	160020ef          	jal	ra,adee <xTaskCreate>
    8c92:	157d                	addi	a0,a0,-1
    8c94:	00a03533          	snez	a0,a0
    8c98:	0141                	addi	sp,sp,16
    8c9a:	8a1f706f          	j	53a <__riscv_restore_0>

00008c9e <led_set>:
    8c9e:	879f72ef          	jal	t0,516 <__riscv_save_0>
    8ca2:	842a                	mv	s0,a0
    8ca4:	459d                	li	a1,7
    8ca6:	40011537          	lui	a0,0x40011
    8caa:	713000ef          	jal	ra,9bbc <GPIO_ResetBits>
    8cae:	00747593          	andi	a1,s0,7
    8cb2:	40011537          	lui	a0,0x40011
    8cb6:	703000ef          	jal	ra,9bb8 <GPIO_SetBits>
    8cba:	881f706f          	j	53a <__riscv_restore_0>

00008cbe <led_set_state>:
    8cbe:	859f72ef          	jal	t0,516 <__riscv_save_0>
    8cc2:	1141                	addi	sp,sp,-16
    8cc4:	200007b7          	lui	a5,0x20000
    8cc8:	87c8                	sb	a0,15(sp)
    8cca:	0c47a503          	lw	a0,196(a5) # 200000c4 <led_state>
    8cce:	00f10593          	addi	a1,sp,15
    8cd2:	4681                	li	a3,0
    8cd4:	4601                	li	a2,0
    8cd6:	307010ef          	jal	ra,a7dc <xQueueGenericSend>
    8cda:	0141                	addi	sp,sp,16
    8cdc:	85ff706f          	j	53a <__riscv_restore_0>

00008ce0 <led_time_set>:
    8ce0:	837f72ef          	jal	t0,516 <__riscv_save_0>
    8ce4:	1141                	addi	sp,sp,-16
    8ce6:	c432                	sw	a2,8(sp)
    8ce8:	c62e                	sw	a1,12(sp)
    8cea:	fb5ff0ef          	jal	ra,8c9e <led_set>
    8cee:	45b2                	lw	a1,12(sp)
    8cf0:	852e                	mv	a0,a1
    8cf2:	6c0020ef          	jal	ra,b3b2 <vTaskDelay>
    8cf6:	4501                	li	a0,0
    8cf8:	fa7ff0ef          	jal	ra,8c9e <led_set>
    8cfc:	4622                	lw	a2,8(sp)
    8cfe:	8532                	mv	a0,a2
    8d00:	6b2020ef          	jal	ra,b3b2 <vTaskDelay>
    8d04:	0141                	addi	sp,sp,16
    8d06:	835f706f          	j	53a <__riscv_restore_0>

00008d0a <led_task>:
    8d0a:	ff2f72ef          	jal	t0,4fc <__riscv_save_4>
    8d0e:	1141                	addi	sp,sp,-16
    8d10:	06400613          	li	a2,100
    8d14:	3e800593          	li	a1,1000
    8d18:	451d                	li	a0,7
    8d1a:	fc7ff0ef          	jal	ra,8ce0 <led_time_set>
    8d1e:	4401                	li	s0,0
    8d20:	000107a3          	sb	zero,15(sp)
    8d24:	200004b7          	lui	s1,0x20000
    8d28:	4905                	li	s2,1
    8d2a:	4989                	li	s3,2
    8d2c:	4a0d                	li	s4,3
    8d2e:	6ab000ef          	jal	ra,9bd8 <IWDG_ReloadCounter>
    8d32:	0c44a503          	lw	a0,196(s1) # 200000c4 <led_state>
    8d36:	4615                	li	a2,5
    8d38:	00f10593          	addi	a1,sp,15
    8d3c:	571010ef          	jal	ra,aaac <xQueueReceive>
    8d40:	879c                	lbu	a5,15(sp)
    8d42:	01278d63          	beq	a5,s2,8d5c <led_task+0x52>
    8d46:	c395                	beqz	a5,8d6a <led_task+0x60>
    8d48:	03378a63          	beq	a5,s3,8d7c <led_task+0x72>
    8d4c:	ff4791e3          	bne	a5,s4,8d2e <led_task+0x24>
    8d50:	06400613          	li	a2,100
    8d54:	06400593          	li	a1,100
    8d58:	4505                	li	a0,1
    8d5a:	a829                	j	8d74 <led_task+0x6a>
    8d5c:	03200613          	li	a2,50
    8d60:	03200593          	li	a1,50
    8d64:	4515                	li	a0,5
    8d66:	f7bff0ef          	jal	ra,8ce0 <led_time_set>
    8d6a:	1f400613          	li	a2,500
    8d6e:	03200593          	li	a1,50
    8d72:	4515                	li	a0,5
    8d74:	f6dff0ef          	jal	ra,8ce0 <led_time_set>
    8d78:	8780                	lbu	s0,15(sp)
    8d7a:	bf55                	j	8d2e <led_task+0x24>
    8d7c:	1f400613          	li	a2,500
    8d80:	1f400593          	li	a1,500
    8d84:	4509                	li	a0,2
    8d86:	f5bff0ef          	jal	ra,8ce0 <led_time_set>
    8d8a:	87c0                	sb	s0,15(sp)
    8d8c:	b74d                	j	8d2e <led_task+0x24>

00008d8e <led_init>:
    8d8e:	f88f72ef          	jal	t0,516 <__riscv_save_0>
    8d92:	1141                	addi	sp,sp,-16
    8d94:	4585                	li	a1,1
    8d96:	4541                	li	a0,16
    8d98:	06e010ef          	jal	ra,9e06 <RCC_APB2PeriphClockCmd>
    8d9c:	47c1                	li	a5,16
    8d9e:	c63e                	sw	a5,12(sp)
    8da0:	4789                	li	a5,2
    8da2:	c43e                	sw	a5,8(sp)
    8da4:	004c                	addi	a1,sp,4
    8da6:	479d                	li	a5,7
    8da8:	40011537          	lui	a0,0x40011
    8dac:	827c                	sh	a5,4(sp)
    8dae:	541000ef          	jal	ra,9aee <GPIO_Init>
    8db2:	822c                	lhu	a1,4(sp)
    8db4:	40011537          	lui	a0,0x40011
    8db8:	605000ef          	jal	ra,9bbc <GPIO_ResetBits>
    8dbc:	4601                	li	a2,0
    8dbe:	4585                	li	a1,1
    8dc0:	04000513          	li	a0,64
    8dc4:	1ab010ef          	jal	ra,a76e <xQueueGenericCreate>
    8dc8:	20000737          	lui	a4,0x20000
    8dcc:	87aa                	mv	a5,a0
    8dce:	0ca72223          	sw	a0,196(a4) # 200000c4 <led_state>
    8dd2:	4509                	li	a0,2
    8dd4:	c39d                	beqz	a5,8dfa <led_init+0x6c>
    8dd6:	000155b7          	lui	a1,0x15
    8dda:	00009537          	lui	a0,0x9
    8dde:	4781                	li	a5,0
    8de0:	4715                	li	a4,5
    8de2:	4681                	li	a3,0
    8de4:	10000613          	li	a2,256
    8de8:	d1058593          	addi	a1,a1,-752 # 14d10 <K+0x2d8>
    8dec:	d0a50513          	addi	a0,a0,-758 # 8d0a <led_task>
    8df0:	7ff010ef          	jal	ra,adee <xTaskCreate>
    8df4:	157d                	addi	a0,a0,-1
    8df6:	00a03533          	snez	a0,a0
    8dfa:	0141                	addi	sp,sp,16
    8dfc:	f3ef706f          	j	53a <__riscv_restore_0>

00008e00 <app_get_reset_reason>:
    8e00:	200007b7          	lui	a5,0x20000
    8e04:	0cd7c503          	lbu	a0,205(a5) # 200000cd <reason.6048>
    8e08:	0cd78793          	addi	a5,a5,205
    8e0c:	e921                	bnez	a0,8e5c <app_get_reset_reason+0x5c>
    8e0e:	400216b7          	lui	a3,0x40021
    8e12:	52d8                	lw	a4,36(a3)
    8e14:	01000637          	lui	a2,0x1000
    8e18:	d2d0                	sw	a2,36(a3)
    8e1a:	00074663          	bltz	a4,8e26 <app_get_reset_reason+0x26>
    8e1e:	00471693          	slli	a3,a4,0x4
    8e22:	0006d463          	bgez	a3,8e2a <app_get_reset_reason+0x2a>
    8e26:	4685                	li	a3,1
    8e28:	a394                	sb	a3,0(a5)
    8e2a:	600006b7          	lui	a3,0x60000
    8e2e:	8ef9                	and	a3,a3,a4
    8e30:	c689                	beqz	a3,8e3a <app_get_reset_reason+0x3a>
    8e32:	2394                	lbu	a3,0(a5)
    8e34:	0026e693          	ori	a3,a3,2
    8e38:	a394                	sb	a3,0(a5)
    8e3a:	00371693          	slli	a3,a4,0x3
    8e3e:	0006d663          	bgez	a3,8e4a <app_get_reset_reason+0x4a>
    8e42:	2394                	lbu	a3,0(a5)
    8e44:	0046e693          	ori	a3,a3,4
    8e48:	a394                	sb	a3,0(a5)
    8e4a:	00571693          	slli	a3,a4,0x5
    8e4e:	0006d663          	bgez	a3,8e5a <app_get_reset_reason+0x5a>
    8e52:	2398                	lbu	a4,0(a5)
    8e54:	00876713          	ori	a4,a4,8
    8e58:	a398                	sb	a4,0(a5)
    8e5a:	2388                	lbu	a0,0(a5)
    8e5c:	8082                	ret

00008e5e <app_out_generate>:
    8e5e:	eb8f72ef          	jal	t0,516 <__riscv_save_0>
    8e62:	b5018413          	addi	s0,gp,-1200 # 200003e0 <app_out>
    8e66:	1141                	addi	sp,sp,-16
    8e68:	4785                	li	a5,1
    8e6a:	84aa                	mv	s1,a0
    8e6c:	c62e                	sw	a1,12(sp)
    8e6e:	c432                	sw	a2,8(sp)
    8e70:	a01c                	sb	a5,0(s0)
    8e72:	0f7000ef          	jal	ra,9768 <rtc_get>
    8e76:	00855793          	srli	a5,a0,0x8
    8e7a:	a03c                	sb	a5,2(s0)
    8e7c:	01055793          	srli	a5,a0,0x10
    8e80:	b03c                	sb	a5,3(s0)
    8e82:	4622                	lw	a2,8(sp)
    8e84:	a771c783          	lbu	a5,-1417(gp) # 20000307 <app_in+0x17>
    8e88:	45b2                	lw	a1,12(sp)
    8e8a:	b008                	sb	a0,1(s0)
    8e8c:	8161                	srli	a0,a0,0x18
    8e8e:	a048                	sb	a0,4(s0)
    8e90:	00840513          	addi	a0,s0,8
    8e94:	b05c                	sb	a5,5(s0)
    8e96:	a064                	sb	s1,6(s0)
    8e98:	b070                	sb	a2,7(s0)
    8e9a:	1a2030ef          	jal	ra,c03c <memcpy>
    8e9e:	8526                	mv	a0,s1
    8ea0:	0141                	addi	sp,sp,16
    8ea2:	e98f706f          	j	53a <__riscv_restore_0>

00008ea6 <app_out_generate_short>:
    8ea6:	e70f72ef          	jal	t0,516 <__riscv_save_0>
    8eaa:	4601                	li	a2,0
    8eac:	4581                	li	a1,0
    8eae:	fb1ff0ef          	jal	ra,8e5e <app_out_generate>
    8eb2:	e88f706f          	j	53a <__riscv_restore_0>

00008eb6 <rtc_check_range>:
    8eb6:	e60f72ef          	jal	t0,516 <__riscv_save_0>
    8eba:	1141                	addi	sp,sp,-16
    8ebc:	c62e                	sw	a1,12(sp)
    8ebe:	842a                	mv	s0,a0
    8ec0:	0a9000ef          	jal	ra,9768 <rtc_get>
    8ec4:	45b2                	lw	a1,12(sp)
    8ec6:	40b507b3          	sub	a5,a0,a1
    8eca:	0087da63          	bge	a5,s0,8ede <rtc_check_range+0x28>
    8ece:	952e                	add	a0,a0,a1
    8ed0:	00a42533          	slt	a0,s0,a0
    8ed4:	00154513          	xori	a0,a0,1
    8ed8:	0141                	addi	sp,sp,16
    8eda:	e60f706f          	j	53a <__riscv_restore_0>
    8ede:	4505                	li	a0,1
    8ee0:	bfe5                	j	8ed8 <rtc_check_range+0x22>

00008ee2 <app_check_new_name>:
    8ee2:	e34f72ef          	jal	t0,516 <__riscv_save_0>
    8ee6:	02000593          	li	a1,32
    8eea:	4bc030ef          	jal	ra,c3a6 <strnlen>
    8eee:	4789                	li	a5,2
    8ef0:	00a7f863          	bgeu	a5,a0,8f00 <app_check_new_name+0x1e>
    8ef4:	47fd                	li	a5,31
    8ef6:	00a7b533          	sltu	a0,a5,a0
    8efa:	0506                	slli	a0,a0,0x1
    8efc:	e3ef706f          	j	53a <__riscv_restore_0>
    8f00:	4505                	li	a0,1
    8f02:	bfed                	j	8efc <app_check_new_name+0x1a>

00008f04 <app_generate_nonce>:
    8f04:	e12f72ef          	jal	t0,516 <__riscv_save_0>
    8f08:	20000537          	lui	a0,0x20000
    8f0c:	4585                	li	a1,1
    8f0e:	0c850513          	addi	a0,a0,200 # 200000c8 <app_expected_nonce>
    8f12:	668000ef          	jal	ra,957a <rng_get>
    8f16:	200007b7          	lui	a5,0x20000
    8f1a:	4705                	li	a4,1
    8f1c:	0ce78623          	sb	a4,204(a5) # 200000cc <app_nonce_active>
    8f20:	e1af706f          	j	53a <__riscv_restore_0>

00008f24 <app_in_logic>:
    8f24:	dcaf72ef          	jal	t0,4ee <__riscv_save_10>
    8f28:	1141                	addi	sp,sp,-16
    8f2a:	0f000613          	li	a2,240
    8f2e:	c3418593          	addi	a1,gp,-972 # 200004c4 <app_raw>
    8f32:	a6018513          	addi	a0,gp,-1440 # 200002f0 <app_in>
    8f36:	106030ef          	jal	ra,c03c <memcpy>
    8f3a:	a6018493          	addi	s1,gp,-1440 # 200002f0 <app_in>
    8f3e:	2098                	lbu	a4,0(s1)
    8f40:	4785                	li	a5,1
    8f42:	4509                	li	a0,2
    8f44:	04f71d63          	bne	a4,a5,8f9e <app_in_logic+0x7a>
    8f48:	2c98                	lbu	a4,24(s1)
    8f4a:	09700793          	li	a5,151
    8f4e:	00e7f463          	bgeu	a5,a4,8f56 <app_in_logic+0x32>
    8f52:	4519                	li	a0,6
    8f54:	a0a9                	j	8f9e <app_in_logic+0x7a>
    8f56:	409c                	lw	a5,0(s1)
    8f58:	1ffff737          	lui	a4,0x1ffff
    8f5c:	7e875703          	lhu	a4,2024(a4) # 1ffff7e8 <_data_lma+0x1ffea900>
    8f60:	83a1                	srli	a5,a5,0x8
    8f62:	07c2                	slli	a5,a5,0x10
    8f64:	83c1                	srli	a5,a5,0x10
    8f66:	4505                	li	a0,1
    8f68:	02e79b63          	bne	a5,a4,8f9e <app_in_logic+0x7a>
    8f6c:	7fc000ef          	jal	ra,9768 <rtc_get>
    8f70:	a6018413          	addi	s0,gp,-1440 # 200002f0 <app_in>
    8f74:	8aaa                	mv	s5,a0
    8f76:	02a05763          	blez	a0,8fa4 <app_in_logic+0x80>
    8f7a:	4848                	lw	a0,20(s0)
    8f7c:	383c                	lbu	a5,19(s0)
    8f7e:	3878                	lbu	a4,23(s0)
    8f80:	0522                	slli	a0,a0,0x8
    8f82:	8d5d                	or	a0,a0,a5
    8f84:	06900793          	li	a5,105
    8f88:	12c00593          	li	a1,300
    8f8c:	00f71563          	bne	a4,a5,8f96 <app_in_logic+0x72>
    8f90:	65d5                	lui	a1,0x15
    8f92:	18058593          	addi	a1,a1,384 # 15180 <_data_lma+0x298>
    8f96:	f21ff0ef          	jal	ra,8eb6 <rtc_check_range>
    8f9a:	c509                	beqz	a0,8fa4 <app_in_logic+0x80>
    8f9c:	4525                	li	a0,9
    8f9e:	f09ff0ef          	jal	ra,8ea6 <app_out_generate_short>
    8fa2:	aacd                	j	9194 <app_in_logic+0x270>
    8fa4:	4601                	li	a2,0
    8fa6:	dbc18593          	addi	a1,gp,-580 # 2000064c <app_user_info>
    8faa:	00340513          	addi	a0,s0,3
    8fae:	a89ff0ef          	jal	ra,8a36 <flash_user_search>
    8fb2:	dbc18a13          	addi	s4,gp,-580 # 2000064c <app_user_info>
    8fb6:	dbc18b13          	addi	s6,gp,-580 # 2000064c <app_user_info>
    8fba:	a6318993          	addi	s3,gp,-1437 # 200002f3 <app_in+0x3>
    8fbe:	e509                	bnez	a0,8fc8 <app_in_logic+0xa4>
    8fc0:	050a4783          	lbu	a5,80(s4)
    8fc4:	4529                	li	a0,10
    8fc6:	dfe1                	beqz	a5,8f9e <app_in_logic+0x7a>
    8fc8:	3878                	lbu	a4,23(s0)
    8fca:	06300793          	li	a5,99
    8fce:	08e7f763          	bgeu	a5,a4,905c <app_in_logic+0x138>
    8fd2:	4601                	li	a2,0
    8fd4:	dbc18593          	addi	a1,gp,-580 # 2000064c <app_user_info>
    8fd8:	854e                	mv	a0,s3
    8fda:	a5dff0ef          	jal	ra,8a36 <flash_user_search>
    8fde:	c119                	beqz	a0,8fe4 <app_in_logic+0xc0>
    8fe0:	450d                	li	a0,3
    8fe2:	bf75                	j	8f9e <app_in_logic+0x7a>
    8fe4:	01744b83          	lbu	s7,23(s0)
    8fe8:	06400793          	li	a5,100
    8fec:	04fb8b63          	beq	s7,a5,9042 <app_in_logic+0x11e>
    8ff0:	20000a37          	lui	s4,0x20000
    8ff4:	0cca0a13          	addi	s4,s4,204 # 200000cc <app_nonce_active>
    8ff8:	000a4783          	lbu	a5,0(s4)
    8ffc:	c789                	beqz	a5,9006 <app_in_logic+0xe2>
    8ffe:	2c18                	lbu	a4,24(s0)
    9000:	478d                	li	a5,3
    9002:	00e7e463          	bltu	a5,a4,900a <app_in_logic+0xe6>
    9006:	4531                	li	a0,12
    9008:	bf59                	j	8f9e <app_in_logic+0x7a>
    900a:	200005b7          	lui	a1,0x20000
    900e:	0c858c13          	addi	s8,a1,200 # 200000c8 <app_expected_nonce>
    9012:	4611                	li	a2,4
    9014:	0c858593          	addi	a1,a1,200
    9018:	01940513          	addi	a0,s0,25
    901c:	7fd020ef          	jal	ra,c018 <memcmp>
    9020:	f17d                	bnez	a0,9006 <app_in_logic+0xe2>
    9022:	000c2023          	sw	zero,0(s8)
    9026:	000a0023          	sb	zero,0(s4)
    902a:	06d00793          	li	a5,109
    902e:	00fb9a63          	bne	s7,a5,9042 <app_in_logic+0x11e>
    9032:	c3418513          	addi	a0,gp,-972 # 200004c4 <app_raw>
    9036:	03000613          	li	a2,48
    903a:	4581                	li	a1,0
    903c:	0565                	addi	a0,a0,25
    903e:	d08f70ef          	jal	ra,546 <memset>
    9042:	010b0693          	addi	a3,s6,16
    9046:	0b000613          	li	a2,176
    904a:	c3418593          	addi	a1,gp,-972 # 200004c4 <app_raw>
    904e:	0b040513          	addi	a0,s0,176
    9052:	fc3fe0ef          	jal	ra,8014 <ed25519_verify>
    9056:	e119                	bnez	a0,905c <app_in_logic+0x138>
    9058:	4511                	li	a0,4
    905a:	b791                	j	8f9e <app_in_logic+0x7a>
    905c:	387c                	lbu	a5,23(s0)
    905e:	06a00713          	li	a4,106
    9062:	14e78263          	beq	a5,a4,91a6 <app_in_logic+0x282>
    9066:	0af76763          	bltu	a4,a5,9114 <app_in_logic+0x1f0>
    906a:	06500713          	li	a4,101
    906e:	24e78063          	beq	a5,a4,92ae <app_in_logic+0x38a>
    9072:	00f76d63          	bltu	a4,a5,908c <app_in_logic+0x168>
    9076:	4705                	li	a4,1
    9078:	12e78f63          	beq	a5,a4,91b6 <app_in_logic+0x292>
    907c:	10078263          	beqz	a5,9180 <app_in_logic+0x25c>
    9080:	06400713          	li	a4,100
    9084:	0ee78e63          	beq	a5,a4,9180 <app_in_logic+0x25c>
    9088:	4515                	li	a0,5
    908a:	bf11                	j	8f9e <app_in_logic+0x7a>
    908c:	06700713          	li	a4,103
    9090:	26e78c63          	beq	a5,a4,9308 <app_in_logic+0x3e4>
    9094:	1ce7e763          	bltu	a5,a4,9262 <app_in_logic+0x33e>
    9098:	06800713          	li	a4,104
    909c:	24e78963          	beq	a5,a4,92ee <app_in_logic+0x3ca>
    90a0:	06900713          	li	a4,105
    90a4:	fee792e3          	bne	a5,a4,9088 <app_in_logic+0x164>
    90a8:	2c18                	lbu	a4,24(s0)
    90aa:	05000793          	li	a5,80
    90ae:	eaf712e3          	bne	a4,a5,8f52 <app_in_logic+0x2e>
    90b2:	04940993          	addi	s3,s0,73
    90b6:	854e                	mv	a0,s3
    90b8:	e2bff0ef          	jal	ra,8ee2 <app_check_new_name>
    90bc:	10051d63          	bnez	a0,91d6 <app_in_logic+0x2b2>
    90c0:	01940913          	addi	s2,s0,25
    90c4:	4641                	li	a2,16
    90c6:	85ca                	mv	a1,s2
    90c8:	dbc18513          	addi	a0,gp,-580 # 2000064c <app_user_info>
    90cc:	771020ef          	jal	ra,c03c <memcpy>
    90d0:	02000613          	li	a2,32
    90d4:	02940593          	addi	a1,s0,41
    90d8:	010b0513          	addi	a0,s6,16
    90dc:	761020ef          	jal	ra,c03c <memcpy>
    90e0:	02000613          	li	a2,32
    90e4:	85ce                	mv	a1,s3
    90e6:	030b0513          	addi	a0,s6,48
    90ea:	753020ef          	jal	ra,c03c <memcpy>
    90ee:	57fd                	li	a5,-1
    90f0:	0070                	addi	a2,sp,12
    90f2:	4581                	li	a1,0
    90f4:	854a                	mv	a0,s2
    90f6:	04fb0823          	sb	a5,80(s6)
    90fa:	c602                	sw	zero,12(sp)
    90fc:	93bff0ef          	jal	ra,8a36 <flash_user_search>
    9100:	12051b63          	bnez	a0,9236 <app_in_logic+0x312>
    9104:	45b2                	lw	a1,12(sp)
    9106:	dbc18513          	addi	a0,gp,-580 # 2000064c <app_user_info>
    910a:	9cfff0ef          	jal	ra,8ad8 <flash_user_overwrite>
    910e:	10050f63          	beqz	a0,922c <app_in_logic+0x308>
    9112:	a209                	j	9214 <app_in_logic+0x2f0>
    9114:	06e00713          	li	a4,110
    9118:	08e78163          	beq	a5,a4,919a <app_in_logic+0x276>
    911c:	00f76b63          	bltu	a4,a5,9132 <app_in_logic+0x20e>
    9120:	06c00713          	li	a4,108
    9124:	16e78563          	beq	a5,a4,928e <app_in_logic+0x36a>
    9128:	f8f760e3          	bltu	a4,a5,90a8 <app_in_logic+0x184>
    912c:	891ff0ef          	jal	ra,89bc <flash_user_count>
    9130:	a0bd                	j	919e <app_in_logic+0x27a>
    9132:	0c800713          	li	a4,200
    9136:	10e78563          	beq	a5,a4,9240 <app_in_logic+0x31c>
    913a:	00f76c63          	bltu	a4,a5,9152 <app_in_logic+0x22e>
    913e:	06f00713          	li	a4,111
    9142:	f4e793e3          	bne	a5,a4,9088 <app_in_logic+0x164>
    9146:	65d5                	lui	a1,0x15
    9148:	03000613          	li	a2,48
    914c:	d2058593          	addi	a1,a1,-736 # 14d20 <app_ver>
    9150:	a83d                	j	918e <app_in_logic+0x26a>
    9152:	0c900713          	li	a4,201
    9156:	10e78163          	beq	a5,a4,9258 <app_in_logic+0x334>
    915a:	0ca00713          	li	a4,202
    915e:	f2e795e3          	bne	a5,a4,9088 <app_in_logic+0x164>
    9162:	200007b7          	lui	a5,0x20000
    9166:	0d07a503          	lw	a0,208(a5) # 200000d0 <rs_recv>
    916a:	d2418413          	addi	s0,gp,-732 # 200005b4 <app_rs_buff>
    916e:	4601                	li	a2,0
    9170:	d2418593          	addi	a1,gp,-732 # 200005b4 <app_rs_buff>
    9174:	139010ef          	jal	ra,aaac <xQueueReceive>
    9178:	2010                	lbu	a2,0(s0)
    917a:	00140593          	addi	a1,s0,1
    917e:	a801                	j	918e <app_in_logic+0x26a>
    9180:	d85ff0ef          	jal	ra,8f04 <app_generate_nonce>
    9184:	200005b7          	lui	a1,0x20000
    9188:	4611                	li	a2,4
    918a:	0c858593          	addi	a1,a1,200 # 200000c8 <app_expected_nonce>
    918e:	4501                	li	a0,0
    9190:	ccfff0ef          	jal	ra,8e5e <app_out_generate>
    9194:	0141                	addi	sp,sp,16
    9196:	b90f706f          	j	526 <__riscv_restore_10>
    919a:	c67ff0ef          	jal	ra,8e00 <app_get_reset_reason>
    919e:	8648                	sb	a0,12(sp)
    91a0:	4605                	li	a2,1
    91a2:	006c                	addi	a1,sp,12
    91a4:	b7ed                	j	918e <app_in_logic+0x26a>
    91a6:	485c                	lw	a5,20(s0)
    91a8:	3828                	lbu	a0,19(s0)
    91aa:	07a2                	slli	a5,a5,0x8
    91ac:	8d5d                	or	a0,a0,a5
    91ae:	5c6000ef          	jal	ra,9774 <rtc_set>
    91b2:	4501                	li	a0,0
    91b4:	b3ed                	j	8f9e <app_in_logic+0x7a>
    91b6:	807ff0ef          	jal	ra,89bc <flash_user_count>
    91ba:	c119                	beqz	a0,91c0 <app_in_logic+0x29c>
    91bc:	451d                	li	a0,7
    91be:	b3c5                	j	8f9e <app_in_logic+0x7a>
    91c0:	2c18                	lbu	a4,24(s0)
    91c2:	04000793          	li	a5,64
    91c6:	d8f716e3          	bne	a4,a5,8f52 <app_in_logic+0x2e>
    91ca:	03940913          	addi	s2,s0,57
    91ce:	854a                	mv	a0,s2
    91d0:	d13ff0ef          	jal	ra,8ee2 <app_check_new_name>
    91d4:	c119                	beqz	a0,91da <app_in_logic+0x2b6>
    91d6:	452d                	li	a0,11
    91d8:	b3d9                	j	8f9e <app_in_logic+0x7a>
    91da:	4641                	li	a2,16
    91dc:	85ce                	mv	a1,s3
    91de:	dbc18513          	addi	a0,gp,-580 # 2000064c <app_user_info>
    91e2:	65b020ef          	jal	ra,c03c <memcpy>
    91e6:	02000613          	li	a2,32
    91ea:	01940593          	addi	a1,s0,25
    91ee:	010b0513          	addi	a0,s6,16
    91f2:	64b020ef          	jal	ra,c03c <memcpy>
    91f6:	02000613          	li	a2,32
    91fa:	85ca                	mv	a1,s2
    91fc:	030b0513          	addi	a0,s6,48
    9200:	63d020ef          	jal	ra,c03c <memcpy>
    9204:	57fd                	li	a5,-1
    9206:	dbc18513          	addi	a0,gp,-580 # 2000064c <app_user_info>
    920a:	04fb0823          	sb	a5,80(s6)
    920e:	88dff0ef          	jal	ra,8a9a <flash_user_add>
    9212:	c119                	beqz	a0,9218 <app_in_logic+0x2f4>
    9214:	4521                	li	a0,8
    9216:	b361                	j	8f9e <app_in_logic+0x7a>
    9218:	960ff0ef          	jal	ra,8378 <ble_set_advert>
    921c:	000ad863          	bgez	s5,922c <app_in_logic+0x308>
    9220:	485c                	lw	a5,20(s0)
    9222:	3828                	lbu	a0,19(s0)
    9224:	07a2                	slli	a5,a5,0x8
    9226:	8d5d                	or	a0,a0,a5
    9228:	54c000ef          	jal	ra,9774 <rtc_set>
    922c:	02000613          	li	a2,32
    9230:	9bc18593          	addi	a1,gp,-1604 # 2000024c <app_dev_info+0x4>
    9234:	bfa9                	j	918e <app_in_logic+0x26a>
    9236:	dbc18513          	addi	a0,gp,-580 # 2000064c <app_user_info>
    923a:	861ff0ef          	jal	ra,8a9a <flash_user_add>
    923e:	bdc1                	j	910e <app_in_logic+0x1ea>
    9240:	2c18                	lbu	a4,24(s0)
    9242:	4789                	li	a5,2
    9244:	d0f717e3          	bne	a4,a5,8f52 <app_in_logic+0x2e>
    9248:	3c08                	lbu	a0,25(s0)
    924a:	2c2c                	lbu	a1,26(s0)
    924c:	9b9ff0ef          	jal	ra,8c04 <keyfob_set>
    9250:	4509                	li	a0,2
    9252:	a6dff0ef          	jal	ra,8cbe <led_set_state>
    9256:	bfb1                	j	91b2 <app_in_logic+0x28e>
    9258:	2c0c                	lbu	a1,24(s0)
    925a:	01940513          	addi	a0,s0,25
    925e:	2e61                	jal	95f6 <rs_send>
    9260:	bf89                	j	91b2 <app_in_logic+0x28e>
    9262:	2c18                	lbu	a4,24(s0)
    9264:	4791                	li	a5,4
    9266:	cef716e3          	bne	a4,a5,8f52 <app_in_logic+0x2e>
    926a:	9b818493          	addi	s1,gp,-1608 # 20000248 <app_dev_info>
    926e:	4611                	li	a2,4
    9270:	01940593          	addi	a1,s0,25
    9274:	06448513          	addi	a0,s1,100
    9278:	5c5020ef          	jal	ra,c03c <memcpy>
    927c:	9b818513          	addi	a0,gp,-1608 # 20000248 <app_dev_info>
    9280:	ef8ff0ef          	jal	ra,8978 <flash_device_info_set>
    9284:	f941                	bnez	a0,9214 <app_in_logic+0x2f0>
    9286:	50e8                	lw	a0,100(s1)
    9288:	8aaff0ef          	jal	ra,8332 <ble_set_passkey>
    928c:	b71d                	j	91b2 <app_in_logic+0x28e>
    928e:	2c18                	lbu	a4,24(s0)
    9290:	4785                	li	a5,1
    9292:	ccf710e3          	bne	a4,a5,8f52 <app_in_logic+0x2e>
    9296:	3c08                	lbu	a0,25(s0)
    9298:	dbc18593          	addi	a1,gp,-580 # 2000064c <app_user_info>
    929c:	f62ff0ef          	jal	ra,89fe <flash_user_get_at>
    92a0:	d40510e3          	bnez	a0,8fe0 <app_in_logic+0xbc>
    92a4:	05100613          	li	a2,81
    92a8:	dbc18593          	addi	a1,gp,-580 # 2000064c <app_user_info>
    92ac:	b5d5                	j	9190 <app_in_logic+0x26c>
    92ae:	2c1c                	lbu	a5,24(s0)
    92b0:	4741                	li	a4,16
    92b2:	17f1                	addi	a5,a5,-4
    92b4:	0ff7f793          	andi	a5,a5,255
    92b8:	c8f76de3          	bltu	a4,a5,8f52 <app_in_logic+0x2e>
    92bc:	9b818493          	addi	s1,gp,-1608 # 20000248 <app_dev_info>
    92c0:	06848493          	addi	s1,s1,104
    92c4:	02000613          	li	a2,32
    92c8:	4581                	li	a1,0
    92ca:	8526                	mv	a0,s1
    92cc:	a7af70ef          	jal	ra,546 <memset>
    92d0:	01940593          	addi	a1,s0,25
    92d4:	8526                	mv	a0,s1
    92d6:	0c0030ef          	jal	ra,c396 <strcpy>
    92da:	9b818513          	addi	a0,gp,-1608 # 20000248 <app_dev_info>
    92de:	e9aff0ef          	jal	ra,8978 <flash_device_info_set>
    92e2:	f20519e3          	bnez	a0,9214 <app_in_logic+0x2f0>
    92e6:	8526                	mv	a0,s1
    92e8:	824ff0ef          	jal	ra,830c <ble_set_name>
    92ec:	b5d9                	j	91b2 <app_in_logic+0x28e>
    92ee:	2c18                	lbu	a4,24(s0)
    92f0:	47c1                	li	a5,16
    92f2:	c6f710e3          	bne	a4,a5,8f52 <app_in_logic+0x2e>
    92f6:	0465                	addi	s0,s0,25
    92f8:	8522                	mv	a0,s0
    92fa:	811ff0ef          	jal	ra,8b0a <flash_user_block>
    92fe:	ce0511e3          	bnez	a0,8fe0 <app_in_logic+0xbc>
    9302:	4641                	li	a2,16
    9304:	85a2                	mv	a1,s0
    9306:	b569                	j	9190 <app_in_logic+0x26c>
    9308:	884ff0ef          	jal	ra,838c <ble_factory_reset>
    930c:	b55d                	j	91b2 <app_in_logic+0x28e>

0000930e <app_out_reply>:
    930e:	a08f72ef          	jal	t0,516 <__riscv_save_0>
    9312:	9b818693          	addi	a3,gp,-1608 # 20000248 <app_dev_info>
    9316:	b5018513          	addi	a0,gp,-1200 # 200003e0 <app_out>
    931a:	02468713          	addi	a4,a3,36 # 60000024 <__freertos_irq_stack_top+0x3fff8024>
    931e:	b5018593          	addi	a1,gp,-1200 # 200003e0 <app_out>
    9322:	0691                	addi	a3,a3,4
    9324:	0a100613          	li	a2,161
    9328:	0a150513          	addi	a0,a0,161
    932c:	c4ffe0ef          	jal	ra,7f7a <ed25519_sign>
    9330:	0e100613          	li	a2,225
    9334:	b5018593          	addi	a1,gp,-1200 # 200003e0 <app_out>
    9338:	c3418513          	addi	a0,gp,-972 # 200004c4 <app_raw>
    933c:	501020ef          	jal	ra,c03c <memcpy>
    9340:	0e100593          	li	a1,225
    9344:	c3418513          	addi	a0,gp,-972 # 200004c4 <app_raw>
    9348:	956ff0ef          	jal	ra,849e <ble_data_send>
    934c:	9eef706f          	j	53a <__riscv_restore_0>

00009350 <app_ble_config>:
    9350:	9c6f72ef          	jal	t0,516 <__riscv_save_0>
    9354:	84aa                	mv	s1,a0
    9356:	c119                	beqz	a0,935c <app_ble_config+0xc>
    9358:	834ff0ef          	jal	ra,838c <ble_factory_reset>
    935c:	9b818413          	addi	s0,gp,-1608 # 20000248 <app_dev_info>
    9360:	5068                	lw	a0,100(s0)
    9362:	fd1fe0ef          	jal	ra,8332 <ble_set_passkey>
    9366:	06840513          	addi	a0,s0,104
    936a:	fa3fe0ef          	jal	ra,830c <ble_set_name>
    936e:	8526                	mv	a0,s1
    9370:	808ff0ef          	jal	ra,8378 <ble_set_advert>
    9374:	1ffff7b7          	lui	a5,0x1ffff
    9378:	7e87d503          	lhu	a0,2024(a5) # 1ffff7e8 <_data_lma+0x1ffea900>
    937c:	830ff0ef          	jal	ra,83ac <ble_set_serial>
    9380:	81cff0ef          	jal	ra,839c <ble_continue>
    9384:	9b6f706f          	j	53a <__riscv_restore_0>

00009388 <app_factory_reset>:
    9388:	98ef72ef          	jal	t0,516 <__riscv_save_0>
    938c:	1101                	addi	sp,sp,-32
    938e:	450d                	li	a0,3
    9390:	92fff0ef          	jal	ra,8cbe <led_set_state>
    9394:	850a                	mv	a0,sp
    9396:	45a1                	li	a1,8
    9398:	22cd                	jal	957a <rng_get>
    939a:	9b818413          	addi	s0,gp,-1608 # 20000248 <app_dev_info>
    939e:	860a                	mv	a2,sp
    93a0:	02440593          	addi	a1,s0,36
    93a4:	00440513          	addi	a0,s0,4
    93a8:	fd9f90ef          	jal	ra,3380 <ed25519_create_keypair>
    93ac:	67f9                	lui	a5,0x1e
    93ae:	24078793          	addi	a5,a5,576 # 1e240 <_data_lma+0x9358>
    93b2:	d07c                	sw	a5,100(s0)
    93b4:	06840413          	addi	s0,s0,104
    93b8:	02000613          	li	a2,32
    93bc:	4581                	li	a1,0
    93be:	8522                	mv	a0,s0
    93c0:	986f70ef          	jal	ra,546 <memset>
    93c4:	000155b7          	lui	a1,0x15
    93c8:	d1458593          	addi	a1,a1,-748 # 14d14 <K+0x2dc>
    93cc:	8522                	mv	a0,s0
    93ce:	7c9020ef          	jal	ra,c396 <strcpy>
    93d2:	b52ff0ef          	jal	ra,8724 <flash_erase_chip>
    93d6:	9b818513          	addi	a0,gp,-1608 # 20000248 <app_dev_info>
    93da:	d9eff0ef          	jal	ra,8978 <flash_device_info_set>
    93de:	80000537          	lui	a0,0x80000
    93e2:	2e49                	jal	9774 <rtc_set>
    93e4:	4505                	li	a0,1
    93e6:	f6bff0ef          	jal	ra,9350 <app_ble_config>
    93ea:	4501                	li	a0,0
    93ec:	8d3ff0ef          	jal	ra,8cbe <led_set_state>
    93f0:	6105                	addi	sp,sp,32
    93f2:	948f706f          	j	53a <__riscv_restore_0>

000093f6 <app_task>:
    93f6:	906f72ef          	jal	t0,4fc <__riscv_save_4>
    93fa:	1141                	addi	sp,sp,-16
    93fc:	9b818513          	addi	a0,gp,-1608 # 20000248 <app_dev_info>
    9400:	d40ff0ef          	jal	ra,8940 <flash_device_info_get>
    9404:	c119                	beqz	a0,940a <app_task+0x14>
    9406:	f83ff0ef          	jal	ra,9388 <app_factory_reset>
    940a:	db2ff0ef          	jal	ra,89bc <flash_user_count>
    940e:	842a                	mv	s0,a0
    9410:	06400513          	li	a0,100
    9414:	79f010ef          	jal	ra,b3b2 <vTaskDelay>
    9418:	00143513          	seqz	a0,s0
    941c:	f35ff0ef          	jal	ra,9350 <app_ble_config>
    9420:	20000a37          	lui	s4,0x20000
    9424:	4405                	li	s0,1
    9426:	20000ab7          	lui	s5,0x20000
    942a:	20000937          	lui	s2,0x20000
    942e:	0b0a2503          	lw	a0,176(s4) # 200000b0 <_edata>
    9432:	06400613          	li	a2,100
    9436:	c3418593          	addi	a1,gp,-972 # 200004c4 <app_raw>
    943a:	672010ef          	jal	ra,aaac <xQueueReceive>
    943e:	00851d63          	bne	a0,s0,9458 <app_task+0x62>
    9442:	ae3ff0ef          	jal	ra,8f24 <app_in_logic>
    9446:	ec9ff0ef          	jal	ra,930e <app_out_reply>
    944a:	0f000613          	li	a2,240
    944e:	4581                	li	a1,0
    9450:	c3418513          	addi	a0,gp,-972 # 200004c4 <app_raw>
    9454:	8f2f70ef          	jal	ra,546 <memset>
    9458:	88cff0ef          	jal	ra,84e4 <ble_status_get>
    945c:	00257793          	andi	a5,a0,2
    9460:	c781                	beqz	a5,9468 <app_task+0x72>
    9462:	8905                	andi	a0,a0,1
    9464:	85bff0ef          	jal	ra,8cbe <led_set_state>
    9468:	0bcaa503          	lw	a0,188(s5) # 200000bc <button_cmd>
    946c:	4601                	li	a2,0
    946e:	00f10593          	addi	a1,sp,15
    9472:	63a010ef          	jal	ra,aaac <xQueueReceive>
    9476:	00851763          	bne	a0,s0,9484 <app_task+0x8e>
    947a:	879c                	lbu	a5,15(sp)
    947c:	00879463          	bne	a5,s0,9484 <app_task+0x8e>
    9480:	f09ff0ef          	jal	ra,9388 <app_factory_reset>
    9484:	0d092503          	lw	a0,208(s2) # 200000d0 <rs_recv>
    9488:	4601                	li	a2,0
    948a:	d2418593          	addi	a1,gp,-732 # 200005b4 <app_rs_buff>
    948e:	61e010ef          	jal	ra,aaac <xQueueReceive>
    9492:	bf71                	j	942e <app_task+0x38>

00009494 <app_init>:
    9494:	882f72ef          	jal	t0,516 <__riscv_save_0>
    9498:	000155b7          	lui	a1,0x15
    949c:	00009537          	lui	a0,0x9
    94a0:	4781                	li	a5,0
    94a2:	4715                	li	a4,5
    94a4:	4681                	li	a3,0
    94a6:	40000613          	li	a2,1024
    94aa:	d1c58593          	addi	a1,a1,-740 # 14d1c <K+0x2e4>
    94ae:	3f650513          	addi	a0,a0,1014 # 93f6 <app_task>
    94b2:	13d010ef          	jal	ra,adee <xTaskCreate>
    94b6:	157d                	addi	a0,a0,-1
    94b8:	00a03533          	snez	a0,a0
    94bc:	87ef706f          	j	53a <__riscv_restore_0>

000094c0 <wdt_init>:
    94c0:	856f72ef          	jal	t0,516 <__riscv_save_0>
    94c4:	6515                	lui	a0,0x5
    94c6:	55550513          	addi	a0,a0,1365 # 5555 <sc_muladd+0xd7d>
    94ca:	6f6000ef          	jal	ra,9bc0 <IWDG_WriteAccessCmd>
    94ce:	450d                	li	a0,3
    94d0:	6f8000ef          	jal	ra,9bc8 <IWDG_SetPrescaler>
    94d4:	6505                	lui	a0,0x1
    94d6:	157d                	addi	a0,a0,-1
    94d8:	6f8000ef          	jal	ra,9bd0 <IWDG_SetReload>
    94dc:	6fc000ef          	jal	ra,9bd8 <IWDG_ReloadCounter>
    94e0:	706000ef          	jal	ra,9be6 <IWDG_Enable>
    94e4:	856f706f          	j	53a <__riscv_restore_0>

000094e8 <main>:
    94e8:	82ef72ef          	jal	t0,516 <__riscv_save_0>
    94ec:	4509                	li	a0,2
    94ee:	710000ef          	jal	ra,9bfe <NVIC_PriorityGroupConfig>
    94f2:	2ecd                	jal	98e4 <SystemCoreClockUpdate>
    94f4:	244d                	jal	9796 <rtc_init>
    94f6:	fcbff0ef          	jal	ra,94c0 <wdt_init>
    94fa:	20a5                	jal	9562 <rng_init>
    94fc:	893ff0ef          	jal	ra,8d8e <led_init>
    9500:	c509                	beqz	a0,950a <main+0x22>
    9502:	4505                	li	a0,1
    9504:	f9aff0ef          	jal	ra,8c9e <led_set>
    9508:	a001                	j	9508 <main+0x20>
    950a:	f1cff0ef          	jal	ra,8c26 <keyfob_init>
    950e:	c509                	beqz	a0,9518 <main+0x30>
    9510:	4505                	li	a0,1
    9512:	f8cff0ef          	jal	ra,8c9e <led_set>
    9516:	a001                	j	9516 <main+0x2e>
    9518:	8feff0ef          	jal	ra,8616 <button_init>
    951c:	c509                	beqz	a0,9526 <main+0x3e>
    951e:	4505                	li	a0,1
    9520:	f7eff0ef          	jal	ra,8c9e <led_set>
    9524:	a001                	j	9524 <main+0x3c>
    9526:	81cff0ef          	jal	ra,8542 <ble_init>
    952a:	c509                	beqz	a0,9534 <main+0x4c>
    952c:	4505                	li	a0,1
    952e:	f70ff0ef          	jal	ra,8c9e <led_set>
    9532:	a001                	j	9532 <main+0x4a>
    9534:	f61ff0ef          	jal	ra,9494 <app_init>
    9538:	c509                	beqz	a0,9542 <main+0x5a>
    953a:	4505                	li	a0,1
    953c:	f62ff0ef          	jal	ra,8c9e <led_set>
    9540:	a001                	j	9540 <main+0x58>
    9542:	b9aff0ef          	jal	ra,88dc <flash_init>
    9546:	c509                	beqz	a0,9550 <main+0x68>
    9548:	4505                	li	a0,1
    954a:	f54ff0ef          	jal	ra,8c9e <led_set>
    954e:	a001                	j	954e <main+0x66>
    9550:	2235                	jal	967c <rs_init>
    9552:	c509                	beqz	a0,955c <main+0x74>
    9554:	4505                	li	a0,1
    9556:	f48ff0ef          	jal	ra,8c9e <led_set>
    955a:	a001                	j	955a <main+0x72>
    955c:	297010ef          	jal	ra,aff2 <vTaskStartScheduler>
    9560:	a001                	j	9560 <main+0x78>

00009562 <rng_init>:
    9562:	fb5f62ef          	jal	t0,516 <__riscv_save_0>
    9566:	4585                	li	a1,1
    9568:	20000513          	li	a0,512
    956c:	07d000ef          	jal	ra,9de8 <RCC_AHBPeriphClockCmd>
    9570:	4505                	li	a0,1
    9572:	11f000ef          	jal	ra,9e90 <RNG_Cmd>
    9576:	fc5f606f          	j	53a <__riscv_restore_0>

0000957a <rng_get>:
    957a:	f9df62ef          	jal	t0,516 <__riscv_save_0>
    957e:	058a                	slli	a1,a1,0x2
    9580:	842a                	mv	s0,a0
    9582:	00b504b3          	add	s1,a0,a1
    9586:	00941463          	bne	s0,s1,958e <rng_get+0x14>
    958a:	fb1f606f          	j	53a <__riscv_restore_0>
    958e:	4505                	li	a0,1
    9590:	123000ef          	jal	ra,9eb2 <RNG_GetFlagStatus>
    9594:	dd6d                	beqz	a0,958e <rng_get+0x14>
    9596:	113000ef          	jal	ra,9ea8 <RNG_GetRandomNumber>
    959a:	c008                	sw	a0,0(s0)
    959c:	0411                	addi	s0,s0,4
    959e:	b7e5                	j	9586 <rng_get+0xc>

000095a0 <rs_recv_task>:
    95a0:	f4ff62ef          	jal	t0,4ee <__riscv_save_10>
    95a4:	4401                	li	s0,0
    95a6:	e1018493          	addi	s1,gp,-496 # 200006a0 <rs_recv_buf>
    95aa:	20000ab7          	lui	s5,0x20000
    95ae:	4b05                	li	s6,1
    95b0:	09700b93          	li	s7,151
    95b4:	f9700a13          	li	s4,-105
    95b8:	20000937          	lui	s2,0x20000
    95bc:	0d4aa503          	lw	a0,212(s5) # 200000d4 <rs_recv_byte>
    95c0:	00140993          	addi	s3,s0,1
    95c4:	03200613          	li	a2,50
    95c8:	013485b3          	add	a1,s1,s3
    95cc:	4e0010ef          	jal	ra,aaac <xQueueReceive>
    95d0:	01650d63          	beq	a0,s6,95ea <rs_recv_task+0x4a>
    95d4:	d465                	beqz	s0,95bc <rs_recv_task+0x1c>
    95d6:	a080                	sb	s0,0(s1)
    95d8:	0d092503          	lw	a0,208(s2) # 200000d0 <rs_recv>
    95dc:	4681                	li	a3,0
    95de:	4601                	li	a2,0
    95e0:	85a6                	mv	a1,s1
    95e2:	1fa010ef          	jal	ra,a7dc <xQueueGenericSend>
    95e6:	4401                	li	s0,0
    95e8:	bfd1                	j	95bc <rs_recv_task+0x1c>
    95ea:	844e                	mv	s0,s3
    95ec:	fd7998e3          	bne	s3,s7,95bc <rs_recv_task+0x1c>
    95f0:	01448023          	sb	s4,0(s1)
    95f4:	b7d5                	j	95d8 <rs_recv_task+0x38>

000095f6 <rs_send>:
    95f6:	f21f62ef          	jal	t0,516 <__riscv_save_0>
    95fa:	842a                	mv	s0,a0
    95fc:	40011537          	lui	a0,0x40011
    9600:	892e                	mv	s2,a1
    9602:	80050513          	addi	a0,a0,-2048 # 40010800 <__freertos_irq_stack_top+0x20008800>
    9606:	10000593          	li	a1,256
    960a:	400144b7          	lui	s1,0x40014
    960e:	236d                	jal	9bb8 <GPIO_SetBits>
    9610:	9922                	add	s2,s2,s0
    9612:	80048493          	addi	s1,s1,-2048 # 40013800 <__freertos_irq_stack_top+0x2000b800>
    9616:	01241b63          	bne	s0,s2,962c <rs_send+0x36>
    961a:	40011537          	lui	a0,0x40011
    961e:	10000593          	li	a1,256
    9622:	80050513          	addi	a0,a0,-2048 # 40010800 <__freertos_irq_stack_top+0x20008800>
    9626:	2b59                	jal	9bbc <GPIO_ResetBits>
    9628:	f13f606f          	j	53a <__riscv_restore_0>
    962c:	08000593          	li	a1,128
    9630:	8526                	mv	a0,s1
    9632:	2e7000ef          	jal	ra,a118 <USART_GetFlagStatus>
    9636:	d97d                	beqz	a0,962c <rs_send+0x36>
    9638:	0405                	addi	s0,s0,1
    963a:	fff44583          	lbu	a1,-1(s0)
    963e:	8526                	mv	a0,s1
    9640:	2c9000ef          	jal	ra,a108 <USART_SendData>
    9644:	04000593          	li	a1,64
    9648:	8526                	mv	a0,s1
    964a:	2cf000ef          	jal	ra,a118 <USART_GetFlagStatus>
    964e:	d97d                	beqz	a0,9644 <rs_send+0x4e>
    9650:	b7d9                	j	9616 <rs_send+0x20>

00009652 <USART1_IRQHandler>:
    9652:	40014537          	lui	a0,0x40014
    9656:	1141                	addi	sp,sp,-16
    9658:	80050513          	addi	a0,a0,-2048 # 40013800 <__freertos_irq_stack_top+0x2000b800>
    965c:	2b5000ef          	jal	ra,a110 <USART_ReceiveData>
    9660:	200007b7          	lui	a5,0x20000
    9664:	87c8                	sb	a0,15(sp)
    9666:	0d47a503          	lw	a0,212(a5) # 200000d4 <rs_recv_byte>
    966a:	00f10593          	addi	a1,sp,15
    966e:	4681                	li	a3,0
    9670:	4601                	li	a2,0
    9672:	312010ef          	jal	ra,a984 <xQueueGenericSendFromISR>
    9676:	0141                	addi	sp,sp,16
    9678:	30200073          	mret

0000967c <rs_init>:
    967c:	e9bf62ef          	jal	t0,516 <__riscv_save_0>
    9680:	1101                	addi	sp,sp,-32
    9682:	4601                	li	a2,0
    9684:	4585                	li	a1,1
    9686:	09800513          	li	a0,152
    968a:	0e4010ef          	jal	ra,a76e <xQueueGenericCreate>
    968e:	200007b7          	lui	a5,0x20000
    9692:	4601                	li	a2,0
    9694:	0ca7aa23          	sw	a0,212(a5) # 200000d4 <rs_recv_byte>
    9698:	09800593          	li	a1,152
    969c:	4509                	li	a0,2
    969e:	0d0010ef          	jal	ra,a76e <xQueueGenericCreate>
    96a2:	200007b7          	lui	a5,0x20000
    96a6:	0ca7a823          	sw	a0,208(a5) # 200000d0 <rs_recv>
    96aa:	4585                	li	a1,1
    96ac:	4511                	li	a0,4
    96ae:	758000ef          	jal	ra,9e06 <RCC_APB2PeriphClockCmd>
    96b2:	20000793          	li	a5,512
    96b6:	40011437          	lui	s0,0x40011
    96ba:	827c                	sh	a5,4(sp)
    96bc:	4785                	li	a5,1
    96be:	c43e                	sw	a5,8(sp)
    96c0:	004c                	addi	a1,sp,4
    96c2:	47e1                	li	a5,24
    96c4:	80040513          	addi	a0,s0,-2048 # 40010800 <__freertos_irq_stack_top+0x20008800>
    96c8:	c63e                	sw	a5,12(sp)
    96ca:	00011323          	sh	zero,6(sp)
    96ce:	2105                	jal	9aee <GPIO_Init>
    96d0:	40000793          	li	a5,1024
    96d4:	827c                	sh	a5,4(sp)
    96d6:	004c                	addi	a1,sp,4
    96d8:	4791                	li	a5,4
    96da:	80040513          	addi	a0,s0,-2048
    96de:	c63e                	sw	a5,12(sp)
    96e0:	2139                	jal	9aee <GPIO_Init>
    96e2:	10000793          	li	a5,256
    96e6:	827c                	sh	a5,4(sp)
    96e8:	004c                	addi	a1,sp,4
    96ea:	47c1                	li	a5,16
    96ec:	80040513          	addi	a0,s0,-2048
    96f0:	c63e                	sw	a5,12(sp)
    96f2:	2ef5                	jal	9aee <GPIO_Init>
    96f4:	4585                	li	a1,1
    96f6:	6511                	lui	a0,0x4
    96f8:	2735                	jal	9e24 <RCC_APB1PeriphClockCmd>
    96fa:	67f1                	lui	a5,0x1c
    96fc:	40014437          	lui	s0,0x40014
    9700:	20078793          	addi	a5,a5,512 # 1c200 <_data_lma+0x7318>
    9704:	cc02                	sw	zero,24(sp)
    9706:	c83e                	sw	a5,16(sp)
    9708:	080c                	addi	a1,sp,16
    970a:	47b1                	li	a5,12
    970c:	80040513          	addi	a0,s0,-2048 # 40013800 <__freertos_irq_stack_top+0x2000b800>
    9710:	85fc                	sh	a5,26(sp)
    9712:	ca02                	sw	zero,20(sp)
    9714:	ce02                	sw	zero,28(sp)
    9716:	117000ef          	jal	ra,a02c <USART_Init>
    971a:	4605                	li	a2,1
    971c:	80040513          	addi	a0,s0,-2048
    9720:	52500593          	li	a1,1317
    9724:	1af000ef          	jal	ra,a0d2 <USART_ITConfig>
    9728:	80040513          	addi	a0,s0,-2048
    972c:	4585                	li	a1,1
    972e:	18f000ef          	jal	ra,a0bc <USART_Cmd>
    9732:	e000e7b7          	lui	a5,0xe000e
    9736:	00200737          	lui	a4,0x200
    973a:	000155b7          	lui	a1,0x15
    973e:	00009537          	lui	a0,0x9
    9742:	10e7a223          	sw	a4,260(a5) # e000e104 <__freertos_irq_stack_top+0xc0006104>
    9746:	4681                	li	a3,0
    9748:	4781                	li	a5,0
    974a:	4715                	li	a4,5
    974c:	10000613          	li	a2,256
    9750:	d5458593          	addi	a1,a1,-684 # 14d54 <app_ver+0x34>
    9754:	5a050513          	addi	a0,a0,1440 # 95a0 <rs_recv_task>
    9758:	696010ef          	jal	ra,adee <xTaskCreate>
    975c:	157d                	addi	a0,a0,-1
    975e:	00a03533          	snez	a0,a0
    9762:	6105                	addi	sp,sp,32
    9764:	dd7f606f          	j	53a <__riscv_restore_0>

00009768 <rtc_get>:
    9768:	daff62ef          	jal	t0,516 <__riscv_save_0>
    976c:	782000ef          	jal	ra,9eee <RTC_GetCounter>
    9770:	dcbf606f          	j	53a <__riscv_restore_0>

00009774 <rtc_set>:
    9774:	da3f62ef          	jal	t0,516 <__riscv_save_0>
    9778:	1141                	addi	sp,sp,-16
    977a:	c62a                	sw	a0,12(sp)
    977c:	027000ef          	jal	ra,9fa2 <RTC_WaitForLastTask>
    9780:	4532                	lw	a0,12(sp)
    9782:	7c6000ef          	jal	ra,9f48 <RTC_SetCounter>
    9786:	6595                	lui	a1,0x5
    9788:	5aa58593          	addi	a1,a1,1450 # 55aa <sc_muladd+0xdd2>
    978c:	4511                	li	a0,4
    978e:	2625                	jal	9ab6 <BKP_WriteBackupRegister>
    9790:	0141                	addi	sp,sp,16
    9792:	da9f606f          	j	53a <__riscv_restore_0>

00009796 <rtc_init>:
    9796:	d81f62ef          	jal	t0,516 <__riscv_save_0>
    979a:	4585                	li	a1,1
    979c:	18000537          	lui	a0,0x18000
    97a0:	2551                	jal	9e24 <RCC_APB1PeriphClockCmd>
    97a2:	4505                	li	a0,1
    97a4:	2195                	jal	9c08 <PWR_BackupAccessCmd>
    97a6:	4511                	li	a0,4
    97a8:	262d                	jal	9ad2 <BKP_ReadBackupRegister>
    97aa:	6795                	lui	a5,0x5
    97ac:	5aa78793          	addi	a5,a5,1450 # 55aa <sc_muladd+0xdd2>
    97b0:	4705                	li	a4,1
    97b2:	02f50963          	beq	a0,a5,97e4 <rtc_init+0x4e>
    97b6:	2cc5                	jal	9aa6 <BKP_DeInit>
    97b8:	4505                	li	a0,1
    97ba:	2195                	jal	9c1e <RCC_LSEConfig>
    97bc:	04100513          	li	a0,65
    97c0:	254d                	jal	9e62 <RCC_GetFlagStatus>
    97c2:	dd6d                	beqz	a0,97bc <rtc_init+0x26>
    97c4:	10000513          	li	a0,256
    97c8:	29bd                	jal	9c46 <RCC_RTCCLKConfig>
    97ca:	4505                	li	a0,1
    97cc:	2159                	jal	9c52 <RCC_RTCCLKCmd>
    97ce:	7d4000ef          	jal	ra,9fa2 <RTC_WaitForLastTask>
    97d2:	6521                	lui	a0,0x8
    97d4:	157d                	addi	a0,a0,-1
    97d6:	79e000ef          	jal	ra,9f74 <RTC_SetPrescaler>
    97da:	80000537          	lui	a0,0x80000
    97de:	f97ff0ef          	jal	ra,9774 <rtc_set>
    97e2:	4701                	li	a4,0
    97e4:	853a                	mv	a0,a4
    97e6:	d55f606f          	j	53a <__riscv_restore_0>

000097ea <SystemInit>:
    97ea:	400217b7          	lui	a5,0x40021
    97ee:	4398                	lw	a4,0(a5)
    97f0:	f0ff06b7          	lui	a3,0xf0ff0
    97f4:	1141                	addi	sp,sp,-16
    97f6:	00176713          	ori	a4,a4,1
    97fa:	c398                	sw	a4,0(a5)
    97fc:	43d8                	lw	a4,4(a5)
    97fe:	00020637          	lui	a2,0x20
    9802:	8f75                	and	a4,a4,a3
    9804:	c3d8                	sw	a4,4(a5)
    9806:	4398                	lw	a4,0(a5)
    9808:	fef706b7          	lui	a3,0xfef70
    980c:	16fd                	addi	a3,a3,-1
    980e:	8f75                	and	a4,a4,a3
    9810:	c398                	sw	a4,0(a5)
    9812:	4398                	lw	a4,0(a5)
    9814:	fffc06b7          	lui	a3,0xfffc0
    9818:	16fd                	addi	a3,a3,-1
    981a:	8f75                	and	a4,a4,a3
    981c:	c398                	sw	a4,0(a5)
    981e:	43d8                	lw	a4,4(a5)
    9820:	ff0106b7          	lui	a3,0xff010
    9824:	16fd                	addi	a3,a3,-1
    9826:	8f75                	and	a4,a4,a3
    9828:	c3d8                	sw	a4,4(a5)
    982a:	4398                	lw	a4,0(a5)
    982c:	ec0006b7          	lui	a3,0xec000
    9830:	16fd                	addi	a3,a3,-1
    9832:	8f75                	and	a4,a4,a3
    9834:	c398                	sw	a4,0(a5)
    9836:	00ff0737          	lui	a4,0xff0
    983a:	c798                	sw	a4,8(a5)
    983c:	0207a623          	sw	zero,44(a5) # 4002102c <__freertos_irq_stack_top+0x2001902c>
    9840:	c402                	sw	zero,8(sp)
    9842:	c602                	sw	zero,12(sp)
    9844:	4398                	lw	a4,0(a5)
    9846:	66c1                	lui	a3,0x10
    9848:	8f55                	or	a4,a4,a3
    984a:	c398                	sw	a4,0(a5)
    984c:	400216b7          	lui	a3,0x40021
    9850:	6705                	lui	a4,0x1
    9852:	429c                	lw	a5,0(a3)
    9854:	8ff1                	and	a5,a5,a2
    9856:	c63e                	sw	a5,12(sp)
    9858:	47a2                	lw	a5,8(sp)
    985a:	0785                	addi	a5,a5,1
    985c:	c43e                	sw	a5,8(sp)
    985e:	47b2                	lw	a5,12(sp)
    9860:	e781                	bnez	a5,9868 <SystemInit+0x7e>
    9862:	47a2                	lw	a5,8(sp)
    9864:	fee797e3          	bne	a5,a4,9852 <SystemInit+0x68>
    9868:	400217b7          	lui	a5,0x40021
    986c:	439c                	lw	a5,0(a5)
    986e:	00e79713          	slli	a4,a5,0xe
    9872:	06075763          	bgez	a4,98e0 <SystemInit+0xf6>
    9876:	4785                	li	a5,1
    9878:	c63e                	sw	a5,12(sp)
    987a:	4732                	lw	a4,12(sp)
    987c:	4785                	li	a5,1
    987e:	04f71f63          	bne	a4,a5,98dc <SystemInit+0xf2>
    9882:	400217b7          	lui	a5,0x40021
    9886:	43d8                	lw	a4,4(a5)
    9888:	ffc106b7          	lui	a3,0xffc10
    988c:	16fd                	addi	a3,a3,-1
    988e:	c3d8                	sw	a4,4(a5)
    9890:	43d8                	lw	a4,4(a5)
    9892:	c3d8                	sw	a4,4(a5)
    9894:	43d8                	lw	a4,4(a5)
    9896:	40076713          	ori	a4,a4,1024
    989a:	c3d8                	sw	a4,4(a5)
    989c:	43d8                	lw	a4,4(a5)
    989e:	8f75                	and	a4,a4,a3
    98a0:	c3d8                	sw	a4,4(a5)
    98a2:	43d8                	lw	a4,4(a5)
    98a4:	002906b7          	lui	a3,0x290
    98a8:	8f55                	or	a4,a4,a3
    98aa:	c3d8                	sw	a4,4(a5)
    98ac:	4398                	lw	a4,0(a5)
    98ae:	010006b7          	lui	a3,0x1000
    98b2:	8f55                	or	a4,a4,a3
    98b4:	c398                	sw	a4,0(a5)
    98b6:	4398                	lw	a4,0(a5)
    98b8:	00671693          	slli	a3,a4,0x6
    98bc:	fe06dde3          	bgez	a3,98b6 <SystemInit+0xcc>
    98c0:	43d8                	lw	a4,4(a5)
    98c2:	400216b7          	lui	a3,0x40021
    98c6:	9b71                	andi	a4,a4,-4
    98c8:	c3d8                	sw	a4,4(a5)
    98ca:	43d8                	lw	a4,4(a5)
    98cc:	00276713          	ori	a4,a4,2
    98d0:	c3d8                	sw	a4,4(a5)
    98d2:	4721                	li	a4,8
    98d4:	42dc                	lw	a5,4(a3)
    98d6:	8bb1                	andi	a5,a5,12
    98d8:	fee79ee3          	bne	a5,a4,98d4 <SystemInit+0xea>
    98dc:	0141                	addi	sp,sp,16
    98de:	8082                	ret
    98e0:	c602                	sw	zero,12(sp)
    98e2:	bf61                	j	987a <SystemInit+0x90>

000098e4 <SystemCoreClockUpdate>:
    98e4:	400216b7          	lui	a3,0x40021
    98e8:	42d8                	lw	a4,4(a3)
    98ea:	200007b7          	lui	a5,0x20000
    98ee:	4611                	li	a2,4
    98f0:	8b31                	andi	a4,a4,12
    98f2:	09078793          	addi	a5,a5,144 # 20000090 <SystemCoreClock>
    98f6:	00c70563          	beq	a4,a2,9900 <SystemCoreClockUpdate+0x1c>
    98fa:	4621                	li	a2,8
    98fc:	02c70863          	beq	a4,a2,992c <SystemCoreClockUpdate+0x48>
    9900:	007a1737          	lui	a4,0x7a1
    9904:	20070713          	addi	a4,a4,512 # 7a1200 <_data_lma+0x78c318>
    9908:	c398                	sw	a4,0(a5)
    990a:	40021737          	lui	a4,0x40021
    990e:	4358                	lw	a4,4(a4)
    9910:	8311                	srli	a4,a4,0x4
    9912:	00f77693          	andi	a3,a4,15
    9916:	20000737          	lui	a4,0x20000
    991a:	01070713          	addi	a4,a4,16 # 20000010 <AHBPrescTable>
    991e:	9736                	add	a4,a4,a3
    9920:	2314                	lbu	a3,0(a4)
    9922:	4398                	lw	a4,0(a5)
    9924:	00d75733          	srl	a4,a4,a3
    9928:	c398                	sw	a4,0(a5)
    992a:	8082                	ret
    992c:	42d8                	lw	a4,4(a3)
    992e:	42d4                	lw	a3,4(a3)
    9930:	6641                	lui	a2,0x10
    9932:	8349                	srli	a4,a4,0x12
    9934:	8b3d                	andi	a4,a4,15
    9936:	8ef1                	and	a3,a3,a2
    9938:	00270613          	addi	a2,a4,2
    993c:	cf15                	beqz	a4,9978 <SystemCoreClockUpdate+0x94>
    993e:	473d                	li	a4,15
    9940:	02e60f63          	beq	a2,a4,997e <SystemCoreClockUpdate+0x9a>
    9944:	4741                	li	a4,16
    9946:	02e60f63          	beq	a2,a4,9984 <SystemCoreClockUpdate+0xa0>
    994a:	4745                	li	a4,17
    994c:	4581                	li	a1,0
    994e:	00e61363          	bne	a2,a4,9954 <SystemCoreClockUpdate+0x70>
    9952:	4641                	li	a2,16
    9954:	e2a1                	bnez	a3,9994 <SystemCoreClockUpdate+0xb0>
    9956:	40024737          	lui	a4,0x40024
    995a:	80072703          	lw	a4,-2048(a4) # 40023800 <__freertos_irq_stack_top+0x2001b800>
    995e:	8b41                	andi	a4,a4,16
    9960:	c70d                	beqz	a4,998a <SystemCoreClockUpdate+0xa6>
    9962:	007a1737          	lui	a4,0x7a1
    9966:	20070713          	addi	a4,a4,512 # 7a1200 <_data_lma+0x78c318>
    996a:	02c70633          	mul	a2,a4,a2
    996e:	c390                	sw	a2,0(a5)
    9970:	ddc9                	beqz	a1,990a <SystemCoreClockUpdate+0x26>
    9972:	4398                	lw	a4,0(a5)
    9974:	8305                	srli	a4,a4,0x1
    9976:	bf49                	j	9908 <SystemCoreClockUpdate+0x24>
    9978:	4581                	li	a1,0
    997a:	4649                	li	a2,18
    997c:	bfe1                	j	9954 <SystemCoreClockUpdate+0x70>
    997e:	4585                	li	a1,1
    9980:	4635                	li	a2,13
    9982:	bfc9                	j	9954 <SystemCoreClockUpdate+0x70>
    9984:	4581                	li	a1,0
    9986:	463d                	li	a2,15
    9988:	b7f1                	j	9954 <SystemCoreClockUpdate+0x70>
    998a:	003d1737          	lui	a4,0x3d1
    998e:	90070713          	addi	a4,a4,-1792 # 3d0900 <_data_lma+0x3bba18>
    9992:	bfe1                	j	996a <SystemCoreClockUpdate+0x86>
    9994:	40021537          	lui	a0,0x40021
    9998:	5558                	lw	a4,44(a0)
    999a:	00f71693          	slli	a3,a4,0xf
    999e:	5558                	lw	a4,44(a0)
    99a0:	0406df63          	bgez	a3,99fe <SystemCoreClockUpdate+0x11a>
    99a4:	8311                	srli	a4,a4,0x4
    99a6:	8b3d                	andi	a4,a4,15
    99a8:	00170693          	addi	a3,a4,1
    99ac:	007a1737          	lui	a4,0x7a1
    99b0:	20070713          	addi	a4,a4,512 # 7a1200 <_data_lma+0x78c318>
    99b4:	02d75733          	divu	a4,a4,a3
    99b8:	c398                	sw	a4,0(a5)
    99ba:	5554                	lw	a3,44(a0)
    99bc:	82a1                	srli	a3,a3,0x8
    99be:	8abd                	andi	a3,a3,15
    99c0:	e28d                	bnez	a3,99e2 <SystemCoreClockUpdate+0xfe>
    99c2:	4695                	li	a3,5
    99c4:	02d70733          	mul	a4,a4,a3
    99c8:	8305                	srli	a4,a4,0x1
    99ca:	c398                	sw	a4,0(a5)
    99cc:	40021737          	lui	a4,0x40021
    99d0:	5758                	lw	a4,44(a4)
    99d2:	4394                	lw	a3,0(a5)
    99d4:	8b3d                	andi	a4,a4,15
    99d6:	0705                	addi	a4,a4,1
    99d8:	02e6d733          	divu	a4,a3,a4
    99dc:	c398                	sw	a4,0(a5)
    99de:	4398                	lw	a4,0(a5)
    99e0:	b769                	j	996a <SystemCoreClockUpdate+0x86>
    99e2:	4505                	li	a0,1
    99e4:	00a69463          	bne	a3,a0,99ec <SystemCoreClockUpdate+0x108>
    99e8:	46e5                	li	a3,25
    99ea:	bfe9                	j	99c4 <SystemCoreClockUpdate+0xe0>
    99ec:	453d                	li	a0,15
    99ee:	00a69663          	bne	a3,a0,99fa <SystemCoreClockUpdate+0x116>
    99f2:	46d1                	li	a3,20
    99f4:	02e68733          	mul	a4,a3,a4
    99f8:	bfc9                	j	99ca <SystemCoreClockUpdate+0xe6>
    99fa:	0689                	addi	a3,a3,2
    99fc:	bfe5                	j	99f4 <SystemCoreClockUpdate+0x110>
    99fe:	8b3d                	andi	a4,a4,15
    9a00:	00170693          	addi	a3,a4,1 # 40021001 <__freertos_irq_stack_top+0x20019001>
    9a04:	007a1737          	lui	a4,0x7a1
    9a08:	20070713          	addi	a4,a4,512 # 7a1200 <_data_lma+0x78c318>
    9a0c:	02d75733          	divu	a4,a4,a3
    9a10:	b7f1                	j	99dc <SystemCoreClockUpdate+0xf8>

00009a12 <ADC1_2_IRQHandler>:
    9a12:	a001                	j	9a12 <ADC1_2_IRQHandler>

00009a14 <handle_reset>:
    9a14:	1fff7197          	auipc	gp,0x1fff7
    9a18:	e7c18193          	addi	gp,gp,-388 # 20000890 <__global_pointer$>
    9a1c:	1fffe117          	auipc	sp,0x1fffe
    9a20:	5e410113          	addi	sp,sp,1508 # 20008000 <__freertos_irq_stack_top>
    9a24:	0000b517          	auipc	a0,0xb
    9a28:	4c450513          	addi	a0,a0,1220 # 14ee8 <_data_lma>
    9a2c:	1fff6597          	auipc	a1,0x1fff6
    9a30:	5d458593          	addi	a1,a1,1492 # 20000000 <_data_vma>
    9a34:	82018613          	addi	a2,gp,-2016 # 200000b0 <_edata>
    9a38:	00c5fa63          	bgeu	a1,a2,9a4c <handle_reset+0x38>
    9a3c:	00052283          	lw	t0,0(a0)
    9a40:	0055a023          	sw	t0,0(a1)
    9a44:	0511                	addi	a0,a0,4
    9a46:	0591                	addi	a1,a1,4
    9a48:	fec5eae3          	bltu	a1,a2,9a3c <handle_reset+0x28>
    9a4c:	1fff6517          	auipc	a0,0x1fff6
    9a50:	66450513          	addi	a0,a0,1636 # 200000b0 <_edata>
    9a54:	1fffb597          	auipc	a1,0x1fffb
    9a58:	6e058593          	addi	a1,a1,1760 # 20005134 <_ebss>
    9a5c:	00b57763          	bgeu	a0,a1,9a6a <handle_reset+0x56>
    9a60:	00052023          	sw	zero,0(a0)
    9a64:	0511                	addi	a0,a0,4
    9a66:	feb56de3          	bltu	a0,a1,9a60 <handle_reset+0x4c>
    9a6a:	42fd                	li	t0,31
    9a6c:	bc029073          	csrw	0xbc0,t0
    9a70:	42fd                	li	t0,31
    9a72:	80429073          	csrw	0x804,t0
    9a76:	000082b7          	lui	t0,0x8
    9a7a:	80028293          	addi	t0,t0,-2048 # 7800 <sha512_compress+0x74a>
    9a7e:	30029073          	csrw	mstatus,t0
    9a82:	ffff6297          	auipc	t0,0xffff6
    9a86:	58228293          	addi	t0,t0,1410 # 4 <_einit>
    9a8a:	0032e293          	ori	t0,t0,3
    9a8e:	30529073          	csrw	mtvec,t0
    9a92:	d59ff0ef          	jal	ra,97ea <SystemInit>
    9a96:	00000297          	auipc	t0,0x0
    9a9a:	a5228293          	addi	t0,t0,-1454 # 94e8 <main>
    9a9e:	34129073          	csrw	mepc,t0
    9aa2:	30200073          	mret

00009aa6 <BKP_DeInit>:
    9aa6:	a71f62ef          	jal	t0,516 <__riscv_save_0>
    9aaa:	4505                	li	a0,1
    9aac:	2e59                	jal	9e42 <RCC_BackupResetCmd>
    9aae:	4501                	li	a0,0
    9ab0:	2e49                	jal	9e42 <RCC_BackupResetCmd>
    9ab2:	a89f606f          	j	53a <__riscv_restore_0>

00009ab6 <BKP_WriteBackupRegister>:
    9ab6:	1141                	addi	sp,sp,-16
    9ab8:	400077b7          	lui	a5,0x40007
    9abc:	c602                	sw	zero,12(sp)
    9abe:	c0078793          	addi	a5,a5,-1024 # 40006c00 <__freertos_irq_stack_top+0x1fffec00>
    9ac2:	c63e                	sw	a5,12(sp)
    9ac4:	47b2                	lw	a5,12(sp)
    9ac6:	953e                	add	a0,a0,a5
    9ac8:	c62a                	sw	a0,12(sp)
    9aca:	47b2                	lw	a5,12(sp)
    9acc:	c38c                	sw	a1,0(a5)
    9ace:	0141                	addi	sp,sp,16
    9ad0:	8082                	ret

00009ad2 <BKP_ReadBackupRegister>:
    9ad2:	1141                	addi	sp,sp,-16
    9ad4:	400077b7          	lui	a5,0x40007
    9ad8:	c602                	sw	zero,12(sp)
    9ada:	c0078793          	addi	a5,a5,-1024 # 40006c00 <__freertos_irq_stack_top+0x1fffec00>
    9ade:	c63e                	sw	a5,12(sp)
    9ae0:	47b2                	lw	a5,12(sp)
    9ae2:	953e                	add	a0,a0,a5
    9ae4:	c62a                	sw	a0,12(sp)
    9ae6:	47b2                	lw	a5,12(sp)
    9ae8:	238a                	lhu	a0,0(a5)
    9aea:	0141                	addi	sp,sp,16
    9aec:	8082                	ret

00009aee <GPIO_Init>:
    9aee:	459c                	lw	a5,8(a1)
    9af0:	0107f713          	andi	a4,a5,16
    9af4:	00f7f813          	andi	a6,a5,15
    9af8:	c701                	beqz	a4,9b00 <GPIO_Init+0x12>
    9afa:	41d8                	lw	a4,4(a1)
    9afc:	00e86833          	or	a6,a6,a4
    9b00:	218e                	lhu	a1,0(a1)
    9b02:	0ff5f713          	andi	a4,a1,255
    9b06:	c339                	beqz	a4,9b4c <GPIO_Init+0x5e>
    9b08:	4118                	lw	a4,0(a0)
    9b0a:	4681                	li	a3,0
    9b0c:	4e85                	li	t4,1
    9b0e:	4f3d                	li	t5,15
    9b10:	02800f93          	li	t6,40
    9b14:	04800293          	li	t0,72
    9b18:	4e21                	li	t3,8
    9b1a:	00de9633          	sll	a2,t4,a3
    9b1e:	00c5f8b3          	and	a7,a1,a2
    9b22:	03161163          	bne	a2,a7,9b44 <GPIO_Init+0x56>
    9b26:	00269893          	slli	a7,a3,0x2
    9b2a:	011f1333          	sll	t1,t5,a7
    9b2e:	fff34313          	not	t1,t1
    9b32:	00e37733          	and	a4,t1,a4
    9b36:	011818b3          	sll	a7,a6,a7
    9b3a:	00e8e733          	or	a4,a7,a4
    9b3e:	05f79f63          	bne	a5,t6,9b9c <GPIO_Init+0xae>
    9b42:	c950                	sw	a2,20(a0)
    9b44:	0685                	addi	a3,a3,1
    9b46:	fdc69ae3          	bne	a3,t3,9b1a <GPIO_Init+0x2c>
    9b4a:	c118                	sw	a4,0(a0)
    9b4c:	0ff00713          	li	a4,255
    9b50:	04b77563          	bgeu	a4,a1,9b9a <GPIO_Init+0xac>
    9b54:	4154                	lw	a3,4(a0)
    9b56:	4621                	li	a2,8
    9b58:	4e85                	li	t4,1
    9b5a:	4f3d                	li	t5,15
    9b5c:	02800f93          	li	t6,40
    9b60:	04800293          	li	t0,72
    9b64:	4e41                	li	t3,16
    9b66:	00ce98b3          	sll	a7,t4,a2
    9b6a:	0115f733          	and	a4,a1,a7
    9b6e:	02e89263          	bne	a7,a4,9b92 <GPIO_Init+0xa4>
    9b72:	00261713          	slli	a4,a2,0x2
    9b76:	1701                	addi	a4,a4,-32
    9b78:	00ef1333          	sll	t1,t5,a4
    9b7c:	fff34313          	not	t1,t1
    9b80:	00d376b3          	and	a3,t1,a3
    9b84:	00e81733          	sll	a4,a6,a4
    9b88:	8ed9                	or	a3,a3,a4
    9b8a:	01f79d63          	bne	a5,t6,9ba4 <GPIO_Init+0xb6>
    9b8e:	01152a23          	sw	a7,20(a0)
    9b92:	0605                	addi	a2,a2,1
    9b94:	fdc619e3          	bne	a2,t3,9b66 <GPIO_Init+0x78>
    9b98:	c154                	sw	a3,4(a0)
    9b9a:	8082                	ret
    9b9c:	fa5794e3          	bne	a5,t0,9b44 <GPIO_Init+0x56>
    9ba0:	c910                	sw	a2,16(a0)
    9ba2:	b74d                	j	9b44 <GPIO_Init+0x56>
    9ba4:	fe5797e3          	bne	a5,t0,9b92 <GPIO_Init+0xa4>
    9ba8:	01152823          	sw	a7,16(a0)
    9bac:	b7dd                	j	9b92 <GPIO_Init+0xa4>

00009bae <GPIO_ReadInputDataBit>:
    9bae:	4508                	lw	a0,8(a0)
    9bb0:	8d6d                	and	a0,a0,a1
    9bb2:	00a03533          	snez	a0,a0
    9bb6:	8082                	ret

00009bb8 <GPIO_SetBits>:
    9bb8:	c90c                	sw	a1,16(a0)
    9bba:	8082                	ret

00009bbc <GPIO_ResetBits>:
    9bbc:	c94c                	sw	a1,20(a0)
    9bbe:	8082                	ret

00009bc0 <IWDG_WriteAccessCmd>:
    9bc0:	400037b7          	lui	a5,0x40003
    9bc4:	c388                	sw	a0,0(a5)
    9bc6:	8082                	ret

00009bc8 <IWDG_SetPrescaler>:
    9bc8:	400037b7          	lui	a5,0x40003
    9bcc:	c3c8                	sw	a0,4(a5)
    9bce:	8082                	ret

00009bd0 <IWDG_SetReload>:
    9bd0:	400037b7          	lui	a5,0x40003
    9bd4:	c788                	sw	a0,8(a5)
    9bd6:	8082                	ret

00009bd8 <IWDG_ReloadCounter>:
    9bd8:	67ad                	lui	a5,0xb
    9bda:	40003737          	lui	a4,0x40003
    9bde:	aaa78793          	addi	a5,a5,-1366 # aaaa <xQueueGenericSendFromISR+0x126>
    9be2:	c31c                	sw	a5,0(a4)
    9be4:	8082                	ret

00009be6 <IWDG_Enable>:
    9be6:	67b5                	lui	a5,0xd
    9be8:	40003737          	lui	a4,0x40003
    9bec:	ccc78793          	addi	a5,a5,-820 # cccc <__swsetup_r+0x76>
    9bf0:	c31c                	sw	a5,0(a4)
    9bf2:	40021737          	lui	a4,0x40021
    9bf6:	535c                	lw	a5,36(a4)
    9bf8:	8b89                	andi	a5,a5,2
    9bfa:	dff5                	beqz	a5,9bf6 <IWDG_Enable+0x10>
    9bfc:	8082                	ret

00009bfe <NVIC_PriorityGroupConfig>:
    9bfe:	200007b7          	lui	a5,0x20000
    9c02:	0ca7ac23          	sw	a0,216(a5) # 200000d8 <NVIC_Priority_Group>
    9c06:	8082                	ret

00009c08 <PWR_BackupAccessCmd>:
    9c08:	40007737          	lui	a4,0x40007
    9c0c:	431c                	lw	a5,0(a4)
    9c0e:	c509                	beqz	a0,9c18 <PWR_BackupAccessCmd+0x10>
    9c10:	1007e793          	ori	a5,a5,256
    9c14:	c31c                	sw	a5,0(a4)
    9c16:	8082                	ret
    9c18:	eff7f793          	andi	a5,a5,-257
    9c1c:	bfe5                	j	9c14 <PWR_BackupAccessCmd+0xc>

00009c1e <RCC_LSEConfig>:
    9c1e:	400217b7          	lui	a5,0x40021
    9c22:	02078023          	sb	zero,32(a5) # 40021020 <__freertos_irq_stack_top+0x20019020>
    9c26:	02078023          	sb	zero,32(a5)
    9c2a:	4705                	li	a4,1
    9c2c:	00e50663          	beq	a0,a4,9c38 <RCC_LSEConfig+0x1a>
    9c30:	4711                	li	a4,4
    9c32:	00e50663          	beq	a0,a4,9c3e <RCC_LSEConfig+0x20>
    9c36:	8082                	ret
    9c38:	02a78023          	sb	a0,32(a5)
    9c3c:	8082                	ret
    9c3e:	4715                	li	a4,5
    9c40:	02e78023          	sb	a4,32(a5)
    9c44:	8082                	ret

00009c46 <RCC_RTCCLKConfig>:
    9c46:	40021737          	lui	a4,0x40021
    9c4a:	531c                	lw	a5,32(a4)
    9c4c:	8d5d                	or	a0,a0,a5
    9c4e:	d308                	sw	a0,32(a4)
    9c50:	8082                	ret

00009c52 <RCC_RTCCLKCmd>:
    9c52:	c901                	beqz	a0,9c62 <RCC_RTCCLKCmd+0x10>
    9c54:	40021737          	lui	a4,0x40021
    9c58:	531c                	lw	a5,32(a4)
    9c5a:	66a1                	lui	a3,0x8
    9c5c:	8fd5                	or	a5,a5,a3
    9c5e:	d31c                	sw	a5,32(a4)
    9c60:	8082                	ret
    9c62:	400216b7          	lui	a3,0x40021
    9c66:	529c                	lw	a5,32(a3)
    9c68:	7761                	lui	a4,0xffff8
    9c6a:	177d                	addi	a4,a4,-1
    9c6c:	8ff9                	and	a5,a5,a4
    9c6e:	d29c                	sw	a5,32(a3)
    9c70:	8082                	ret

00009c72 <RCC_GetClocksFreq>:
    9c72:	40021737          	lui	a4,0x40021
    9c76:	435c                	lw	a5,4(a4)
    9c78:	4691                	li	a3,4
    9c7a:	8bb1                	andi	a5,a5,12
    9c7c:	00d78563          	beq	a5,a3,9c86 <RCC_GetClocksFreq+0x14>
    9c80:	46a1                	li	a3,8
    9c82:	06d78263          	beq	a5,a3,9ce6 <RCC_GetClocksFreq+0x74>
    9c86:	007a17b7          	lui	a5,0x7a1
    9c8a:	20078793          	addi	a5,a5,512 # 7a1200 <_data_lma+0x78c318>
    9c8e:	c11c                	sw	a5,0(a0)
    9c90:	40021637          	lui	a2,0x40021
    9c94:	425c                	lw	a5,4(a2)
    9c96:	20000737          	lui	a4,0x20000
    9c9a:	02070713          	addi	a4,a4,32 # 20000020 <APBAHBPrescTable>
    9c9e:	8391                	srli	a5,a5,0x4
    9ca0:	8bbd                	andi	a5,a5,15
    9ca2:	97ba                	add	a5,a5,a4
    9ca4:	2394                	lbu	a3,0(a5)
    9ca6:	411c                	lw	a5,0(a0)
    9ca8:	00d7d7b3          	srl	a5,a5,a3
    9cac:	c15c                	sw	a5,4(a0)
    9cae:	4254                	lw	a3,4(a2)
    9cb0:	82a1                	srli	a3,a3,0x8
    9cb2:	8a9d                	andi	a3,a3,7
    9cb4:	96ba                	add	a3,a3,a4
    9cb6:	2294                	lbu	a3,0(a3)
    9cb8:	00d7d6b3          	srl	a3,a5,a3
    9cbc:	c514                	sw	a3,8(a0)
    9cbe:	4254                	lw	a3,4(a2)
    9cc0:	82ad                	srli	a3,a3,0xb
    9cc2:	8a9d                	andi	a3,a3,7
    9cc4:	9736                	add	a4,a4,a3
    9cc6:	2318                	lbu	a4,0(a4)
    9cc8:	00e7d7b3          	srl	a5,a5,a4
    9ccc:	c55c                	sw	a5,12(a0)
    9cce:	4258                	lw	a4,4(a2)
    9cd0:	8339                	srli	a4,a4,0xe
    9cd2:	00377693          	andi	a3,a4,3
    9cd6:	80418713          	addi	a4,gp,-2044 # 20000094 <ADCPrescTable>
    9cda:	9736                	add	a4,a4,a3
    9cdc:	2318                	lbu	a4,0(a4)
    9cde:	02e7d7b3          	divu	a5,a5,a4
    9ce2:	c91c                	sw	a5,16(a0)
    9ce4:	8082                	ret
    9ce6:	435c                	lw	a5,4(a4)
    9ce8:	4358                	lw	a4,4(a4)
    9cea:	66c1                	lui	a3,0x10
    9cec:	83c9                	srli	a5,a5,0x12
    9cee:	8f75                	and	a4,a4,a3
    9cf0:	1ffff6b7          	lui	a3,0x1ffff
    9cf4:	70c6a683          	lw	a3,1804(a3) # 1ffff70c <_data_lma+0x1ffea824>
    9cf8:	8bbd                	andi	a5,a5,15
    9cfa:	0789                	addi	a5,a5,2
    9cfc:	01169613          	slli	a2,a3,0x11
    9d00:	00064863          	bltz	a2,9d10 <RCC_GetClocksFreq+0x9e>
    9d04:	46c5                	li	a3,17
    9d06:	4601                	li	a2,0
    9d08:	02d79263          	bne	a5,a3,9d2c <RCC_GetClocksFreq+0xba>
    9d0c:	47c9                	li	a5,18
    9d0e:	a839                	j	9d2c <RCC_GetClocksFreq+0xba>
    9d10:	4689                	li	a3,2
    9d12:	02d78f63          	beq	a5,a3,9d50 <RCC_GetClocksFreq+0xde>
    9d16:	46bd                	li	a3,15
    9d18:	02d78e63          	beq	a5,a3,9d54 <RCC_GetClocksFreq+0xe2>
    9d1c:	46c1                	li	a3,16
    9d1e:	02d78e63          	beq	a5,a3,9d5a <RCC_GetClocksFreq+0xe8>
    9d22:	46c5                	li	a3,17
    9d24:	4601                	li	a2,0
    9d26:	00d79363          	bne	a5,a3,9d2c <RCC_GetClocksFreq+0xba>
    9d2a:	47c1                	li	a5,16
    9d2c:	ef1d                	bnez	a4,9d6a <RCC_GetClocksFreq+0xf8>
    9d2e:	40024737          	lui	a4,0x40024
    9d32:	80072703          	lw	a4,-2048(a4) # 40023800 <__freertos_irq_stack_top+0x2001b800>
    9d36:	8b41                	andi	a4,a4,16
    9d38:	c705                	beqz	a4,9d60 <RCC_GetClocksFreq+0xee>
    9d3a:	007a1737          	lui	a4,0x7a1
    9d3e:	20070713          	addi	a4,a4,512 # 7a1200 <_data_lma+0x78c318>
    9d42:	02f707b3          	mul	a5,a4,a5
    9d46:	c11c                	sw	a5,0(a0)
    9d48:	d621                	beqz	a2,9c90 <RCC_GetClocksFreq+0x1e>
    9d4a:	411c                	lw	a5,0(a0)
    9d4c:	8385                	srli	a5,a5,0x1
    9d4e:	b781                	j	9c8e <RCC_GetClocksFreq+0x1c>
    9d50:	4601                	li	a2,0
    9d52:	bf6d                	j	9d0c <RCC_GetClocksFreq+0x9a>
    9d54:	4605                	li	a2,1
    9d56:	47b5                	li	a5,13
    9d58:	bfd1                	j	9d2c <RCC_GetClocksFreq+0xba>
    9d5a:	4601                	li	a2,0
    9d5c:	47bd                	li	a5,15
    9d5e:	b7f9                	j	9d2c <RCC_GetClocksFreq+0xba>
    9d60:	003d1737          	lui	a4,0x3d1
    9d64:	90070713          	addi	a4,a4,-1792 # 3d0900 <_data_lma+0x3bba18>
    9d68:	bfe9                	j	9d42 <RCC_GetClocksFreq+0xd0>
    9d6a:	400215b7          	lui	a1,0x40021
    9d6e:	55d8                	lw	a4,44(a1)
    9d70:	00f71693          	slli	a3,a4,0xf
    9d74:	55d8                	lw	a4,44(a1)
    9d76:	0406df63          	bgez	a3,9dd4 <RCC_GetClocksFreq+0x162>
    9d7a:	8311                	srli	a4,a4,0x4
    9d7c:	8b3d                	andi	a4,a4,15
    9d7e:	00170693          	addi	a3,a4,1
    9d82:	007a1737          	lui	a4,0x7a1
    9d86:	20070713          	addi	a4,a4,512 # 7a1200 <_data_lma+0x78c318>
    9d8a:	02d75733          	divu	a4,a4,a3
    9d8e:	c118                	sw	a4,0(a0)
    9d90:	55d4                	lw	a3,44(a1)
    9d92:	82a1                	srli	a3,a3,0x8
    9d94:	8abd                	andi	a3,a3,15
    9d96:	e28d                	bnez	a3,9db8 <RCC_GetClocksFreq+0x146>
    9d98:	4695                	li	a3,5
    9d9a:	02d70733          	mul	a4,a4,a3
    9d9e:	8305                	srli	a4,a4,0x1
    9da0:	c118                	sw	a4,0(a0)
    9da2:	40021737          	lui	a4,0x40021
    9da6:	5758                	lw	a4,44(a4)
    9da8:	4114                	lw	a3,0(a0)
    9daa:	8b3d                	andi	a4,a4,15
    9dac:	0705                	addi	a4,a4,1
    9dae:	02e6d733          	divu	a4,a3,a4
    9db2:	c118                	sw	a4,0(a0)
    9db4:	4118                	lw	a4,0(a0)
    9db6:	b771                	j	9d42 <RCC_GetClocksFreq+0xd0>
    9db8:	4585                	li	a1,1
    9dba:	00b69463          	bne	a3,a1,9dc2 <RCC_GetClocksFreq+0x150>
    9dbe:	46e5                	li	a3,25
    9dc0:	bfe9                	j	9d9a <RCC_GetClocksFreq+0x128>
    9dc2:	45bd                	li	a1,15
    9dc4:	00b69663          	bne	a3,a1,9dd0 <RCC_GetClocksFreq+0x15e>
    9dc8:	46d1                	li	a3,20
    9dca:	02e68733          	mul	a4,a3,a4
    9dce:	bfc9                	j	9da0 <RCC_GetClocksFreq+0x12e>
    9dd0:	0689                	addi	a3,a3,2
    9dd2:	bfe5                	j	9dca <RCC_GetClocksFreq+0x158>
    9dd4:	8b3d                	andi	a4,a4,15
    9dd6:	00170693          	addi	a3,a4,1 # 40021001 <__freertos_irq_stack_top+0x20019001>
    9dda:	007a1737          	lui	a4,0x7a1
    9dde:	20070713          	addi	a4,a4,512 # 7a1200 <_data_lma+0x78c318>
    9de2:	02d75733          	divu	a4,a4,a3
    9de6:	b7f1                	j	9db2 <RCC_GetClocksFreq+0x140>

00009de8 <RCC_AHBPeriphClockCmd>:
    9de8:	c599                	beqz	a1,9df6 <RCC_AHBPeriphClockCmd+0xe>
    9dea:	40021737          	lui	a4,0x40021
    9dee:	4b5c                	lw	a5,20(a4)
    9df0:	8d5d                	or	a0,a0,a5
    9df2:	cb48                	sw	a0,20(a4)
    9df4:	8082                	ret
    9df6:	400217b7          	lui	a5,0x40021
    9dfa:	4bd8                	lw	a4,20(a5)
    9dfc:	fff54513          	not	a0,a0
    9e00:	8d79                	and	a0,a0,a4
    9e02:	cbc8                	sw	a0,20(a5)
    9e04:	8082                	ret

00009e06 <RCC_APB2PeriphClockCmd>:
    9e06:	c599                	beqz	a1,9e14 <RCC_APB2PeriphClockCmd+0xe>
    9e08:	40021737          	lui	a4,0x40021
    9e0c:	4f1c                	lw	a5,24(a4)
    9e0e:	8d5d                	or	a0,a0,a5
    9e10:	cf08                	sw	a0,24(a4)
    9e12:	8082                	ret
    9e14:	400217b7          	lui	a5,0x40021
    9e18:	4f98                	lw	a4,24(a5)
    9e1a:	fff54513          	not	a0,a0
    9e1e:	8d79                	and	a0,a0,a4
    9e20:	cf88                	sw	a0,24(a5)
    9e22:	8082                	ret

00009e24 <RCC_APB1PeriphClockCmd>:
    9e24:	c599                	beqz	a1,9e32 <RCC_APB1PeriphClockCmd+0xe>
    9e26:	40021737          	lui	a4,0x40021
    9e2a:	4f5c                	lw	a5,28(a4)
    9e2c:	8d5d                	or	a0,a0,a5
    9e2e:	cf48                	sw	a0,28(a4)
    9e30:	8082                	ret
    9e32:	400217b7          	lui	a5,0x40021
    9e36:	4fd8                	lw	a4,28(a5)
    9e38:	fff54513          	not	a0,a0
    9e3c:	8d79                	and	a0,a0,a4
    9e3e:	cfc8                	sw	a0,28(a5)
    9e40:	8082                	ret

00009e42 <RCC_BackupResetCmd>:
    9e42:	c901                	beqz	a0,9e52 <RCC_BackupResetCmd+0x10>
    9e44:	40021737          	lui	a4,0x40021
    9e48:	531c                	lw	a5,32(a4)
    9e4a:	66c1                	lui	a3,0x10
    9e4c:	8fd5                	or	a5,a5,a3
    9e4e:	d31c                	sw	a5,32(a4)
    9e50:	8082                	ret
    9e52:	400216b7          	lui	a3,0x40021
    9e56:	529c                	lw	a5,32(a3)
    9e58:	7741                	lui	a4,0xffff0
    9e5a:	177d                	addi	a4,a4,-1
    9e5c:	8ff9                	and	a5,a5,a4
    9e5e:	d29c                	sw	a5,32(a3)
    9e60:	8082                	ret

00009e62 <RCC_GetFlagStatus>:
    9e62:	00555793          	srli	a5,a0,0x5
    9e66:	4705                	li	a4,1
    9e68:	00e79963          	bne	a5,a4,9e7a <RCC_GetFlagStatus+0x18>
    9e6c:	400217b7          	lui	a5,0x40021
    9e70:	439c                	lw	a5,0(a5)
    9e72:	00a7d533          	srl	a0,a5,a0
    9e76:	8905                	andi	a0,a0,1
    9e78:	8082                	ret
    9e7a:	4709                	li	a4,2
    9e7c:	00e79663          	bne	a5,a4,9e88 <RCC_GetFlagStatus+0x26>
    9e80:	400217b7          	lui	a5,0x40021
    9e84:	539c                	lw	a5,32(a5)
    9e86:	b7f5                	j	9e72 <RCC_GetFlagStatus+0x10>
    9e88:	400217b7          	lui	a5,0x40021
    9e8c:	53dc                	lw	a5,36(a5)
    9e8e:	b7d5                	j	9e72 <RCC_GetFlagStatus+0x10>

00009e90 <RNG_Cmd>:
    9e90:	40024737          	lui	a4,0x40024
    9e94:	c0072783          	lw	a5,-1024(a4) # 40023c00 <__freertos_irq_stack_top+0x2001bc00>
    9e98:	c511                	beqz	a0,9ea4 <RNG_Cmd+0x14>
    9e9a:	0047e793          	ori	a5,a5,4
    9e9e:	c0f72023          	sw	a5,-1024(a4)
    9ea2:	8082                	ret
    9ea4:	9bed                	andi	a5,a5,-5
    9ea6:	bfe5                	j	9e9e <RNG_Cmd+0xe>

00009ea8 <RNG_GetRandomNumber>:
    9ea8:	400247b7          	lui	a5,0x40024
    9eac:	c087a503          	lw	a0,-1016(a5) # 40023c08 <__freertos_irq_stack_top+0x2001bc08>
    9eb0:	8082                	ret

00009eb2 <RNG_GetFlagStatus>:
    9eb2:	400247b7          	lui	a5,0x40024
    9eb6:	c0078793          	addi	a5,a5,-1024 # 40023c00 <__freertos_irq_stack_top+0x2001bc00>
    9eba:	43dc                	lw	a5,4(a5)
    9ebc:	8d7d                	and	a0,a0,a5
    9ebe:	00a03533          	snez	a0,a0
    9ec2:	8082                	ret

00009ec4 <RTC_EnterConfigMode>:
    9ec4:	400037b7          	lui	a5,0x40003
    9ec8:	8047d703          	lhu	a4,-2044(a5) # 40002804 <__freertos_irq_stack_top+0x1fffa804>
    9ecc:	01076713          	ori	a4,a4,16
    9ed0:	80e79223          	sh	a4,-2044(a5)
    9ed4:	8082                	ret

00009ed6 <RTC_ExitConfigMode>:
    9ed6:	40003737          	lui	a4,0x40003
    9eda:	80475783          	lhu	a5,-2044(a4) # 40002804 <__freertos_irq_stack_top+0x1fffa804>
    9ede:	07c2                	slli	a5,a5,0x10
    9ee0:	83c1                	srli	a5,a5,0x10
    9ee2:	9bbd                	andi	a5,a5,-17
    9ee4:	07c2                	slli	a5,a5,0x10
    9ee6:	83c1                	srli	a5,a5,0x10
    9ee8:	80f71223          	sh	a5,-2044(a4)
    9eec:	8082                	ret

00009eee <RTC_GetCounter>:
    9eee:	40003637          	lui	a2,0x40003
    9ef2:	81865683          	lhu	a3,-2024(a2) # 40002818 <__freertos_irq_stack_top+0x1fffa818>
    9ef6:	81865703          	lhu	a4,-2024(a2)
    9efa:	0742                	slli	a4,a4,0x10
    9efc:	8341                	srli	a4,a4,0x10
    9efe:	fed71ae3          	bne	a4,a3,9ef2 <RTC_GetCounter+0x4>
    9f02:	40003637          	lui	a2,0x40003
    9f06:	81c65683          	lhu	a3,-2020(a2) # 4000281c <__freertos_irq_stack_top+0x1fffa81c>
    9f0a:	81c65783          	lhu	a5,-2020(a2)
    9f0e:	07c2                	slli	a5,a5,0x10
    9f10:	83c1                	srli	a5,a5,0x10
    9f12:	fed79ae3          	bne	a5,a3,9f06 <RTC_GetCounter+0x18>
    9f16:	400035b7          	lui	a1,0x40003
    9f1a:	8185d603          	lhu	a2,-2024(a1) # 40002818 <__freertos_irq_stack_top+0x1fffa818>
    9f1e:	8185d503          	lhu	a0,-2024(a1)
    9f22:	0542                	slli	a0,a0,0x10
    9f24:	8141                	srli	a0,a0,0x10
    9f26:	fec51ae3          	bne	a0,a2,9f1a <RTC_GetCounter+0x2c>
    9f2a:	00a70c63          	beq	a4,a0,9f42 <RTC_GetCounter+0x54>
    9f2e:	400036b7          	lui	a3,0x40003
    9f32:	81c6d703          	lhu	a4,-2020(a3) # 4000281c <__freertos_irq_stack_top+0x1fffa81c>
    9f36:	81c6d783          	lhu	a5,-2020(a3)
    9f3a:	07c2                	slli	a5,a5,0x10
    9f3c:	83c1                	srli	a5,a5,0x10
    9f3e:	fee79ae3          	bne	a5,a4,9f32 <RTC_GetCounter+0x44>
    9f42:	0542                	slli	a0,a0,0x10
    9f44:	8d5d                	or	a0,a0,a5
    9f46:	8082                	ret

00009f48 <RTC_SetCounter>:
    9f48:	dcef62ef          	jal	t0,516 <__riscv_save_0>
    9f4c:	1141                	addi	sp,sp,-16
    9f4e:	c62a                	sw	a0,12(sp)
    9f50:	f75ff0ef          	jal	ra,9ec4 <RTC_EnterConfigMode>
    9f54:	4532                	lw	a0,12(sp)
    9f56:	400037b7          	lui	a5,0x40003
    9f5a:	01055713          	srli	a4,a0,0x10
    9f5e:	0542                	slli	a0,a0,0x10
    9f60:	80e79c23          	sh	a4,-2024(a5) # 40002818 <__freertos_irq_stack_top+0x1fffa818>
    9f64:	8141                	srli	a0,a0,0x10
    9f66:	80a79e23          	sh	a0,-2020(a5)
    9f6a:	f6dff0ef          	jal	ra,9ed6 <RTC_ExitConfigMode>
    9f6e:	0141                	addi	sp,sp,16
    9f70:	dcaf606f          	j	53a <__riscv_restore_0>

00009f74 <RTC_SetPrescaler>:
    9f74:	da2f62ef          	jal	t0,516 <__riscv_save_0>
    9f78:	1141                	addi	sp,sp,-16
    9f7a:	c62a                	sw	a0,12(sp)
    9f7c:	f49ff0ef          	jal	ra,9ec4 <RTC_EnterConfigMode>
    9f80:	4532                	lw	a0,12(sp)
    9f82:	400037b7          	lui	a5,0x40003
    9f86:	01055713          	srli	a4,a0,0x10
    9f8a:	8b3d                	andi	a4,a4,15
    9f8c:	0542                	slli	a0,a0,0x10
    9f8e:	80e79423          	sh	a4,-2040(a5) # 40002808 <__freertos_irq_stack_top+0x1fffa808>
    9f92:	8141                	srli	a0,a0,0x10
    9f94:	80a79623          	sh	a0,-2036(a5)
    9f98:	f3fff0ef          	jal	ra,9ed6 <RTC_ExitConfigMode>
    9f9c:	0141                	addi	sp,sp,16
    9f9e:	d9cf606f          	j	53a <__riscv_restore_0>

00009fa2 <RTC_WaitForLastTask>:
    9fa2:	40003737          	lui	a4,0x40003
    9fa6:	80475783          	lhu	a5,-2044(a4) # 40002804 <__freertos_irq_stack_top+0x1fffa804>
    9faa:	0207f793          	andi	a5,a5,32
    9fae:	dfe5                	beqz	a5,9fa6 <RTC_WaitForLastTask+0x4>
    9fb0:	8082                	ret

00009fb2 <SPI_Init>:
    9fb2:	211a                	lhu	a4,0(a0)
    9fb4:	678d                	lui	a5,0x3
    9fb6:	04078793          	addi	a5,a5,64 # 3040 <ge_scalarmult_base+0xce>
    9fba:	21b6                	lhu	a3,2(a1)
    9fbc:	8f7d                	and	a4,a4,a5
    9fbe:	219e                	lhu	a5,0(a1)
    9fc0:	8fd5                	or	a5,a5,a3
    9fc2:	21d6                	lhu	a3,4(a1)
    9fc4:	8fd5                	or	a5,a5,a3
    9fc6:	21f6                	lhu	a3,6(a1)
    9fc8:	8fd5                	or	a5,a5,a3
    9fca:	2596                	lhu	a3,8(a1)
    9fcc:	8fd5                	or	a5,a5,a3
    9fce:	25b6                	lhu	a3,10(a1)
    9fd0:	8fd5                	or	a5,a5,a3
    9fd2:	25d6                	lhu	a3,12(a1)
    9fd4:	8fd5                	or	a5,a5,a3
    9fd6:	25f6                	lhu	a3,14(a1)
    9fd8:	8fd5                	or	a5,a5,a3
    9fda:	8fd9                	or	a5,a5,a4
    9fdc:	a11e                	sh	a5,0(a0)
    9fde:	2d5a                	lhu	a4,28(a0)
    9fe0:	77fd                	lui	a5,0xfffff
    9fe2:	7ff78793          	addi	a5,a5,2047 # fffff7ff <__freertos_irq_stack_top+0xdfff77ff>
    9fe6:	8ff9                	and	a5,a5,a4
    9fe8:	ad5e                	sh	a5,28(a0)
    9fea:	299e                	lhu	a5,16(a1)
    9fec:	a91e                	sh	a5,16(a0)
    9fee:	8082                	ret

00009ff0 <SPI_Cmd>:
    9ff0:	211e                	lhu	a5,0(a0)
    9ff2:	c589                	beqz	a1,9ffc <SPI_Cmd+0xc>
    9ff4:	0407e793          	ori	a5,a5,64
    9ff8:	a11e                	sh	a5,0(a0)
    9ffa:	8082                	ret
    9ffc:	07c2                	slli	a5,a5,0x10
    9ffe:	83c1                	srli	a5,a5,0x10
    a000:	fbf7f793          	andi	a5,a5,-65
    a004:	07c2                	slli	a5,a5,0x10
    a006:	83c1                	srli	a5,a5,0x10
    a008:	bfc5                	j	9ff8 <SPI_Cmd+0x8>

0000a00a <SPI_SSOutputCmd>:
    a00a:	215e                	lhu	a5,4(a0)
    a00c:	c589                	beqz	a1,a016 <SPI_SSOutputCmd+0xc>
    a00e:	0047e793          	ori	a5,a5,4
    a012:	a15e                	sh	a5,4(a0)
    a014:	8082                	ret
    a016:	07c2                	slli	a5,a5,0x10
    a018:	83c1                	srli	a5,a5,0x10
    a01a:	9bed                	andi	a5,a5,-5
    a01c:	07c2                	slli	a5,a5,0x10
    a01e:	83c1                	srli	a5,a5,0x10
    a020:	bfcd                	j	a012 <SPI_SSOutputCmd+0x8>

0000a022 <SPI_I2S_GetFlagStatus>:
    a022:	250a                	lhu	a0,8(a0)
    a024:	8d6d                	and	a0,a0,a1
    a026:	00a03533          	snez	a0,a0
    a02a:	8082                	ret

0000a02c <USART_Init>:
    a02c:	ceaf62ef          	jal	t0,516 <__riscv_save_0>
    a030:	2916                	lhu	a3,16(a0)
    a032:	77f5                	lui	a5,0xffffd
    a034:	17fd                	addi	a5,a5,-1
    a036:	8ff5                	and	a5,a5,a3
    a038:	21f6                	lhu	a3,6(a1)
    a03a:	25da                	lhu	a4,12(a1)
    a03c:	7179                	addi	sp,sp,-48
    a03e:	8fd5                	or	a5,a5,a3
    a040:	a91e                	sh	a5,16(a0)
    a042:	2556                	lhu	a3,12(a0)
    a044:	77fd                	lui	a5,0xfffff
    a046:	9f378793          	addi	a5,a5,-1549 # ffffe9f3 <__freertos_irq_stack_top+0xdfff69f3>
    a04a:	8ff5                	and	a5,a5,a3
    a04c:	21d6                	lhu	a3,4(a1)
    a04e:	842a                	mv	s0,a0
    a050:	c62e                	sw	a1,12(sp)
    a052:	8fd5                	or	a5,a5,a3
    a054:	2596                	lhu	a3,8(a1)
    a056:	8fd5                	or	a5,a5,a3
    a058:	25b6                	lhu	a3,10(a1)
    a05a:	8fd5                	or	a5,a5,a3
    a05c:	a55e                	sh	a5,12(a0)
    a05e:	295e                	lhu	a5,20(a0)
    a060:	07c2                	slli	a5,a5,0x10
    a062:	83c1                	srli	a5,a5,0x10
    a064:	cff7f793          	andi	a5,a5,-769
    a068:	8fd9                	or	a5,a5,a4
    a06a:	a95e                	sh	a5,20(a0)
    a06c:	0868                	addi	a0,sp,28
    a06e:	c05ff0ef          	jal	ra,9c72 <RCC_GetClocksFreq>
    a072:	400147b7          	lui	a5,0x40014
    a076:	80078793          	addi	a5,a5,-2048 # 40013800 <__freertos_irq_stack_top+0x2000b800>
    a07a:	45b2                	lw	a1,12(sp)
    a07c:	02f41e63          	bne	s0,a5,a0b8 <USART_Init+0x8c>
    a080:	57a2                	lw	a5,40(sp)
    a082:	4765                	li	a4,25
    a084:	02e787b3          	mul	a5,a5,a4
    a088:	4198                	lw	a4,0(a1)
    a08a:	06400693          	li	a3,100
    a08e:	070a                	slli	a4,a4,0x2
    a090:	02e7d7b3          	divu	a5,a5,a4
    a094:	02d7d733          	divu	a4,a5,a3
    a098:	02d7f7b3          	remu	a5,a5,a3
    a09c:	0712                	slli	a4,a4,0x4
    a09e:	0792                	slli	a5,a5,0x4
    a0a0:	03278793          	addi	a5,a5,50
    a0a4:	02d7d7b3          	divu	a5,a5,a3
    a0a8:	8bbd                	andi	a5,a5,15
    a0aa:	8fd9                	or	a5,a5,a4
    a0ac:	07c2                	slli	a5,a5,0x10
    a0ae:	83c1                	srli	a5,a5,0x10
    a0b0:	a41e                	sh	a5,8(s0)
    a0b2:	6145                	addi	sp,sp,48
    a0b4:	c86f606f          	j	53a <__riscv_restore_0>
    a0b8:	5792                	lw	a5,36(sp)
    a0ba:	b7e1                	j	a082 <USART_Init+0x56>

0000a0bc <USART_Cmd>:
    a0bc:	c591                	beqz	a1,a0c8 <USART_Cmd+0xc>
    a0be:	255e                	lhu	a5,12(a0)
    a0c0:	6709                	lui	a4,0x2
    a0c2:	8fd9                	or	a5,a5,a4
    a0c4:	a55e                	sh	a5,12(a0)
    a0c6:	8082                	ret
    a0c8:	255a                	lhu	a4,12(a0)
    a0ca:	77f9                	lui	a5,0xffffe
    a0cc:	17fd                	addi	a5,a5,-1
    a0ce:	8ff9                	and	a5,a5,a4
    a0d0:	bfd5                	j	a0c4 <USART_Cmd+0x8>

0000a0d2 <USART_ITConfig>:
    a0d2:	0ff5f713          	andi	a4,a1,255
    a0d6:	4785                	li	a5,1
    a0d8:	8315                	srli	a4,a4,0x5
    a0da:	00b795b3          	sll	a1,a5,a1
    a0de:	00f71963          	bne	a4,a5,a0f0 <USART_ITConfig+0x1e>
    a0e2:	00c50793          	addi	a5,a0,12
    a0e6:	4398                	lw	a4,0(a5)
    a0e8:	ce01                	beqz	a2,a100 <USART_ITConfig+0x2e>
    a0ea:	8dd9                	or	a1,a1,a4
    a0ec:	c38c                	sw	a1,0(a5)
    a0ee:	8082                	ret
    a0f0:	4689                	li	a3,2
    a0f2:	01450793          	addi	a5,a0,20
    a0f6:	fed718e3          	bne	a4,a3,a0e6 <USART_ITConfig+0x14>
    a0fa:	01050793          	addi	a5,a0,16
    a0fe:	b7e5                	j	a0e6 <USART_ITConfig+0x14>
    a100:	fff5c593          	not	a1,a1
    a104:	8df9                	and	a1,a1,a4
    a106:	b7dd                	j	a0ec <USART_ITConfig+0x1a>

0000a108 <USART_SendData>:
    a108:	1ff5f593          	andi	a1,a1,511
    a10c:	a14e                	sh	a1,4(a0)
    a10e:	8082                	ret

0000a110 <USART_ReceiveData>:
    a110:	214a                	lhu	a0,4(a0)
    a112:	1ff57513          	andi	a0,a0,511
    a116:	8082                	ret

0000a118 <USART_GetFlagStatus>:
    a118:	210a                	lhu	a0,0(a0)
    a11a:	8d6d                	and	a0,a0,a1
    a11c:	00a03533          	snez	a0,a0
    a120:	8082                	ret

0000a122 <prvInsertBlockIntoFreeList>:
    a122:	200007b7          	lui	a5,0x20000
    a126:	0f478793          	addi	a5,a5,244 # 200000f4 <xStart>
    a12a:	4398                	lw	a4,0(a5)
    a12c:	02a76f63          	bltu	a4,a0,a16a <prvInsertBlockIntoFreeList+0x48>
    a130:	43d0                	lw	a2,4(a5)
    a132:	00c786b3          	add	a3,a5,a2
    a136:	00d51663          	bne	a0,a3,a142 <prvInsertBlockIntoFreeList+0x20>
    a13a:	4154                	lw	a3,4(a0)
    a13c:	853e                	mv	a0,a5
    a13e:	96b2                	add	a3,a3,a2
    a140:	c3d4                	sw	a3,4(a5)
    a142:	4150                	lw	a2,4(a0)
    a144:	00c506b3          	add	a3,a0,a2
    a148:	00d71c63          	bne	a4,a3,a160 <prvInsertBlockIntoFreeList+0x3e>
    a14c:	200006b7          	lui	a3,0x20000
    a150:	0dc6a683          	lw	a3,220(a3) # 200000dc <pxEnd>
    a154:	00d70663          	beq	a4,a3,a160 <prvInsertBlockIntoFreeList+0x3e>
    a158:	4354                	lw	a3,4(a4)
    a15a:	4318                	lw	a4,0(a4)
    a15c:	96b2                	add	a3,a3,a2
    a15e:	c154                	sw	a3,4(a0)
    a160:	c118                	sw	a4,0(a0)
    a162:	00f50363          	beq	a0,a5,a168 <prvInsertBlockIntoFreeList+0x46>
    a166:	c388                	sw	a0,0(a5)
    a168:	8082                	ret
    a16a:	87ba                	mv	a5,a4
    a16c:	bf7d                	j	a12a <prvInsertBlockIntoFreeList+0x8>

0000a16e <pvPortMalloc>:
    a16e:	b8ef62ef          	jal	t0,4fc <__riscv_save_4>
    a172:	1141                	addi	sp,sp,-16
    a174:	c62a                	sw	a0,12(sp)
    a176:	70f000ef          	jal	ra,b084 <vTaskSuspendAll>
    a17a:	200006b7          	lui	a3,0x20000
    a17e:	0dc6a783          	lw	a5,220(a3) # 200000dc <pxEnd>
    a182:	20000637          	lui	a2,0x20000
    a186:	0dc68693          	addi	a3,a3,220
    a18a:	0e060613          	addi	a2,a2,224 # 200000e0 <xBlockAllocatedBit>
    a18e:	4532                	lw	a0,12(sp)
    a190:	efa9                	bnez	a5,a1ea <pvPortMalloc+0x7c>
    a192:	20000737          	lui	a4,0x20000
    a196:	73870793          	addi	a5,a4,1848 # 20000738 <ucHeap>
    a19a:	00f7f593          	andi	a1,a5,15
    a19e:	73870713          	addi	a4,a4,1848
    a1a2:	c581                	beqz	a1,a1aa <pvPortMalloc+0x3c>
    a1a4:	00f78713          	addi	a4,a5,15
    a1a8:	9b41                	andi	a4,a4,-16
    a1aa:	200005b7          	lui	a1,0x20000
    a1ae:	0f458593          	addi	a1,a1,244 # 200000f4 <xStart>
    a1b2:	0005a223          	sw	zero,4(a1)
    a1b6:	c198                	sw	a4,0(a1)
    a1b8:	6591                	lui	a1,0x4
    a1ba:	7f058593          	addi	a1,a1,2032 # 47f0 <sc_muladd+0x18>
    a1be:	97ae                	add	a5,a5,a1
    a1c0:	9bc1                	andi	a5,a5,-16
    a1c2:	0007a223          	sw	zero,4(a5)
    a1c6:	0007a023          	sw	zero,0(a5)
    a1ca:	40e785b3          	sub	a1,a5,a4
    a1ce:	c29c                	sw	a5,0(a3)
    a1d0:	c31c                	sw	a5,0(a4)
    a1d2:	200007b7          	lui	a5,0x20000
    a1d6:	0eb7a423          	sw	a1,232(a5) # 200000e8 <xMinimumEverFreeBytesRemaining>
    a1da:	200007b7          	lui	a5,0x20000
    a1de:	0eb7a223          	sw	a1,228(a5) # 200000e4 <xFreeBytesRemaining>
    a1e2:	800007b7          	lui	a5,0x80000
    a1e6:	c34c                	sw	a1,4(a4)
    a1e8:	c21c                	sw	a5,0(a2)
    a1ea:	00062a03          	lw	s4,0(a2)
    a1ee:	00aa77b3          	and	a5,s4,a0
    a1f2:	e385                	bnez	a5,a212 <pvPortMalloc+0xa4>
    a1f4:	fff50793          	addi	a5,a0,-1
    a1f8:	5739                	li	a4,-18
    a1fa:	00f76c63          	bltu	a4,a5,a212 <pvPortMalloc+0xa4>
    a1fe:	01050793          	addi	a5,a0,16
    a202:	00f7f713          	andi	a4,a5,15
    a206:	c349                	beqz	a4,a288 <pvPortMalloc+0x11a>
    a208:	ff07f713          	andi	a4,a5,-16
    a20c:	0741                	addi	a4,a4,16
    a20e:	06e7ec63          	bltu	a5,a4,a286 <pvPortMalloc+0x118>
    a212:	4481                	li	s1,0
    a214:	a091                	j	a258 <pvPortMalloc+0xea>
    a216:	8722                	mv	a4,s0
    a218:	842e                	mv	s0,a1
    a21a:	a069                	j	a2a4 <pvPortMalloc+0x136>
    a21c:	c158                	sw	a4,4(a0)
    a21e:	c05c                	sw	a5,4(s0)
    a220:	f03ff0ef          	jal	ra,a122 <prvInsertBlockIntoFreeList>
    a224:	4058                	lw	a4,4(s0)
    a226:	200006b7          	lui	a3,0x20000
    a22a:	0e868693          	addi	a3,a3,232 # 200000e8 <xMinimumEverFreeBytesRemaining>
    a22e:	4290                	lw	a2,0(a3)
    a230:	40e907b3          	sub	a5,s2,a4
    a234:	00f9a023          	sw	a5,0(s3)
    a238:	00c7f363          	bgeu	a5,a2,a23e <pvPortMalloc+0xd0>
    a23c:	c29c                	sw	a5,0(a3)
    a23e:	200007b7          	lui	a5,0x20000
    a242:	00ea6733          	or	a4,s4,a4
    a246:	0ec78793          	addi	a5,a5,236 # 200000ec <xNumberOfSuccessfulAllocations>
    a24a:	c058                	sw	a4,4(s0)
    a24c:	4398                	lw	a4,0(a5)
    a24e:	04c1                	addi	s1,s1,16
    a250:	00042023          	sw	zero,0(s0)
    a254:	0705                	addi	a4,a4,1
    a256:	c398                	sw	a4,0(a5)
    a258:	7f3000ef          	jal	ra,b24a <xTaskResumeAll>
    a25c:	00f4f793          	andi	a5,s1,15
    a260:	cbd1                	beqz	a5,a2f4 <pvPortMalloc+0x186>
    a262:	67a1                	lui	a5,0x8
    a264:	80078793          	addi	a5,a5,-2048 # 7800 <sha512_compress+0x74a>
    a268:	30079073          	csrw	mstatus,a5
    a26c:	00015637          	lui	a2,0x15
    a270:	00015537          	lui	a0,0x15
    a274:	d5c60613          	addi	a2,a2,-676 # 14d5c <app_ver+0x3c>
    a278:	11000593          	li	a1,272
    a27c:	d8450513          	addi	a0,a0,-636 # 14d84 <app_ver+0x64>
    a280:	7f9010ef          	jal	ra,c278 <iprintf>
    a284:	a001                	j	a284 <pvPortMalloc+0x116>
    a286:	87ba                	mv	a5,a4
    a288:	20000737          	lui	a4,0x20000
    a28c:	0e472903          	lw	s2,228(a4) # 200000e4 <xFreeBytesRemaining>
    a290:	0e470993          	addi	s3,a4,228
    a294:	f6f96fe3          	bltu	s2,a5,a212 <pvPortMalloc+0xa4>
    a298:	20000737          	lui	a4,0x20000
    a29c:	0f472403          	lw	s0,244(a4) # 200000f4 <xStart>
    a2a0:	0f470713          	addi	a4,a4,244
    a2a4:	4050                	lw	a2,4(s0)
    a2a6:	00f67463          	bgeu	a2,a5,a2ae <pvPortMalloc+0x140>
    a2aa:	400c                	lw	a1,0(s0)
    a2ac:	f5ad                	bnez	a1,a216 <pvPortMalloc+0xa8>
    a2ae:	4294                	lw	a3,0(a3)
    a2b0:	f68681e3          	beq	a3,s0,a212 <pvPortMalloc+0xa4>
    a2b4:	4014                	lw	a3,0(s0)
    a2b6:	4304                	lw	s1,0(a4)
    a2b8:	c314                	sw	a3,0(a4)
    a2ba:	40f60733          	sub	a4,a2,a5
    a2be:	02000693          	li	a3,32
    a2c2:	f6e6f1e3          	bgeu	a3,a4,a224 <pvPortMalloc+0xb6>
    a2c6:	00f40533          	add	a0,s0,a5
    a2ca:	00f57693          	andi	a3,a0,15
    a2ce:	d6b9                	beqz	a3,a21c <pvPortMalloc+0xae>
    a2d0:	67a1                	lui	a5,0x8
    a2d2:	80078793          	addi	a5,a5,-2048 # 7800 <sha512_compress+0x74a>
    a2d6:	30079073          	csrw	mstatus,a5
    a2da:	00015637          	lui	a2,0x15
    a2de:	00015537          	lui	a0,0x15
    a2e2:	d5c60613          	addi	a2,a2,-676 # 14d5c <app_ver+0x3c>
    a2e6:	0cf00593          	li	a1,207
    a2ea:	d8450513          	addi	a0,a0,-636 # 14d84 <app_ver+0x64>
    a2ee:	78b010ef          	jal	ra,c278 <iprintf>
    a2f2:	a001                	j	a2f2 <pvPortMalloc+0x184>
    a2f4:	8526                	mv	a0,s1
    a2f6:	0141                	addi	sp,sp,16
    a2f8:	a38f606f          	j	530 <__riscv_restore_4>

0000a2fc <vPortFree>:
    a2fc:	c15d                	beqz	a0,a3a2 <vPortFree+0xa6>
    a2fe:	a18f62ef          	jal	t0,516 <__riscv_save_0>
    a302:	200007b7          	lui	a5,0x20000
    a306:	ff452703          	lw	a4,-12(a0)
    a30a:	0e07a783          	lw	a5,224(a5) # 200000e0 <xBlockAllocatedBit>
    a30e:	842a                	mv	s0,a0
    a310:	00f776b3          	and	a3,a4,a5
    a314:	e29d                	bnez	a3,a33a <vPortFree+0x3e>
    a316:	67a1                	lui	a5,0x8
    a318:	80078793          	addi	a5,a5,-2048 # 7800 <sha512_compress+0x74a>
    a31c:	30079073          	csrw	mstatus,a5
    a320:	00015637          	lui	a2,0x15
    a324:	00015537          	lui	a0,0x15
    a328:	d5c60613          	addi	a2,a2,-676 # 14d5c <app_ver+0x3c>
    a32c:	12400593          	li	a1,292
    a330:	d8450513          	addi	a0,a0,-636 # 14d84 <app_ver+0x64>
    a334:	745010ef          	jal	ra,c278 <iprintf>
    a338:	a001                	j	a338 <vPortFree+0x3c>
    a33a:	ff052683          	lw	a3,-16(a0)
    a33e:	c29d                	beqz	a3,a364 <vPortFree+0x68>
    a340:	67a1                	lui	a5,0x8
    a342:	80078793          	addi	a5,a5,-2048 # 7800 <sha512_compress+0x74a>
    a346:	30079073          	csrw	mstatus,a5
    a34a:	00015637          	lui	a2,0x15
    a34e:	00015537          	lui	a0,0x15
    a352:	d5c60613          	addi	a2,a2,-676 # 14d5c <app_ver+0x3c>
    a356:	12500593          	li	a1,293
    a35a:	d8450513          	addi	a0,a0,-636 # 14d84 <app_ver+0x64>
    a35e:	71b010ef          	jal	ra,c278 <iprintf>
    a362:	a001                	j	a362 <vPortFree+0x66>
    a364:	fff7c793          	not	a5,a5
    a368:	8ff9                	and	a5,a5,a4
    a36a:	fef52a23          	sw	a5,-12(a0)
    a36e:	517000ef          	jal	ra,b084 <vTaskSuspendAll>
    a372:	200007b7          	lui	a5,0x20000
    a376:	0e478793          	addi	a5,a5,228 # 200000e4 <xFreeBytesRemaining>
    a37a:	4394                	lw	a3,0(a5)
    a37c:	ff442703          	lw	a4,-12(s0)
    a380:	ff040513          	addi	a0,s0,-16
    a384:	9736                	add	a4,a4,a3
    a386:	c398                	sw	a4,0(a5)
    a388:	d9bff0ef          	jal	ra,a122 <prvInsertBlockIntoFreeList>
    a38c:	200007b7          	lui	a5,0x20000
    a390:	0f078793          	addi	a5,a5,240 # 200000f0 <xNumberOfSuccessfulFrees>
    a394:	4398                	lw	a4,0(a5)
    a396:	0705                	addi	a4,a4,1
    a398:	c398                	sw	a4,0(a5)
    a39a:	6b1000ef          	jal	ra,b24a <xTaskResumeAll>
    a39e:	99cf606f          	j	53a <__riscv_restore_0>
    a3a2:	8082                	ret

0000a3a4 <vPortSetupTimerInterrupt>:
    a3a4:	e000e7b7          	lui	a5,0xe000e
    a3a8:	5741                	li	a4,-16
    a3aa:	40e78723          	sb	a4,1038(a5) # e000e40e <__freertos_irq_stack_top+0xc000640e>
    a3ae:	40e78623          	sb	a4,1036(a5)
    a3b2:	e000f7b7          	lui	a5,0xe000f
    a3b6:	0007a023          	sw	zero,0(a5) # e000f000 <__freertos_irq_stack_top+0xc0007000>
    a3ba:	0007a223          	sw	zero,4(a5)
    a3be:	4681                	li	a3,0
    a3c0:	c794                	sw	a3,8(a5)
    a3c2:	4701                	li	a4,0
    a3c4:	c7d8                	sw	a4,12(a5)
    a3c6:	20000737          	lui	a4,0x20000
    a3ca:	09072583          	lw	a1,144(a4) # 20000090 <SystemCoreClock>
    a3ce:	1f400713          	li	a4,500
    a3d2:	4681                	li	a3,0
    a3d4:	02e5d633          	divu	a2,a1,a4
    a3d8:	473d                	li	a4,15
    a3da:	cb90                	sw	a2,16(a5)
    a3dc:	cbd4                	sw	a3,20(a5)
    a3de:	c398                	sw	a4,0(a5)
    a3e0:	8082                	ret

0000a3e2 <xPortStartScheduler>:
    a3e2:	934f62ef          	jal	t0,516 <__riscv_save_0>
    a3e6:	1141                	addi	sp,sp,-16
    a3e8:	c602                	sw	zero,12(sp)
    a3ea:	305027f3          	csrr	a5,mtvec
    a3ee:	c63e                	sw	a5,12(sp)
    a3f0:	47b2                	lw	a5,12(sp)
    a3f2:	470d                	li	a4,3
    a3f4:	8b8d                	andi	a5,a5,3
    a3f6:	02e78463          	beq	a5,a4,a41e <xPortStartScheduler+0x3c>
    a3fa:	67a1                	lui	a5,0x8
    a3fc:	80078793          	addi	a5,a5,-2048 # 7800 <sha512_compress+0x74a>
    a400:	30079073          	csrw	mstatus,a5
    a404:	00015637          	lui	a2,0x15
    a408:	00015537          	lui	a0,0x15
    a40c:	da860613          	addi	a2,a2,-600 # 14da8 <app_ver+0x88>
    a410:	0b600593          	li	a1,182
    a414:	d8450513          	addi	a0,a0,-636 # 14d84 <app_ver+0x64>
    a418:	661010ef          	jal	ra,c278 <iprintf>
    a41c:	a001                	j	a41c <xPortStartScheduler+0x3a>
    a41e:	200087b7          	lui	a5,0x20008
    a422:	00078793          	mv	a5,a5
    a426:	8bbd                	andi	a5,a5,15
    a428:	c39d                	beqz	a5,a44e <xPortStartScheduler+0x6c>
    a42a:	67a1                	lui	a5,0x8
    a42c:	80078793          	addi	a5,a5,-2048 # 7800 <sha512_compress+0x74a>
    a430:	30079073          	csrw	mstatus,a5
    a434:	00015637          	lui	a2,0x15
    a438:	00015537          	lui	a0,0x15
    a43c:	da860613          	addi	a2,a2,-600 # 14da8 <app_ver+0x88>
    a440:	0bb00593          	li	a1,187
    a444:	d8450513          	addi	a0,a0,-636 # 14d84 <app_ver+0x64>
    a448:	631010ef          	jal	ra,c278 <iprintf>
    a44c:	a001                	j	a44c <xPortStartScheduler+0x6a>
    a44e:	f57ff0ef          	jal	ra,a3a4 <vPortSetupTimerInterrupt>
    a452:	e000e7b7          	lui	a5,0xe000e
    a456:	6705                	lui	a4,0x1
    a458:	10e7a023          	sw	a4,256(a5) # e000e100 <__freertos_irq_stack_top+0xc0006100>
    a45c:	6711                	lui	a4,0x4
    a45e:	10e7a023          	sw	a4,256(a5)
    a462:	8001a423          	sw	zero,-2040(gp) # 20000098 <uxCriticalNesting>
    a466:	e9bf50ef          	jal	ra,300 <xPortStartFirstTask>
    a46a:	4501                	li	a0,0
    a46c:	0141                	addi	sp,sp,16
    a46e:	8ccf606f          	j	53a <__riscv_restore_0>

0000a472 <SysTick_Handler>:
    a472:	34011173          	csrrw	sp,mscratch,sp
    a476:	67a1                	lui	a5,0x8
    a478:	80078793          	addi	a5,a5,-2048 # 7800 <sha512_compress+0x74a>
    a47c:	30079073          	csrw	mstatus,a5
    a480:	e000f7b7          	lui	a5,0xe000f
    a484:	0007a223          	sw	zero,4(a5) # e000f004 <__freertos_irq_stack_top+0xc0007004>
    a488:	417000ef          	jal	ra,b09e <xTaskIncrementTick>
    a48c:	c511                	beqz	a0,a498 <SysTick_Handler+0x26>
    a48e:	e000e7b7          	lui	a5,0xe000e
    a492:	6711                	lui	a4,0x4
    a494:	20e7a023          	sw	a4,512(a5) # e000e200 <__freertos_irq_stack_top+0xc0006200>
    a498:	67a1                	lui	a5,0x8
    a49a:	88878793          	addi	a5,a5,-1912 # 7888 <sha512_compress+0x7d2>
    a49e:	30079073          	csrw	mstatus,a5
    a4a2:	34011173          	csrrw	sp,mscratch,sp
    a4a6:	30200073          	mret

0000a4aa <vPortEnterCritical>:
    a4aa:	67a1                	lui	a5,0x8
    a4ac:	80078793          	addi	a5,a5,-2048 # 7800 <sha512_compress+0x74a>
    a4b0:	30079073          	csrw	mstatus,a5
    a4b4:	80818793          	addi	a5,gp,-2040 # 20000098 <uxCriticalNesting>
    a4b8:	4398                	lw	a4,0(a5)
    a4ba:	0705                	addi	a4,a4,1
    a4bc:	c398                	sw	a4,0(a5)
    a4be:	8082                	ret

0000a4c0 <vPortExitCritical>:
    a4c0:	80818713          	addi	a4,gp,-2040 # 20000098 <uxCriticalNesting>
    a4c4:	431c                	lw	a5,0(a4)
    a4c6:	e78d                	bnez	a5,a4f0 <vPortExitCritical+0x30>
    a4c8:	84ef62ef          	jal	t0,516 <__riscv_save_0>
    a4cc:	67a1                	lui	a5,0x8
    a4ce:	80078793          	addi	a5,a5,-2048 # 7800 <sha512_compress+0x74a>
    a4d2:	30079073          	csrw	mstatus,a5
    a4d6:	00015637          	lui	a2,0x15
    a4da:	00015537          	lui	a0,0x15
    a4de:	da860613          	addi	a2,a2,-600 # 14da8 <app_ver+0x88>
    a4e2:	10200593          	li	a1,258
    a4e6:	d8450513          	addi	a0,a0,-636 # 14d84 <app_ver+0x64>
    a4ea:	58f010ef          	jal	ra,c278 <iprintf>
    a4ee:	a001                	j	a4ee <vPortExitCritical+0x2e>
    a4f0:	17fd                	addi	a5,a5,-1
    a4f2:	c31c                	sw	a5,0(a4)
    a4f4:	e791                	bnez	a5,a500 <vPortExitCritical+0x40>
    a4f6:	67a1                	lui	a5,0x8
    a4f8:	88878793          	addi	a5,a5,-1912 # 7888 <sha512_compress+0x7d2>
    a4fc:	30079073          	csrw	mstatus,a5
    a500:	8082                	ret

0000a502 <xPortSetInterruptMask>:
    a502:	6521                	lui	a0,0x8
    a504:	80050513          	addi	a0,a0,-2048 # 7800 <sha512_compress+0x74a>
    a508:	30051573          	csrrw	a0,mstatus,a0
    a50c:	8082                	ret

0000a50e <vPortClearInterruptMask>:
    a50e:	30051073          	csrw	mstatus,a0
    a512:	8082                	ret

0000a514 <vListInitialise>:
    a514:	00850793          	addi	a5,a0,8
    a518:	577d                	li	a4,-1
    a51a:	c15c                	sw	a5,4(a0)
    a51c:	c518                	sw	a4,8(a0)
    a51e:	c55c                	sw	a5,12(a0)
    a520:	c91c                	sw	a5,16(a0)
    a522:	00052023          	sw	zero,0(a0)
    a526:	8082                	ret

0000a528 <vListInitialiseItem>:
    a528:	00052823          	sw	zero,16(a0)
    a52c:	8082                	ret

0000a52e <vListInsert>:
    a52e:	4198                	lw	a4,0(a1)
    a530:	56fd                	li	a3,-1
    a532:	00850793          	addi	a5,a0,8
    a536:	00d71e63          	bne	a4,a3,a552 <vListInsert+0x24>
    a53a:	491c                	lw	a5,16(a0)
    a53c:	43d8                	lw	a4,4(a5)
    a53e:	c1d8                	sw	a4,4(a1)
    a540:	c70c                	sw	a1,8(a4)
    a542:	c59c                	sw	a5,8(a1)
    a544:	c3cc                	sw	a1,4(a5)
    a546:	411c                	lw	a5,0(a0)
    a548:	c988                	sw	a0,16(a1)
    a54a:	0785                	addi	a5,a5,1
    a54c:	c11c                	sw	a5,0(a0)
    a54e:	8082                	ret
    a550:	87b6                	mv	a5,a3
    a552:	43d4                	lw	a3,4(a5)
    a554:	4290                	lw	a2,0(a3)
    a556:	fec77de3          	bgeu	a4,a2,a550 <vListInsert+0x22>
    a55a:	b7cd                	j	a53c <vListInsert+0xe>

0000a55c <uxListRemove>:
    a55c:	4154                	lw	a3,4(a0)
    a55e:	4518                	lw	a4,8(a0)
    a560:	491c                	lw	a5,16(a0)
    a562:	c698                	sw	a4,8(a3)
    a564:	c354                	sw	a3,4(a4)
    a566:	43d4                	lw	a3,4(a5)
    a568:	00a69363          	bne	a3,a0,a56e <uxListRemove+0x12>
    a56c:	c3d8                	sw	a4,4(a5)
    a56e:	4398                	lw	a4,0(a5)
    a570:	00052823          	sw	zero,16(a0)
    a574:	177d                	addi	a4,a4,-1
    a576:	c398                	sw	a4,0(a5)
    a578:	4388                	lw	a0,0(a5)
    a57a:	8082                	ret

0000a57c <prvIsQueueEmpty>:
    a57c:	f9bf52ef          	jal	t0,516 <__riscv_save_0>
    a580:	1141                	addi	sp,sp,-16
    a582:	c62a                	sw	a0,12(sp)
    a584:	f27ff0ef          	jal	ra,a4aa <vPortEnterCritical>
    a588:	4532                	lw	a0,12(sp)
    a58a:	5d00                	lw	s0,56(a0)
    a58c:	f35ff0ef          	jal	ra,a4c0 <vPortExitCritical>
    a590:	00143513          	seqz	a0,s0
    a594:	0141                	addi	sp,sp,16
    a596:	fa5f506f          	j	53a <__riscv_restore_0>

0000a59a <prvCopyDataToQueue>:
    a59a:	f7df52ef          	jal	t0,516 <__riscv_save_0>
    a59e:	8932                	mv	s2,a2
    a5a0:	4130                	lw	a2,64(a0)
    a5a2:	5d04                	lw	s1,56(a0)
    a5a4:	842a                	mv	s0,a0
    a5a6:	ee09                	bnez	a2,a5c0 <prvCopyDataToQueue+0x26>
    a5a8:	411c                	lw	a5,0(a0)
    a5aa:	4501                	li	a0,0
    a5ac:	e791                	bnez	a5,a5b8 <prvCopyDataToQueue+0x1e>
    a5ae:	4408                	lw	a0,8(s0)
    a5b0:	1b4010ef          	jal	ra,b764 <xTaskPriorityDisinherit>
    a5b4:	00042423          	sw	zero,8(s0)
    a5b8:	0485                	addi	s1,s1,1
    a5ba:	dc04                	sw	s1,56(s0)
    a5bc:	f7ff506f          	j	53a <__riscv_restore_0>
    a5c0:	02091063          	bnez	s2,a5e0 <prvCopyDataToQueue+0x46>
    a5c4:	4148                	lw	a0,4(a0)
    a5c6:	277010ef          	jal	ra,c03c <memcpy>
    a5ca:	405c                	lw	a5,4(s0)
    a5cc:	4038                	lw	a4,64(s0)
    a5ce:	4501                	li	a0,0
    a5d0:	97ba                	add	a5,a5,a4
    a5d2:	4418                	lw	a4,8(s0)
    a5d4:	c05c                	sw	a5,4(s0)
    a5d6:	fee7e1e3          	bltu	a5,a4,a5b8 <prvCopyDataToQueue+0x1e>
    a5da:	401c                	lw	a5,0(s0)
    a5dc:	c05c                	sw	a5,4(s0)
    a5de:	bfe9                	j	a5b8 <prvCopyDataToQueue+0x1e>
    a5e0:	4548                	lw	a0,12(a0)
    a5e2:	25b010ef          	jal	ra,c03c <memcpy>
    a5e6:	403c                	lw	a5,64(s0)
    a5e8:	4458                	lw	a4,12(s0)
    a5ea:	4014                	lw	a3,0(s0)
    a5ec:	40f007b3          	neg	a5,a5
    a5f0:	973e                	add	a4,a4,a5
    a5f2:	c458                	sw	a4,12(s0)
    a5f4:	00d77563          	bgeu	a4,a3,a5fe <prvCopyDataToQueue+0x64>
    a5f8:	4418                	lw	a4,8(s0)
    a5fa:	97ba                	add	a5,a5,a4
    a5fc:	c45c                	sw	a5,12(s0)
    a5fe:	4789                	li	a5,2
    a600:	4501                	li	a0,0
    a602:	faf91be3          	bne	s2,a5,a5b8 <prvCopyDataToQueue+0x1e>
    a606:	d8cd                	beqz	s1,a5b8 <prvCopyDataToQueue+0x1e>
    a608:	14fd                	addi	s1,s1,-1
    a60a:	b77d                	j	a5b8 <prvCopyDataToQueue+0x1e>

0000a60c <prvCopyDataFromQueue>:
    a60c:	4130                	lw	a2,64(a0)
    a60e:	c215                	beqz	a2,a632 <prvCopyDataFromQueue+0x26>
    a610:	f07f52ef          	jal	t0,516 <__riscv_save_0>
    a614:	4558                	lw	a4,12(a0)
    a616:	4514                	lw	a3,8(a0)
    a618:	87aa                	mv	a5,a0
    a61a:	9732                	add	a4,a4,a2
    a61c:	c558                	sw	a4,12(a0)
    a61e:	00d76463          	bltu	a4,a3,a626 <prvCopyDataFromQueue+0x1a>
    a622:	4118                	lw	a4,0(a0)
    a624:	c558                	sw	a4,12(a0)
    a626:	852e                	mv	a0,a1
    a628:	47cc                	lw	a1,12(a5)
    a62a:	213010ef          	jal	ra,c03c <memcpy>
    a62e:	f0df506f          	j	53a <__riscv_restore_0>
    a632:	8082                	ret

0000a634 <prvUnlockQueue>:
    a634:	ee3f52ef          	jal	t0,516 <__riscv_save_0>
    a638:	842a                	mv	s0,a0
    a63a:	e71ff0ef          	jal	ra,a4aa <vPortEnterCritical>
    a63e:	04544483          	lbu	s1,69(s0)
    a642:	02440913          	addi	s2,s0,36
    a646:	04e2                	slli	s1,s1,0x18
    a648:	84e1                	srai	s1,s1,0x18
    a64a:	02904863          	bgtz	s1,a67a <prvUnlockQueue+0x46>
    a64e:	57fd                	li	a5,-1
    a650:	04f402a3          	sb	a5,69(s0)
    a654:	e6dff0ef          	jal	ra,a4c0 <vPortExitCritical>
    a658:	e53ff0ef          	jal	ra,a4aa <vPortEnterCritical>
    a65c:	04444483          	lbu	s1,68(s0)
    a660:	01040913          	addi	s2,s0,16
    a664:	04e2                	slli	s1,s1,0x18
    a666:	84e1                	srai	s1,s1,0x18
    a668:	02904563          	bgtz	s1,a692 <prvUnlockQueue+0x5e>
    a66c:	57fd                	li	a5,-1
    a66e:	04f40223          	sb	a5,68(s0)
    a672:	e4fff0ef          	jal	ra,a4c0 <vPortExitCritical>
    a676:	ec5f506f          	j	53a <__riscv_restore_0>
    a67a:	505c                	lw	a5,36(s0)
    a67c:	dbe9                	beqz	a5,a64e <prvUnlockQueue+0x1a>
    a67e:	854a                	mv	a0,s2
    a680:	6f1000ef          	jal	ra,b570 <xTaskRemoveFromEventList>
    a684:	c119                	beqz	a0,a68a <prvUnlockQueue+0x56>
    a686:	0b6010ef          	jal	ra,b73c <vTaskMissedYield>
    a68a:	14fd                	addi	s1,s1,-1
    a68c:	04e2                	slli	s1,s1,0x18
    a68e:	84e1                	srai	s1,s1,0x18
    a690:	bf6d                	j	a64a <prvUnlockQueue+0x16>
    a692:	481c                	lw	a5,16(s0)
    a694:	dfe1                	beqz	a5,a66c <prvUnlockQueue+0x38>
    a696:	854a                	mv	a0,s2
    a698:	6d9000ef          	jal	ra,b570 <xTaskRemoveFromEventList>
    a69c:	c119                	beqz	a0,a6a2 <prvUnlockQueue+0x6e>
    a69e:	09e010ef          	jal	ra,b73c <vTaskMissedYield>
    a6a2:	14fd                	addi	s1,s1,-1
    a6a4:	04e2                	slli	s1,s1,0x18
    a6a6:	84e1                	srai	s1,s1,0x18
    a6a8:	b7c1                	j	a668 <prvUnlockQueue+0x34>

0000a6aa <xQueueGenericReset>:
    a6aa:	e6df52ef          	jal	t0,516 <__riscv_save_0>
    a6ae:	1141                	addi	sp,sp,-16
    a6b0:	e11d                	bnez	a0,a6d6 <xQueueGenericReset+0x2c>
    a6b2:	67a1                	lui	a5,0x8
    a6b4:	80078793          	addi	a5,a5,-2048 # 7800 <sha512_compress+0x74a>
    a6b8:	30079073          	csrw	mstatus,a5
    a6bc:	00015637          	lui	a2,0x15
    a6c0:	00015537          	lui	a0,0x15
    a6c4:	dd060613          	addi	a2,a2,-560 # 14dd0 <app_ver+0xb0>
    a6c8:	11000593          	li	a1,272
    a6cc:	d8450513          	addi	a0,a0,-636 # 14d84 <app_ver+0x64>
    a6d0:	3a9010ef          	jal	ra,c278 <iprintf>
    a6d4:	a001                	j	a6d4 <xQueueGenericReset+0x2a>
    a6d6:	5d5c                	lw	a5,60(a0)
    a6d8:	c62e                	sw	a1,12(sp)
    a6da:	842a                	mv	s0,a0
    a6dc:	c7bd                	beqz	a5,a74a <xQueueGenericReset+0xa0>
    a6de:	4138                	lw	a4,64(a0)
    a6e0:	02e7b7b3          	mulhu	a5,a5,a4
    a6e4:	e3bd                	bnez	a5,a74a <xQueueGenericReset+0xa0>
    a6e6:	dc5ff0ef          	jal	ra,a4aa <vPortEnterCritical>
    a6ea:	4030                	lw	a2,64(s0)
    a6ec:	5c58                	lw	a4,60(s0)
    a6ee:	4014                	lw	a3,0(s0)
    a6f0:	02042c23          	sw	zero,56(s0)
    a6f4:	02e607b3          	mul	a5,a2,a4
    a6f8:	45b2                	lw	a1,12(sp)
    a6fa:	c054                	sw	a3,4(s0)
    a6fc:	00f68733          	add	a4,a3,a5
    a700:	8f91                	sub	a5,a5,a2
    a702:	97b6                	add	a5,a5,a3
    a704:	c45c                	sw	a5,12(s0)
    a706:	57fd                	li	a5,-1
    a708:	04f40223          	sb	a5,68(s0)
    a70c:	c418                	sw	a4,8(s0)
    a70e:	04f402a3          	sb	a5,69(s0)
    a712:	e19d                	bnez	a1,a738 <xQueueGenericReset+0x8e>
    a714:	481c                	lw	a5,16(s0)
    a716:	cb99                	beqz	a5,a72c <xQueueGenericReset+0x82>
    a718:	01040513          	addi	a0,s0,16
    a71c:	655000ef          	jal	ra,b570 <xTaskRemoveFromEventList>
    a720:	c511                	beqz	a0,a72c <xQueueGenericReset+0x82>
    a722:	e000e7b7          	lui	a5,0xe000e
    a726:	6711                	lui	a4,0x4
    a728:	20e7a023          	sw	a4,512(a5) # e000e200 <__freertos_irq_stack_top+0xc0006200>
    a72c:	d95ff0ef          	jal	ra,a4c0 <vPortExitCritical>
    a730:	4505                	li	a0,1
    a732:	0141                	addi	sp,sp,16
    a734:	e07f506f          	j	53a <__riscv_restore_0>
    a738:	01040513          	addi	a0,s0,16
    a73c:	dd9ff0ef          	jal	ra,a514 <vListInitialise>
    a740:	02440513          	addi	a0,s0,36
    a744:	dd1ff0ef          	jal	ra,a514 <vListInitialise>
    a748:	b7d5                	j	a72c <xQueueGenericReset+0x82>
    a74a:	67a1                	lui	a5,0x8
    a74c:	80078793          	addi	a5,a5,-2048 # 7800 <sha512_compress+0x74a>
    a750:	30079073          	csrw	mstatus,a5
    a754:	00015637          	lui	a2,0x15
    a758:	00015537          	lui	a0,0x15
    a75c:	dd060613          	addi	a2,a2,-560 # 14dd0 <app_ver+0xb0>
    a760:	14500593          	li	a1,325
    a764:	d8450513          	addi	a0,a0,-636 # 14d84 <app_ver+0x64>
    a768:	311010ef          	jal	ra,c278 <iprintf>
    a76c:	a001                	j	a76c <xQueueGenericReset+0xc2>

0000a76e <xQueueGenericCreate>:
    a76e:	da9f52ef          	jal	t0,516 <__riscv_save_0>
    a772:	1141                	addi	sp,sp,-16
    a774:	c131                	beqz	a0,a7b8 <xQueueGenericCreate+0x4a>
    a776:	02a5b7b3          	mulhu	a5,a1,a0
    a77a:	84aa                	mv	s1,a0
    a77c:	ef95                	bnez	a5,a7b8 <xQueueGenericCreate+0x4a>
    a77e:	02b50533          	mul	a0,a0,a1
    a782:	fb700793          	li	a5,-73
    a786:	02a7e963          	bltu	a5,a0,a7b8 <xQueueGenericCreate+0x4a>
    a78a:	04850513          	addi	a0,a0,72
    a78e:	c62e                	sw	a1,12(sp)
    a790:	9dfff0ef          	jal	ra,a16e <pvPortMalloc>
    a794:	842a                	mv	s0,a0
    a796:	cd09                	beqz	a0,a7b0 <xQueueGenericCreate+0x42>
    a798:	45b2                	lw	a1,12(sp)
    a79a:	87aa                	mv	a5,a0
    a79c:	c199                	beqz	a1,a7a2 <xQueueGenericCreate+0x34>
    a79e:	04850793          	addi	a5,a0,72
    a7a2:	c02c                	sw	a1,64(s0)
    a7a4:	c01c                	sw	a5,0(s0)
    a7a6:	dc44                	sw	s1,60(s0)
    a7a8:	4585                	li	a1,1
    a7aa:	8522                	mv	a0,s0
    a7ac:	effff0ef          	jal	ra,a6aa <xQueueGenericReset>
    a7b0:	8522                	mv	a0,s0
    a7b2:	0141                	addi	sp,sp,16
    a7b4:	d87f506f          	j	53a <__riscv_restore_0>
    a7b8:	67a1                	lui	a5,0x8
    a7ba:	80078793          	addi	a5,a5,-2048 # 7800 <sha512_compress+0x74a>
    a7be:	30079073          	csrw	mstatus,a5
    a7c2:	00015637          	lui	a2,0x15
    a7c6:	00015537          	lui	a0,0x15
    a7ca:	dd060613          	addi	a2,a2,-560 # 14dd0 <app_ver+0xb0>
    a7ce:	1c600593          	li	a1,454
    a7d2:	d8450513          	addi	a0,a0,-636 # 14d84 <app_ver+0x64>
    a7d6:	2a3010ef          	jal	ra,c278 <iprintf>
    a7da:	a001                	j	a7da <xQueueGenericCreate+0x6c>

0000a7dc <xQueueGenericSend>:
    a7dc:	d13f52ef          	jal	t0,4ee <__riscv_save_10>
    a7e0:	1101                	addi	sp,sp,-32
    a7e2:	c632                	sw	a2,12(sp)
    a7e4:	e11d                	bnez	a0,a80a <xQueueGenericSend+0x2e>
    a7e6:	67a1                	lui	a5,0x8
    a7e8:	80078793          	addi	a5,a5,-2048 # 7800 <sha512_compress+0x74a>
    a7ec:	30079073          	csrw	mstatus,a5
    a7f0:	00015637          	lui	a2,0x15
    a7f4:	00015537          	lui	a0,0x15
    a7f8:	dd060613          	addi	a2,a2,-560 # 14dd0 <app_ver+0xb0>
    a7fc:	32e00593          	li	a1,814
    a800:	d8450513          	addi	a0,a0,-636 # 14d84 <app_ver+0x64>
    a804:	275010ef          	jal	ra,c278 <iprintf>
    a808:	a001                	j	a808 <xQueueGenericSend+0x2c>
    a80a:	842a                	mv	s0,a0
    a80c:	892e                	mv	s2,a1
    a80e:	84b6                	mv	s1,a3
    a810:	e58d                	bnez	a1,a83a <xQueueGenericSend+0x5e>
    a812:	413c                	lw	a5,64(a0)
    a814:	c39d                	beqz	a5,a83a <xQueueGenericSend+0x5e>
    a816:	67a1                	lui	a5,0x8
    a818:	80078793          	addi	a5,a5,-2048 # 7800 <sha512_compress+0x74a>
    a81c:	30079073          	csrw	mstatus,a5
    a820:	00015637          	lui	a2,0x15
    a824:	00015537          	lui	a0,0x15
    a828:	dd060613          	addi	a2,a2,-560 # 14dd0 <app_ver+0xb0>
    a82c:	32f00593          	li	a1,815
    a830:	d8450513          	addi	a0,a0,-636 # 14d84 <app_ver+0x64>
    a834:	245010ef          	jal	ra,c278 <iprintf>
    a838:	a001                	j	a838 <xQueueGenericSend+0x5c>
    a83a:	4789                	li	a5,2
    a83c:	02f49863          	bne	s1,a5,a86c <xQueueGenericSend+0x90>
    a840:	5c58                	lw	a4,60(s0)
    a842:	4785                	li	a5,1
    a844:	02f70463          	beq	a4,a5,a86c <xQueueGenericSend+0x90>
    a848:	67a1                	lui	a5,0x8
    a84a:	80078793          	addi	a5,a5,-2048 # 7800 <sha512_compress+0x74a>
    a84e:	30079073          	csrw	mstatus,a5
    a852:	00015637          	lui	a2,0x15
    a856:	00015537          	lui	a0,0x15
    a85a:	dd060613          	addi	a2,a2,-560 # 14dd0 <app_ver+0xb0>
    a85e:	33000593          	li	a1,816
    a862:	d8450513          	addi	a0,a0,-636 # 14d84 <app_ver+0x64>
    a866:	213010ef          	jal	ra,c278 <iprintf>
    a86a:	a001                	j	a86a <xQueueGenericSend+0x8e>
    a86c:	6dd000ef          	jal	ra,b748 <xTaskGetSchedulerState>
    a870:	e515                	bnez	a0,a89c <xQueueGenericSend+0xc0>
    a872:	47b2                	lw	a5,12(sp)
    a874:	4c01                	li	s8,0
    a876:	c785                	beqz	a5,a89e <xQueueGenericSend+0xc2>
    a878:	67a1                	lui	a5,0x8
    a87a:	80078793          	addi	a5,a5,-2048 # 7800 <sha512_compress+0x74a>
    a87e:	30079073          	csrw	mstatus,a5
    a882:	00015637          	lui	a2,0x15
    a886:	00015537          	lui	a0,0x15
    a88a:	dd060613          	addi	a2,a2,-560 # 14dd0 <app_ver+0xb0>
    a88e:	33300593          	li	a1,819
    a892:	d8450513          	addi	a0,a0,-636 # 14d84 <app_ver+0x64>
    a896:	1e3010ef          	jal	ra,c278 <iprintf>
    a89a:	a001                	j	a89a <xQueueGenericSend+0xbe>
    a89c:	4c01                	li	s8,0
    a89e:	4b09                	li	s6,2
    a8a0:	59fd                	li	s3,-1
    a8a2:	01040b93          	addi	s7,s0,16
    a8a6:	e000ea37          	lui	s4,0xe000e
    a8aa:	6a91                	lui	s5,0x4
    a8ac:	a8a5                	j	a924 <xQueueGenericSend+0x148>
    a8ae:	47b2                	lw	a5,12(sp)
    a8b0:	e789                	bnez	a5,a8ba <xQueueGenericSend+0xde>
    a8b2:	c0fff0ef          	jal	ra,a4c0 <vPortExitCritical>
    a8b6:	4501                	li	a0,0
    a8b8:	a055                	j	a95c <xQueueGenericSend+0x180>
    a8ba:	000c1563          	bnez	s8,a8c4 <xQueueGenericSend+0xe8>
    a8be:	0828                	addi	a0,sp,24
    a8c0:	59d000ef          	jal	ra,b65c <vTaskInternalSetTimeOutState>
    a8c4:	bfdff0ef          	jal	ra,a4c0 <vPortExitCritical>
    a8c8:	7bc000ef          	jal	ra,b084 <vTaskSuspendAll>
    a8cc:	bdfff0ef          	jal	ra,a4aa <vPortEnterCritical>
    a8d0:	04444783          	lbu	a5,68(s0)
    a8d4:	07e2                	slli	a5,a5,0x18
    a8d6:	87e1                	srai	a5,a5,0x18
    a8d8:	01379463          	bne	a5,s3,a8e0 <xQueueGenericSend+0x104>
    a8dc:	04040223          	sb	zero,68(s0)
    a8e0:	04544783          	lbu	a5,69(s0)
    a8e4:	07e2                	slli	a5,a5,0x18
    a8e6:	87e1                	srai	a5,a5,0x18
    a8e8:	01379463          	bne	a5,s3,a8f0 <xQueueGenericSend+0x114>
    a8ec:	040402a3          	sb	zero,69(s0)
    a8f0:	bd1ff0ef          	jal	ra,a4c0 <vPortExitCritical>
    a8f4:	006c                	addi	a1,sp,12
    a8f6:	0828                	addi	a0,sp,24
    a8f8:	57b000ef          	jal	ra,b672 <xTaskCheckForTimeOut>
    a8fc:	ed35                	bnez	a0,a978 <xQueueGenericSend+0x19c>
    a8fe:	badff0ef          	jal	ra,a4aa <vPortEnterCritical>
    a902:	5c18                	lw	a4,56(s0)
    a904:	5c5c                	lw	a5,60(s0)
    a906:	04f71e63          	bne	a4,a5,a962 <xQueueGenericSend+0x186>
    a90a:	bb7ff0ef          	jal	ra,a4c0 <vPortExitCritical>
    a90e:	45b2                	lw	a1,12(sp)
    a910:	855e                	mv	a0,s7
    a912:	3a1000ef          	jal	ra,b4b2 <vTaskPlaceOnEventList>
    a916:	8522                	mv	a0,s0
    a918:	d1dff0ef          	jal	ra,a634 <prvUnlockQueue>
    a91c:	12f000ef          	jal	ra,b24a <xTaskResumeAll>
    a920:	c929                	beqz	a0,a972 <xQueueGenericSend+0x196>
    a922:	4c05                	li	s8,1
    a924:	b87ff0ef          	jal	ra,a4aa <vPortEnterCritical>
    a928:	5c18                	lw	a4,56(s0)
    a92a:	5c5c                	lw	a5,60(s0)
    a92c:	00f76463          	bltu	a4,a5,a934 <xQueueGenericSend+0x158>
    a930:	f7649fe3          	bne	s1,s6,a8ae <xQueueGenericSend+0xd2>
    a934:	8626                	mv	a2,s1
    a936:	85ca                	mv	a1,s2
    a938:	8522                	mv	a0,s0
    a93a:	c61ff0ef          	jal	ra,a59a <prvCopyDataToQueue>
    a93e:	505c                	lw	a5,36(s0)
    a940:	c789                	beqz	a5,a94a <xQueueGenericSend+0x16e>
    a942:	02440513          	addi	a0,s0,36
    a946:	42b000ef          	jal	ra,b570 <xTaskRemoveFromEventList>
    a94a:	c511                	beqz	a0,a956 <xQueueGenericSend+0x17a>
    a94c:	e000e7b7          	lui	a5,0xe000e
    a950:	6711                	lui	a4,0x4
    a952:	20e7a023          	sw	a4,512(a5) # e000e200 <__freertos_irq_stack_top+0xc0006200>
    a956:	b6bff0ef          	jal	ra,a4c0 <vPortExitCritical>
    a95a:	4505                	li	a0,1
    a95c:	6105                	addi	sp,sp,32
    a95e:	bc9f506f          	j	526 <__riscv_restore_10>
    a962:	b5fff0ef          	jal	ra,a4c0 <vPortExitCritical>
    a966:	8522                	mv	a0,s0
    a968:	ccdff0ef          	jal	ra,a634 <prvUnlockQueue>
    a96c:	0df000ef          	jal	ra,b24a <xTaskResumeAll>
    a970:	bf4d                	j	a922 <xQueueGenericSend+0x146>
    a972:	215a2023          	sw	s5,512(s4) # e000e200 <__freertos_irq_stack_top+0xc0006200>
    a976:	b775                	j	a922 <xQueueGenericSend+0x146>
    a978:	8522                	mv	a0,s0
    a97a:	cbbff0ef          	jal	ra,a634 <prvUnlockQueue>
    a97e:	0cd000ef          	jal	ra,b24a <xTaskResumeAll>
    a982:	bf15                	j	a8b6 <xQueueGenericSend+0xda>

0000a984 <xQueueGenericSendFromISR>:
    a984:	b79f52ef          	jal	t0,4fc <__riscv_save_4>
    a988:	1141                	addi	sp,sp,-16
    a98a:	e11d                	bnez	a0,a9b0 <xQueueGenericSendFromISR+0x2c>
    a98c:	67a1                	lui	a5,0x8
    a98e:	80078793          	addi	a5,a5,-2048 # 7800 <sha512_compress+0x74a>
    a992:	30079073          	csrw	mstatus,a5
    a996:	00015637          	lui	a2,0x15
    a99a:	00015537          	lui	a0,0x15
    a99e:	dd060613          	addi	a2,a2,-560 # 14dd0 <app_ver+0xb0>
    a9a2:	40200593          	li	a1,1026
    a9a6:	d8450513          	addi	a0,a0,-636 # 14d84 <app_ver+0x64>
    a9aa:	0cf010ef          	jal	ra,c278 <iprintf>
    a9ae:	a001                	j	a9ae <xQueueGenericSendFromISR+0x2a>
    a9b0:	842a                	mv	s0,a0
    a9b2:	89b2                	mv	s3,a2
    a9b4:	e58d                	bnez	a1,a9de <xQueueGenericSendFromISR+0x5a>
    a9b6:	413c                	lw	a5,64(a0)
    a9b8:	c39d                	beqz	a5,a9de <xQueueGenericSendFromISR+0x5a>
    a9ba:	67a1                	lui	a5,0x8
    a9bc:	80078793          	addi	a5,a5,-2048 # 7800 <sha512_compress+0x74a>
    a9c0:	30079073          	csrw	mstatus,a5
    a9c4:	00015637          	lui	a2,0x15
    a9c8:	00015537          	lui	a0,0x15
    a9cc:	dd060613          	addi	a2,a2,-560 # 14dd0 <app_ver+0xb0>
    a9d0:	40300593          	li	a1,1027
    a9d4:	d8450513          	addi	a0,a0,-636 # 14d84 <app_ver+0x64>
    a9d8:	0a1010ef          	jal	ra,c278 <iprintf>
    a9dc:	a001                	j	a9dc <xQueueGenericSendFromISR+0x58>
    a9de:	4789                	li	a5,2
    a9e0:	02f69863          	bne	a3,a5,aa10 <xQueueGenericSendFromISR+0x8c>
    a9e4:	5c58                	lw	a4,60(s0)
    a9e6:	4785                	li	a5,1
    a9e8:	02f70463          	beq	a4,a5,aa10 <xQueueGenericSendFromISR+0x8c>
    a9ec:	67a1                	lui	a5,0x8
    a9ee:	80078793          	addi	a5,a5,-2048 # 7800 <sha512_compress+0x74a>
    a9f2:	30079073          	csrw	mstatus,a5
    a9f6:	00015637          	lui	a2,0x15
    a9fa:	00015537          	lui	a0,0x15
    a9fe:	dd060613          	addi	a2,a2,-560 # 14dd0 <app_ver+0xb0>
    aa02:	40400593          	li	a1,1028
    aa06:	d8450513          	addi	a0,a0,-636 # 14d84 <app_ver+0x64>
    aa0a:	06f010ef          	jal	ra,c278 <iprintf>
    aa0e:	a001                	j	aa0e <xQueueGenericSendFromISR+0x8a>
    aa10:	c636                	sw	a3,12(sp)
    aa12:	c42e                	sw	a1,8(sp)
    aa14:	aefff0ef          	jal	ra,a502 <xPortSetInterruptMask>
    aa18:	5c18                	lw	a4,56(s0)
    aa1a:	5c5c                	lw	a5,60(s0)
    aa1c:	8a2a                	mv	s4,a0
    aa1e:	45a2                	lw	a1,8(sp)
    aa20:	46b2                	lw	a3,12(sp)
    aa22:	00f76663          	bltu	a4,a5,aa2e <xQueueGenericSendFromISR+0xaa>
    aa26:	4789                	li	a5,2
    aa28:	4481                	li	s1,0
    aa2a:	02f69363          	bne	a3,a5,aa50 <xQueueGenericSendFromISR+0xcc>
    aa2e:	04544483          	lbu	s1,69(s0)
    aa32:	5c1c                	lw	a5,56(s0)
    aa34:	8636                	mv	a2,a3
    aa36:	8522                	mv	a0,s0
    aa38:	01849913          	slli	s2,s1,0x18
    aa3c:	b5fff0ef          	jal	ra,a59a <prvCopyDataToQueue>
    aa40:	41895913          	srai	s2,s2,0x18
    aa44:	57fd                	li	a5,-1
    aa46:	02f91763          	bne	s2,a5,aa74 <xQueueGenericSendFromISR+0xf0>
    aa4a:	505c                	lw	a5,36(s0)
    aa4c:	eb89                	bnez	a5,aa5e <xQueueGenericSendFromISR+0xda>
    aa4e:	4485                	li	s1,1
    aa50:	8552                	mv	a0,s4
    aa52:	abdff0ef          	jal	ra,a50e <vPortClearInterruptMask>
    aa56:	8526                	mv	a0,s1
    aa58:	0141                	addi	sp,sp,16
    aa5a:	ad7f506f          	j	530 <__riscv_restore_4>
    aa5e:	02440513          	addi	a0,s0,36
    aa62:	30f000ef          	jal	ra,b570 <xTaskRemoveFromEventList>
    aa66:	d565                	beqz	a0,aa4e <xQueueGenericSendFromISR+0xca>
    aa68:	fe0983e3          	beqz	s3,aa4e <xQueueGenericSendFromISR+0xca>
    aa6c:	4785                	li	a5,1
    aa6e:	00f9a023          	sw	a5,0(s3)
    aa72:	bff1                	j	aa4e <xQueueGenericSendFromISR+0xca>
    aa74:	07f00793          	li	a5,127
    aa78:	02f91463          	bne	s2,a5,aaa0 <xQueueGenericSendFromISR+0x11c>
    aa7c:	67a1                	lui	a5,0x8
    aa7e:	80078793          	addi	a5,a5,-2048 # 7800 <sha512_compress+0x74a>
    aa82:	30079073          	csrw	mstatus,a5
    aa86:	00015637          	lui	a2,0x15
    aa8a:	00015537          	lui	a0,0x15
    aa8e:	dd060613          	addi	a2,a2,-560 # 14dd0 <app_ver+0xb0>
    aa92:	48d00593          	li	a1,1165
    aa96:	d8450513          	addi	a0,a0,-636 # 14d84 <app_ver+0x64>
    aa9a:	7de010ef          	jal	ra,c278 <iprintf>
    aa9e:	a001                	j	aa9e <xQueueGenericSendFromISR+0x11a>
    aaa0:	0485                	addi	s1,s1,1
    aaa2:	04e2                	slli	s1,s1,0x18
    aaa4:	84e1                	srai	s1,s1,0x18
    aaa6:	049402a3          	sb	s1,69(s0)
    aaaa:	b755                	j	aa4e <xQueueGenericSendFromISR+0xca>

0000aaac <xQueueReceive>:
    aaac:	a43f52ef          	jal	t0,4ee <__riscv_save_10>
    aab0:	1101                	addi	sp,sp,-32
    aab2:	c632                	sw	a2,12(sp)
    aab4:	e11d                	bnez	a0,aada <xQueueReceive+0x2e>
    aab6:	67a1                	lui	a5,0x8
    aab8:	80078793          	addi	a5,a5,-2048 # 7800 <sha512_compress+0x74a>
    aabc:	30079073          	csrw	mstatus,a5
    aac0:	00015637          	lui	a2,0x15
    aac4:	00015537          	lui	a0,0x15
    aac8:	dd060613          	addi	a2,a2,-560 # 14dd0 <app_ver+0xb0>
    aacc:	55100593          	li	a1,1361
    aad0:	d8450513          	addi	a0,a0,-636 # 14d84 <app_ver+0x64>
    aad4:	7a4010ef          	jal	ra,c278 <iprintf>
    aad8:	a001                	j	aad8 <xQueueReceive+0x2c>
    aada:	842a                	mv	s0,a0
    aadc:	89ae                	mv	s3,a1
    aade:	e58d                	bnez	a1,ab08 <xQueueReceive+0x5c>
    aae0:	413c                	lw	a5,64(a0)
    aae2:	c39d                	beqz	a5,ab08 <xQueueReceive+0x5c>
    aae4:	67a1                	lui	a5,0x8
    aae6:	80078793          	addi	a5,a5,-2048 # 7800 <sha512_compress+0x74a>
    aaea:	30079073          	csrw	mstatus,a5
    aaee:	00015637          	lui	a2,0x15
    aaf2:	00015537          	lui	a0,0x15
    aaf6:	dd060613          	addi	a2,a2,-560 # 14dd0 <app_ver+0xb0>
    aafa:	55500593          	li	a1,1365
    aafe:	d8450513          	addi	a0,a0,-636 # 14d84 <app_ver+0x64>
    ab02:	776010ef          	jal	ra,c278 <iprintf>
    ab06:	a001                	j	ab06 <xQueueReceive+0x5a>
    ab08:	441000ef          	jal	ra,b748 <xTaskGetSchedulerState>
    ab0c:	e515                	bnez	a0,ab38 <xQueueReceive+0x8c>
    ab0e:	47b2                	lw	a5,12(sp)
    ab10:	4901                	li	s2,0
    ab12:	c785                	beqz	a5,ab3a <xQueueReceive+0x8e>
    ab14:	67a1                	lui	a5,0x8
    ab16:	80078793          	addi	a5,a5,-2048 # 7800 <sha512_compress+0x74a>
    ab1a:	30079073          	csrw	mstatus,a5
    ab1e:	00015637          	lui	a2,0x15
    ab22:	00015537          	lui	a0,0x15
    ab26:	dd060613          	addi	a2,a2,-560 # 14dd0 <app_ver+0xb0>
    ab2a:	55a00593          	li	a1,1370
    ab2e:	d8450513          	addi	a0,a0,-636 # 14d84 <app_ver+0x64>
    ab32:	746010ef          	jal	ra,c278 <iprintf>
    ab36:	a001                	j	ab36 <xQueueReceive+0x8a>
    ab38:	4901                	li	s2,0
    ab3a:	5a7d                	li	s4,-1
    ab3c:	02440a93          	addi	s5,s0,36
    ab40:	e000eb37          	lui	s6,0xe000e
    ab44:	6b91                	lui	s7,0x4
    ab46:	a885                	j	abb6 <xQueueReceive+0x10a>
    ab48:	47b2                	lw	a5,12(sp)
    ab4a:	e789                	bnez	a5,ab54 <xQueueReceive+0xa8>
    ab4c:	975ff0ef          	jal	ra,a4c0 <vPortExitCritical>
    ab50:	4501                	li	a0,0
    ab52:	a859                	j	abe8 <xQueueReceive+0x13c>
    ab54:	00091563          	bnez	s2,ab5e <xQueueReceive+0xb2>
    ab58:	0828                	addi	a0,sp,24
    ab5a:	303000ef          	jal	ra,b65c <vTaskInternalSetTimeOutState>
    ab5e:	963ff0ef          	jal	ra,a4c0 <vPortExitCritical>
    ab62:	230d                	jal	b084 <vTaskSuspendAll>
    ab64:	947ff0ef          	jal	ra,a4aa <vPortEnterCritical>
    ab68:	04444783          	lbu	a5,68(s0)
    ab6c:	07e2                	slli	a5,a5,0x18
    ab6e:	87e1                	srai	a5,a5,0x18
    ab70:	01479463          	bne	a5,s4,ab78 <xQueueReceive+0xcc>
    ab74:	04040223          	sb	zero,68(s0)
    ab78:	04544783          	lbu	a5,69(s0)
    ab7c:	07e2                	slli	a5,a5,0x18
    ab7e:	87e1                	srai	a5,a5,0x18
    ab80:	01479463          	bne	a5,s4,ab88 <xQueueReceive+0xdc>
    ab84:	040402a3          	sb	zero,69(s0)
    ab88:	939ff0ef          	jal	ra,a4c0 <vPortExitCritical>
    ab8c:	006c                	addi	a1,sp,12
    ab8e:	0828                	addi	a0,sp,24
    ab90:	2e3000ef          	jal	ra,b672 <xTaskCheckForTimeOut>
    ab94:	e135                	bnez	a0,abf8 <xQueueReceive+0x14c>
    ab96:	8522                	mv	a0,s0
    ab98:	9e5ff0ef          	jal	ra,a57c <prvIsQueueEmpty>
    ab9c:	c929                	beqz	a0,abee <xQueueReceive+0x142>
    ab9e:	45b2                	lw	a1,12(sp)
    aba0:	8556                	mv	a0,s5
    aba2:	111000ef          	jal	ra,b4b2 <vTaskPlaceOnEventList>
    aba6:	8522                	mv	a0,s0
    aba8:	a8dff0ef          	jal	ra,a634 <prvUnlockQueue>
    abac:	2d79                	jal	b24a <xTaskResumeAll>
    abae:	e119                	bnez	a0,abb4 <xQueueReceive+0x108>
    abb0:	217b2023          	sw	s7,512(s6) # e000e200 <__freertos_irq_stack_top+0xc0006200>
    abb4:	4905                	li	s2,1
    abb6:	8f5ff0ef          	jal	ra,a4aa <vPortEnterCritical>
    abba:	5c04                	lw	s1,56(s0)
    abbc:	d4d1                	beqz	s1,ab48 <xQueueReceive+0x9c>
    abbe:	85ce                	mv	a1,s3
    abc0:	8522                	mv	a0,s0
    abc2:	14fd                	addi	s1,s1,-1
    abc4:	a49ff0ef          	jal	ra,a60c <prvCopyDataFromQueue>
    abc8:	dc04                	sw	s1,56(s0)
    abca:	481c                	lw	a5,16(s0)
    abcc:	cb99                	beqz	a5,abe2 <xQueueReceive+0x136>
    abce:	01040513          	addi	a0,s0,16
    abd2:	19f000ef          	jal	ra,b570 <xTaskRemoveFromEventList>
    abd6:	c511                	beqz	a0,abe2 <xQueueReceive+0x136>
    abd8:	e000e7b7          	lui	a5,0xe000e
    abdc:	6711                	lui	a4,0x4
    abde:	20e7a023          	sw	a4,512(a5) # e000e200 <__freertos_irq_stack_top+0xc0006200>
    abe2:	8dfff0ef          	jal	ra,a4c0 <vPortExitCritical>
    abe6:	4505                	li	a0,1
    abe8:	6105                	addi	sp,sp,32
    abea:	93df506f          	j	526 <__riscv_restore_10>
    abee:	8522                	mv	a0,s0
    abf0:	a45ff0ef          	jal	ra,a634 <prvUnlockQueue>
    abf4:	2d99                	jal	b24a <xTaskResumeAll>
    abf6:	bf7d                	j	abb4 <xQueueReceive+0x108>
    abf8:	8522                	mv	a0,s0
    abfa:	a3bff0ef          	jal	ra,a634 <prvUnlockQueue>
    abfe:	25b1                	jal	b24a <xTaskResumeAll>
    ac00:	8522                	mv	a0,s0
    ac02:	97bff0ef          	jal	ra,a57c <prvIsQueueEmpty>
    ac06:	d55d                	beqz	a0,abb4 <xQueueReceive+0x108>
    ac08:	b7a1                	j	ab50 <xQueueReceive+0xa4>

0000ac0a <vQueueAddToRegistry>:
    ac0a:	e515                	bnez	a0,ac36 <vQueueAddToRegistry+0x2c>
    ac0c:	90bf52ef          	jal	t0,516 <__riscv_save_0>
    ac10:	67a1                	lui	a5,0x8
    ac12:	80078793          	addi	a5,a5,-2048 # 7800 <sha512_compress+0x74a>
    ac16:	30079073          	csrw	mstatus,a5
    ac1a:	00015637          	lui	a2,0x15
    ac1e:	6585                	lui	a1,0x1
    ac20:	00015537          	lui	a0,0x15
    ac24:	dd060613          	addi	a2,a2,-560 # 14dd0 <app_ver+0xb0>
    ac28:	ac858593          	addi	a1,a1,-1336 # ac8 <fe_mul+0x34>
    ac2c:	d8450513          	addi	a0,a0,-636 # 14d84 <app_ver+0x64>
    ac30:	648010ef          	jal	ra,c278 <iprintf>
    ac34:	a001                	j	ac34 <vQueueAddToRegistry+0x2a>
    ac36:	cd9d                	beqz	a1,ac74 <vQueueAddToRegistry+0x6a>
    ac38:	20005637          	lui	a2,0x20005
    ac3c:	f3860693          	addi	a3,a2,-200 # 20004f38 <xQueueRegistry>
    ac40:	4781                	li	a5,0
    ac42:	4701                	li	a4,0
    ac44:	f3860613          	addi	a2,a2,-200
    ac48:	4821                	li	a6,8
    ac4a:	0046a883          	lw	a7,4(a3)
    ac4e:	00a89863          	bne	a7,a0,ac5e <vQueueAddToRegistry+0x54>
    ac52:	00371793          	slli	a5,a4,0x3
    ac56:	97b2                	add	a5,a5,a2
    ac58:	c38c                	sw	a1,0(a5)
    ac5a:	c3c8                	sw	a0,4(a5)
    ac5c:	a821                	j	ac74 <vQueueAddToRegistry+0x6a>
    ac5e:	e791                	bnez	a5,ac6a <vQueueAddToRegistry+0x60>
    ac60:	0006a883          	lw	a7,0(a3)
    ac64:	00089363          	bnez	a7,ac6a <vQueueAddToRegistry+0x60>
    ac68:	87b6                	mv	a5,a3
    ac6a:	0705                	addi	a4,a4,1
    ac6c:	06a1                	addi	a3,a3,8
    ac6e:	fd071ee3          	bne	a4,a6,ac4a <vQueueAddToRegistry+0x40>
    ac72:	f3fd                	bnez	a5,ac58 <vQueueAddToRegistry+0x4e>
    ac74:	8082                	ret

0000ac76 <vQueueWaitForMessageRestricted>:
    ac76:	8a1f52ef          	jal	t0,516 <__riscv_save_0>
    ac7a:	1141                	addi	sp,sp,-16
    ac7c:	842a                	mv	s0,a0
    ac7e:	c62e                	sw	a1,12(sp)
    ac80:	c432                	sw	a2,8(sp)
    ac82:	829ff0ef          	jal	ra,a4aa <vPortEnterCritical>
    ac86:	04444783          	lbu	a5,68(s0)
    ac8a:	577d                	li	a4,-1
    ac8c:	4622                	lw	a2,8(sp)
    ac8e:	07e2                	slli	a5,a5,0x18
    ac90:	87e1                	srai	a5,a5,0x18
    ac92:	45b2                	lw	a1,12(sp)
    ac94:	00e79463          	bne	a5,a4,ac9c <vQueueWaitForMessageRestricted+0x26>
    ac98:	04040223          	sb	zero,68(s0)
    ac9c:	04544783          	lbu	a5,69(s0)
    aca0:	577d                	li	a4,-1
    aca2:	07e2                	slli	a5,a5,0x18
    aca4:	87e1                	srai	a5,a5,0x18
    aca6:	00e79463          	bne	a5,a4,acae <vQueueWaitForMessageRestricted+0x38>
    acaa:	040402a3          	sb	zero,69(s0)
    acae:	c632                	sw	a2,12(sp)
    acb0:	c42e                	sw	a1,8(sp)
    acb2:	80fff0ef          	jal	ra,a4c0 <vPortExitCritical>
    acb6:	5c1c                	lw	a5,56(s0)
    acb8:	45a2                	lw	a1,8(sp)
    acba:	4632                	lw	a2,12(sp)
    acbc:	e789                	bnez	a5,acc6 <vQueueWaitForMessageRestricted+0x50>
    acbe:	02440513          	addi	a0,s0,36
    acc2:	039000ef          	jal	ra,b4fa <vTaskPlaceOnEventListRestricted>
    acc6:	8522                	mv	a0,s0
    acc8:	96dff0ef          	jal	ra,a634 <prvUnlockQueue>
    accc:	0141                	addi	sp,sp,16
    acce:	86df506f          	j	53a <__riscv_restore_0>

0000acd2 <prvResetNextTaskUnblockTime>:
    acd2:	20000737          	lui	a4,0x20000
    acd6:	10070713          	addi	a4,a4,256 # 20000100 <pxDelayedTaskList>
    acda:	431c                	lw	a5,0(a4)
    acdc:	4394                	lw	a3,0(a5)
    acde:	200007b7          	lui	a5,0x20000
    ace2:	12078793          	addi	a5,a5,288 # 20000120 <xNextTaskUnblockTime>
    ace6:	e681                	bnez	a3,acee <prvResetNextTaskUnblockTime+0x1c>
    ace8:	577d                	li	a4,-1
    acea:	c398                	sw	a4,0(a5)
    acec:	8082                	ret
    acee:	4318                	lw	a4,0(a4)
    acf0:	4758                	lw	a4,12(a4)
    acf2:	4318                	lw	a4,0(a4)
    acf4:	bfdd                	j	acea <prvResetNextTaskUnblockTime+0x18>

0000acf6 <prvAddCurrentTaskToDelayedList>:
    acf6:	807f52ef          	jal	t0,4fc <__riscv_save_4>
    acfa:	20000937          	lui	s2,0x20000
    acfe:	200007b7          	lui	a5,0x20000
    ad02:	0fc90493          	addi	s1,s2,252 # 200000fc <pxCurrentTCB>
    ad06:	1307a983          	lw	s3,304(a5) # 20000130 <xTickCount>
    ad0a:	842a                	mv	s0,a0
    ad0c:	409c                	lw	a5,0(s1)
    ad0e:	4088                	lw	a0,0(s1)
    ad10:	1141                	addi	sp,sp,-16
    ad12:	040788a3          	sb	zero,81(a5)
    ad16:	0511                	addi	a0,a0,4
    ad18:	c62e                	sw	a1,12(sp)
    ad1a:	843ff0ef          	jal	ra,a55c <uxListRemove>
    ad1e:	577d                	li	a4,-1
    ad20:	0fc90793          	addi	a5,s2,252
    ad24:	45b2                	lw	a1,12(sp)
    ad26:	02e41c63          	bne	s0,a4,ad5e <prvAddCurrentTaskToDelayedList+0x68>
    ad2a:	c995                	beqz	a1,ad5e <prvAddCurrentTaskToDelayedList+0x68>
    ad2c:	200057b7          	lui	a5,0x20005
    ad30:	0e078793          	addi	a5,a5,224 # 200050e0 <xSuspendedTaskList>
    ad34:	4094                	lw	a3,0(s1)
    ad36:	43d8                	lw	a4,4(a5)
    ad38:	c698                	sw	a4,8(a3)
    ad3a:	4710                	lw	a2,8(a4)
    ad3c:	4094                	lw	a3,0(s1)
    ad3e:	c6d0                	sw	a2,12(a3)
    ad40:	4094                	lw	a3,0(s1)
    ad42:	4710                	lw	a2,8(a4)
    ad44:	0691                	addi	a3,a3,4
    ad46:	c254                	sw	a3,4(a2)
    ad48:	4094                	lw	a3,0(s1)
    ad4a:	0691                	addi	a3,a3,4
    ad4c:	c714                	sw	a3,8(a4)
    ad4e:	4098                	lw	a4,0(s1)
    ad50:	cb5c                	sw	a5,20(a4)
    ad52:	4398                	lw	a4,0(a5)
    ad54:	0705                	addi	a4,a4,1
    ad56:	c398                	sw	a4,0(a5)
    ad58:	0141                	addi	sp,sp,16
    ad5a:	fd6f506f          	j	530 <__riscv_restore_4>
    ad5e:	4398                	lw	a4,0(a5)
    ad60:	944e                	add	s0,s0,s3
    ad62:	c340                	sw	s0,4(a4)
    ad64:	01347b63          	bgeu	s0,s3,ad7a <prvAddCurrentTaskToDelayedList+0x84>
    ad68:	20000737          	lui	a4,0x20000
    ad6c:	10472503          	lw	a0,260(a4) # 20000104 <pxOverflowDelayedTaskList>
    ad70:	438c                	lw	a1,0(a5)
    ad72:	0591                	addi	a1,a1,4
    ad74:	fbaff0ef          	jal	ra,a52e <vListInsert>
    ad78:	b7c5                	j	ad58 <prvAddCurrentTaskToDelayedList+0x62>
    ad7a:	20000737          	lui	a4,0x20000
    ad7e:	10072503          	lw	a0,256(a4) # 20000100 <pxDelayedTaskList>
    ad82:	438c                	lw	a1,0(a5)
    ad84:	0591                	addi	a1,a1,4
    ad86:	fa8ff0ef          	jal	ra,a52e <vListInsert>
    ad8a:	200007b7          	lui	a5,0x20000
    ad8e:	12078793          	addi	a5,a5,288 # 20000120 <xNextTaskUnblockTime>
    ad92:	4398                	lw	a4,0(a5)
    ad94:	fce472e3          	bgeu	s0,a4,ad58 <prvAddCurrentTaskToDelayedList+0x62>
    ad98:	c380                	sw	s0,0(a5)
    ad9a:	bf7d                	j	ad58 <prvAddCurrentTaskToDelayedList+0x62>

0000ad9c <prvIdleTask>:
    ad9c:	f60f52ef          	jal	t0,4fc <__riscv_save_4>
    ada0:	20005437          	lui	s0,0x20005
    ada4:	200009b7          	lui	s3,0x20000
    ada8:	0f440413          	addi	s0,s0,244 # 200050f4 <xTasksWaitingTermination>
    adac:	20000a37          	lui	s4,0x20000
    adb0:	10c98493          	addi	s1,s3,268 # 2000010c <uxDeletedTasksWaitingCleanUp>
    adb4:	409c                	lw	a5,0(s1)
    adb6:	dfed                	beqz	a5,adb0 <prvIdleTask+0x14>
    adb8:	ef2ff0ef          	jal	ra,a4aa <vPortEnterCritical>
    adbc:	445c                	lw	a5,12(s0)
    adbe:	00c7a903          	lw	s2,12(a5)
    adc2:	00490513          	addi	a0,s2,4
    adc6:	f96ff0ef          	jal	ra,a55c <uxListRemove>
    adca:	108a0713          	addi	a4,s4,264 # 20000108 <uxCurrentNumberOfTasks>
    adce:	431c                	lw	a5,0(a4)
    add0:	17fd                	addi	a5,a5,-1
    add2:	c31c                	sw	a5,0(a4)
    add4:	409c                	lw	a5,0(s1)
    add6:	17fd                	addi	a5,a5,-1
    add8:	c09c                	sw	a5,0(s1)
    adda:	ee6ff0ef          	jal	ra,a4c0 <vPortExitCritical>
    adde:	03092503          	lw	a0,48(s2)
    ade2:	d1aff0ef          	jal	ra,a2fc <vPortFree>
    ade6:	854a                	mv	a0,s2
    ade8:	d14ff0ef          	jal	ra,a2fc <vPortFree>
    adec:	b7d1                	j	adb0 <prvIdleTask+0x14>

0000adee <xTaskCreate>:
    adee:	f00f52ef          	jal	t0,4ee <__riscv_save_10>
    adf2:	00261913          	slli	s2,a2,0x2
    adf6:	8aaa                	mv	s5,a0
    adf8:	854a                	mv	a0,s2
    adfa:	8a2e                	mv	s4,a1
    adfc:	8b36                	mv	s6,a3
    adfe:	8bba                	mv	s7,a4
    ae00:	89be                	mv	s3,a5
    ae02:	b6cff0ef          	jal	ra,a16e <pvPortMalloc>
    ae06:	c11d                	beqz	a0,ae2c <xTaskCreate+0x3e>
    ae08:	84aa                	mv	s1,a0
    ae0a:	05400513          	li	a0,84
    ae0e:	b60ff0ef          	jal	ra,a16e <pvPortMalloc>
    ae12:	842a                	mv	s0,a0
    ae14:	c909                	beqz	a0,ae26 <xTaskCreate+0x38>
    ae16:	d904                	sw	s1,48(a0)
    ae18:	4781                	li	a5,0
    ae1a:	46c1                	li	a3,16
    ae1c:	000a1a63          	bnez	s4,ae30 <xTaskCreate+0x42>
    ae20:	02050a23          	sb	zero,52(a0)
    ae24:	a025                	j	ae4c <xTaskCreate+0x5e>
    ae26:	8526                	mv	a0,s1
    ae28:	cd4ff0ef          	jal	ra,a2fc <vPortFree>
    ae2c:	557d                	li	a0,-1
    ae2e:	a265                	j	afd6 <xTaskCreate+0x1e8>
    ae30:	00fa0733          	add	a4,s4,a5
    ae34:	00070703          	lb	a4,0(a4)
    ae38:	00f40633          	add	a2,s0,a5
    ae3c:	02e60a23          	sb	a4,52(a2)
    ae40:	c701                	beqz	a4,ae48 <xTaskCreate+0x5a>
    ae42:	0785                	addi	a5,a5,1
    ae44:	fed796e3          	bne	a5,a3,ae30 <xTaskCreate+0x42>
    ae48:	040401a3          	sb	zero,67(s0)
    ae4c:	47b9                	li	a5,14
    ae4e:	0377f463          	bgeu	a5,s7,ae76 <xTaskCreate+0x88>
    ae52:	67a1                	lui	a5,0x8
    ae54:	80078793          	addi	a5,a5,-2048 # 7800 <sha512_compress+0x74a>
    ae58:	30079073          	csrw	mstatus,a5
    ae5c:	00015637          	lui	a2,0x15
    ae60:	00015537          	lui	a0,0x15
    ae64:	de460613          	addi	a2,a2,-540 # 14de4 <app_ver+0xc4>
    ae68:	39700593          	li	a1,919
    ae6c:	d8450513          	addi	a0,a0,-636 # 14d84 <app_ver+0x64>
    ae70:	408010ef          	jal	ra,c278 <iprintf>
    ae74:	a001                	j	ae74 <xTaskCreate+0x86>
    ae76:	00440a13          	addi	s4,s0,4
    ae7a:	8552                	mv	a0,s4
    ae7c:	03742623          	sw	s7,44(s0)
    ae80:	05742223          	sw	s7,68(s0)
    ae84:	04042423          	sw	zero,72(s0)
    ae88:	ea0ff0ef          	jal	ra,a528 <vListInitialiseItem>
    ae8c:	01840513          	addi	a0,s0,24
    ae90:	e98ff0ef          	jal	ra,a528 <vListInitialiseItem>
    ae94:	473d                	li	a4,15
    ae96:	ffc90513          	addi	a0,s2,-4
    ae9a:	41770733          	sub	a4,a4,s7
    ae9e:	9526                	add	a0,a0,s1
    aea0:	c800                	sw	s0,16(s0)
    aea2:	cc18                	sw	a4,24(s0)
    aea4:	d040                	sw	s0,36(s0)
    aea6:	04040623          	sb	zero,76(s0)
    aeaa:	040406a3          	sb	zero,77(s0)
    aeae:	04040723          	sb	zero,78(s0)
    aeb2:	040407a3          	sb	zero,79(s0)
    aeb6:	04040823          	sb	zero,80(s0)
    aeba:	040408a3          	sb	zero,81(s0)
    aebe:	865a                	mv	a2,s6
    aec0:	85d6                	mv	a1,s5
    aec2:	9941                	andi	a0,a0,-16
    aec4:	d3cf50ef          	jal	ra,400 <pxPortInitialiseStack>
    aec8:	c008                	sw	a0,0(s0)
    aeca:	00098463          	beqz	s3,aed2 <xTaskCreate+0xe4>
    aece:	0089a023          	sw	s0,0(s3)
    aed2:	dd8ff0ef          	jal	ra,a4aa <vPortEnterCritical>
    aed6:	200007b7          	lui	a5,0x20000
    aeda:	10878793          	addi	a5,a5,264 # 20000108 <uxCurrentNumberOfTasks>
    aede:	4398                	lw	a4,0(a5)
    aee0:	200004b7          	lui	s1,0x20000
    aee4:	200059b7          	lui	s3,0x20005
    aee8:	0705                	addi	a4,a4,1
    aeea:	c398                	sw	a4,0(a5)
    aeec:	0fc48713          	addi	a4,s1,252 # 200000fc <pxCurrentTCB>
    aef0:	4318                	lw	a4,0(a4)
    aef2:	0fc48493          	addi	s1,s1,252
    aef6:	f7898913          	addi	s2,s3,-136 # 20004f78 <pxReadyTasksLists>
    aefa:	0e071063          	bnez	a4,afda <xTaskCreate+0x1ec>
    aefe:	c080                	sw	s0,0(s1)
    af00:	4398                	lw	a4,0(a5)
    af02:	4785                	li	a5,1
    af04:	06f71663          	bne	a4,a5,af70 <xTaskCreate+0x182>
    af08:	f7898993          	addi	s3,s3,-136
    af0c:	12c90a93          	addi	s5,s2,300
    af10:	854e                	mv	a0,s3
    af12:	09d1                	addi	s3,s3,20
    af14:	e00ff0ef          	jal	ra,a514 <vListInitialise>
    af18:	ff3a9ce3          	bne	s5,s3,af10 <xTaskCreate+0x122>
    af1c:	20005537          	lui	a0,0x20005
    af20:	0a450a93          	addi	s5,a0,164 # 200050a4 <xDelayedTaskList1>
    af24:	0a450513          	addi	a0,a0,164
    af28:	decff0ef          	jal	ra,a514 <vListInitialise>
    af2c:	20005537          	lui	a0,0x20005
    af30:	0b850993          	addi	s3,a0,184 # 200050b8 <xDelayedTaskList2>
    af34:	0b850513          	addi	a0,a0,184
    af38:	ddcff0ef          	jal	ra,a514 <vListInitialise>
    af3c:	20005537          	lui	a0,0x20005
    af40:	0cc50513          	addi	a0,a0,204 # 200050cc <xPendingReadyList>
    af44:	dd0ff0ef          	jal	ra,a514 <vListInitialise>
    af48:	20005537          	lui	a0,0x20005
    af4c:	0f450513          	addi	a0,a0,244 # 200050f4 <xTasksWaitingTermination>
    af50:	dc4ff0ef          	jal	ra,a514 <vListInitialise>
    af54:	20005537          	lui	a0,0x20005
    af58:	0e050513          	addi	a0,a0,224 # 200050e0 <xSuspendedTaskList>
    af5c:	db8ff0ef          	jal	ra,a514 <vListInitialise>
    af60:	200007b7          	lui	a5,0x20000
    af64:	1157a023          	sw	s5,256(a5) # 20000100 <pxDelayedTaskList>
    af68:	200007b7          	lui	a5,0x20000
    af6c:	1137a223          	sw	s3,260(a5) # 20000104 <pxOverflowDelayedTaskList>
    af70:	200007b7          	lui	a5,0x20000
    af74:	11478793          	addi	a5,a5,276 # 20000114 <uxTaskNumber>
    af78:	4398                	lw	a4,0(a5)
    af7a:	0705                	addi	a4,a4,1
    af7c:	c398                	sw	a4,0(a5)
    af7e:	20000737          	lui	a4,0x20000
    af82:	11870713          	addi	a4,a4,280 # 20000118 <uxTopReadyPriority>
    af86:	545c                	lw	a5,44(s0)
    af88:	4314                	lw	a3,0(a4)
    af8a:	00f6f363          	bgeu	a3,a5,af90 <xTaskCreate+0x1a2>
    af8e:	c31c                	sw	a5,0(a4)
    af90:	4751                	li	a4,20
    af92:	02e787b3          	mul	a5,a5,a4
    af96:	97ca                	add	a5,a5,s2
    af98:	43d8                	lw	a4,4(a5)
    af9a:	4714                	lw	a3,8(a4)
    af9c:	c418                	sw	a4,8(s0)
    af9e:	c454                	sw	a3,12(s0)
    afa0:	4714                	lw	a3,8(a4)
    afa2:	0146a223          	sw	s4,4(a3)
    afa6:	01472423          	sw	s4,8(a4)
    afaa:	4398                	lw	a4,0(a5)
    afac:	c85c                	sw	a5,20(s0)
    afae:	0705                	addi	a4,a4,1
    afb0:	c398                	sw	a4,0(a5)
    afb2:	d0eff0ef          	jal	ra,a4c0 <vPortExitCritical>
    afb6:	200007b7          	lui	a5,0x20000
    afba:	12c7a783          	lw	a5,300(a5) # 2000012c <xSchedulerRunning>
    afbe:	4505                	li	a0,1
    afc0:	cb99                	beqz	a5,afd6 <xTaskCreate+0x1e8>
    afc2:	409c                	lw	a5,0(s1)
    afc4:	57d8                	lw	a4,44(a5)
    afc6:	545c                	lw	a5,44(s0)
    afc8:	00f77763          	bgeu	a4,a5,afd6 <xTaskCreate+0x1e8>
    afcc:	e000e7b7          	lui	a5,0xe000e
    afd0:	6711                	lui	a4,0x4
    afd2:	20e7a023          	sw	a4,512(a5) # e000e200 <__freertos_irq_stack_top+0xc0006200>
    afd6:	d50f506f          	j	526 <__riscv_restore_10>
    afda:	200007b7          	lui	a5,0x20000
    afde:	12c7a783          	lw	a5,300(a5) # 2000012c <xSchedulerRunning>
    afe2:	f7d9                	bnez	a5,af70 <xTaskCreate+0x182>
    afe4:	409c                	lw	a5,0(s1)
    afe6:	57d8                	lw	a4,44(a5)
    afe8:	545c                	lw	a5,44(s0)
    afea:	f8e7e3e3          	bltu	a5,a4,af70 <xTaskCreate+0x182>
    afee:	c080                	sw	s0,0(s1)
    aff0:	b741                	j	af70 <xTaskCreate+0x182>

0000aff2 <vTaskStartScheduler>:
    aff2:	d24f52ef          	jal	t0,516 <__riscv_save_0>
    aff6:	200007b7          	lui	a5,0x20000
    affa:	000155b7          	lui	a1,0x15
    affe:	0000b537          	lui	a0,0xb
    b002:	11c78793          	addi	a5,a5,284 # 2000011c <xIdleTaskHandle>
    b006:	4701                	li	a4,0
    b008:	4681                	li	a3,0
    b00a:	10000613          	li	a2,256
    b00e:	df858593          	addi	a1,a1,-520 # 14df8 <app_ver+0xd8>
    b012:	d9c50513          	addi	a0,a0,-612 # ad9c <prvIdleTask>
    b016:	dd9ff0ef          	jal	ra,adee <xTaskCreate>
    b01a:	4405                	li	s0,1
    b01c:	02851e63          	bne	a0,s0,b058 <vTaskStartScheduler+0x66>
    b020:	2f3000ef          	jal	ra,bb12 <xTimerCreateTimerTask>
    b024:	02851a63          	bne	a0,s0,b058 <vTaskStartScheduler+0x66>
    b028:	67a1                	lui	a5,0x8
    b02a:	80078793          	addi	a5,a5,-2048 # 7800 <sha512_compress+0x74a>
    b02e:	30079073          	csrw	mstatus,a5
    b032:	200007b7          	lui	a5,0x20000
    b036:	577d                	li	a4,-1
    b038:	12e7a023          	sw	a4,288(a5) # 20000120 <xNextTaskUnblockTime>
    b03c:	200007b7          	lui	a5,0x20000
    b040:	12a7a623          	sw	a0,300(a5) # 2000012c <xSchedulerRunning>
    b044:	200007b7          	lui	a5,0x20000
    b048:	1207a823          	sw	zero,304(a5) # 20000130 <xTickCount>
    b04c:	b96ff0ef          	jal	ra,a3e2 <xPortStartScheduler>
    b050:	80c1a783          	lw	a5,-2036(gp) # 2000009c <uxTopUsedPriority>
    b054:	ce6f506f          	j	53a <__riscv_restore_0>
    b058:	57fd                	li	a5,-1
    b05a:	fef51be3          	bne	a0,a5,b050 <vTaskStartScheduler+0x5e>
    b05e:	67a1                	lui	a5,0x8
    b060:	80078793          	addi	a5,a5,-2048 # 7800 <sha512_compress+0x74a>
    b064:	30079073          	csrw	mstatus,a5
    b068:	00015637          	lui	a2,0x15
    b06c:	6585                	lui	a1,0x1
    b06e:	00015537          	lui	a0,0x15
    b072:	de460613          	addi	a2,a2,-540 # 14de4 <app_ver+0xc4>
    b076:	84058593          	addi	a1,a1,-1984 # 840 <fe_frombytes+0x40>
    b07a:	d8450513          	addi	a0,a0,-636 # 14d84 <app_ver+0x64>
    b07e:	1fa010ef          	jal	ra,c278 <iprintf>
    b082:	a001                	j	b082 <vTaskStartScheduler+0x90>

0000b084 <vTaskSuspendAll>:
    b084:	200007b7          	lui	a5,0x20000
    b088:	11078793          	addi	a5,a5,272 # 20000110 <uxSchedulerSuspended>
    b08c:	4398                	lw	a4,0(a5)
    b08e:	0705                	addi	a4,a4,1
    b090:	c398                	sw	a4,0(a5)
    b092:	8082                	ret

0000b094 <xTaskGetTickCount>:
    b094:	200007b7          	lui	a5,0x20000
    b098:	1307a503          	lw	a0,304(a5) # 20000130 <xTickCount>
    b09c:	8082                	ret

0000b09e <xTaskIncrementTick>:
    b09e:	200007b7          	lui	a5,0x20000
    b0a2:	1107a783          	lw	a5,272(a5) # 20000110 <uxSchedulerSuspended>
    b0a6:	18079963          	bnez	a5,b238 <xTaskIncrementTick+0x19a>
    b0aa:	c6cf52ef          	jal	t0,516 <__riscv_save_0>
    b0ae:	200007b7          	lui	a5,0x20000
    b0b2:	13078793          	addi	a5,a5,304 # 20000130 <xTickCount>
    b0b6:	4380                	lw	s0,0(a5)
    b0b8:	0405                	addi	s0,s0,1
    b0ba:	c380                	sw	s0,0(a5)
    b0bc:	ec21                	bnez	s0,b114 <xTaskIncrementTick+0x76>
    b0be:	200007b7          	lui	a5,0x20000
    b0c2:	10078793          	addi	a5,a5,256 # 20000100 <pxDelayedTaskList>
    b0c6:	4398                	lw	a4,0(a5)
    b0c8:	4318                	lw	a4,0(a4)
    b0ca:	c705                	beqz	a4,b0f2 <xTaskIncrementTick+0x54>
    b0cc:	67a1                	lui	a5,0x8
    b0ce:	80078793          	addi	a5,a5,-2048 # 7800 <sha512_compress+0x74a>
    b0d2:	30079073          	csrw	mstatus,a5
    b0d6:	00015637          	lui	a2,0x15
    b0da:	6585                	lui	a1,0x1
    b0dc:	00015537          	lui	a0,0x15
    b0e0:	de460613          	addi	a2,a2,-540 # 14de4 <app_ver+0xc4>
    b0e4:	ac758593          	addi	a1,a1,-1337 # ac7 <fe_mul+0x33>
    b0e8:	d8450513          	addi	a0,a0,-636 # 14d84 <app_ver+0x64>
    b0ec:	18c010ef          	jal	ra,c278 <iprintf>
    b0f0:	a001                	j	b0f0 <xTaskIncrementTick+0x52>
    b0f2:	20000737          	lui	a4,0x20000
    b0f6:	10470713          	addi	a4,a4,260 # 20000104 <pxOverflowDelayedTaskList>
    b0fa:	4394                	lw	a3,0(a5)
    b0fc:	4310                	lw	a2,0(a4)
    b0fe:	c390                	sw	a2,0(a5)
    b100:	200007b7          	lui	a5,0x20000
    b104:	c314                	sw	a3,0(a4)
    b106:	12478793          	addi	a5,a5,292 # 20000124 <xNumOfOverflows>
    b10a:	4398                	lw	a4,0(a5)
    b10c:	0705                	addi	a4,a4,1
    b10e:	c398                	sw	a4,0(a5)
    b110:	bc3ff0ef          	jal	ra,acd2 <prvResetNextTaskUnblockTime>
    b114:	20000637          	lui	a2,0x20000
    b118:	12060793          	addi	a5,a2,288 # 20000120 <xNextTaskUnblockTime>
    b11c:	439c                	lw	a5,0(a5)
    b11e:	20005737          	lui	a4,0x20005
    b122:	200005b7          	lui	a1,0x20000
    b126:	12060613          	addi	a2,a2,288
    b12a:	f7870713          	addi	a4,a4,-136 # 20004f78 <pxReadyTasksLists>
    b12e:	0fc58593          	addi	a1,a1,252 # 200000fc <pxCurrentTCB>
    b132:	4501                	li	a0,0
    b134:	02f47563          	bgeu	s0,a5,b15e <xTaskIncrementTick+0xc0>
    b138:	419c                	lw	a5,0(a1)
    b13a:	46d1                	li	a3,20
    b13c:	57dc                	lw	a5,44(a5)
    b13e:	02d787b3          	mul	a5,a5,a3
    b142:	973e                	add	a4,a4,a5
    b144:	4318                	lw	a4,0(a4)
    b146:	4785                	li	a5,1
    b148:	00e7f363          	bgeu	a5,a4,b14e <xTaskIncrementTick+0xb0>
    b14c:	4505                	li	a0,1
    b14e:	200007b7          	lui	a5,0x20000
    b152:	1347a783          	lw	a5,308(a5) # 20000134 <xYieldPending>
    b156:	c391                	beqz	a5,b15a <xTaskIncrementTick+0xbc>
    b158:	4505                	li	a0,1
    b15a:	be0f506f          	j	53a <__riscv_restore_0>
    b15e:	20000e37          	lui	t3,0x20000
    b162:	20000eb7          	lui	t4,0x20000
    b166:	4f51                	li	t5,20
    b168:	100e0793          	addi	a5,t3,256 # 20000100 <pxDelayedTaskList>
    b16c:	4394                	lw	a3,0(a5)
    b16e:	4294                	lw	a3,0(a3)
    b170:	e681                	bnez	a3,b178 <xTaskIncrementTick+0xda>
    b172:	57fd                	li	a5,-1
    b174:	c21c                	sw	a5,0(a2)
    b176:	b7c9                	j	b138 <xTaskIncrementTick+0x9a>
    b178:	439c                	lw	a5,0(a5)
    b17a:	47dc                	lw	a5,12(a5)
    b17c:	47dc                	lw	a5,12(a5)
    b17e:	43d4                	lw	a3,4(a5)
    b180:	00d47463          	bgeu	s0,a3,b188 <xTaskIncrementTick+0xea>
    b184:	c214                	sw	a3,0(a2)
    b186:	bf4d                	j	b138 <xTaskIncrementTick+0x9a>
    b188:	0087a883          	lw	a7,8(a5)
    b18c:	00c7a803          	lw	a6,12(a5)
    b190:	4bd4                	lw	a3,20(a5)
    b192:	00478313          	addi	t1,a5,4
    b196:	0108a423          	sw	a6,8(a7)
    b19a:	01182223          	sw	a7,4(a6)
    b19e:	0046a883          	lw	a7,4(a3)
    b1a2:	00689463          	bne	a7,t1,b1aa <xTaskIncrementTick+0x10c>
    b1a6:	0106a223          	sw	a6,4(a3)
    b1aa:	0006a803          	lw	a6,0(a3)
    b1ae:	0007aa23          	sw	zero,20(a5)
    b1b2:	187d                	addi	a6,a6,-1
    b1b4:	0106a023          	sw	a6,0(a3)
    b1b8:	5794                	lw	a3,40(a5)
    b1ba:	ca95                	beqz	a3,b1ee <xTaskIncrementTick+0x150>
    b1bc:	01c7a803          	lw	a6,28(a5)
    b1c0:	0207a883          	lw	a7,32(a5)
    b1c4:	0046af83          	lw	t6,4(a3)
    b1c8:	01182423          	sw	a7,8(a6)
    b1cc:	0207a883          	lw	a7,32(a5)
    b1d0:	0108a223          	sw	a6,4(a7)
    b1d4:	01878813          	addi	a6,a5,24
    b1d8:	010f9463          	bne	t6,a6,b1e0 <xTaskIncrementTick+0x142>
    b1dc:	0116a223          	sw	a7,4(a3)
    b1e0:	0006a803          	lw	a6,0(a3)
    b1e4:	0207a423          	sw	zero,40(a5)
    b1e8:	187d                	addi	a6,a6,-1
    b1ea:	0106a023          	sw	a6,0(a3)
    b1ee:	118e8693          	addi	a3,t4,280 # 20000118 <uxTopReadyPriority>
    b1f2:	02c7a803          	lw	a6,44(a5)
    b1f6:	0006a883          	lw	a7,0(a3)
    b1fa:	0108f463          	bgeu	a7,a6,b202 <xTaskIncrementTick+0x164>
    b1fe:	0106a023          	sw	a6,0(a3)
    b202:	03e806b3          	mul	a3,a6,t5
    b206:	96ba                	add	a3,a3,a4
    b208:	0046a883          	lw	a7,4(a3)
    b20c:	0088af83          	lw	t6,8(a7)
    b210:	0117a423          	sw	a7,8(a5)
    b214:	01f7a623          	sw	t6,12(a5)
    b218:	0088af83          	lw	t6,8(a7)
    b21c:	006fa223          	sw	t1,4(t6) # 100004 <_data_lma+0xeb11c>
    b220:	0068a423          	sw	t1,8(a7)
    b224:	cbd4                	sw	a3,20(a5)
    b226:	429c                	lw	a5,0(a3)
    b228:	0785                	addi	a5,a5,1
    b22a:	c29c                	sw	a5,0(a3)
    b22c:	419c                	lw	a5,0(a1)
    b22e:	57dc                	lw	a5,44(a5)
    b230:	f2f86ce3          	bltu	a6,a5,b168 <xTaskIncrementTick+0xca>
    b234:	4505                	li	a0,1
    b236:	bf0d                	j	b168 <xTaskIncrementTick+0xca>
    b238:	200007b7          	lui	a5,0x20000
    b23c:	12878793          	addi	a5,a5,296 # 20000128 <xPendedTicks>
    b240:	4398                	lw	a4,0(a5)
    b242:	4501                	li	a0,0
    b244:	0705                	addi	a4,a4,1
    b246:	c398                	sw	a4,0(a5)
    b248:	8082                	ret

0000b24a <xTaskResumeAll>:
    b24a:	ab2f52ef          	jal	t0,4fc <__riscv_save_4>
    b24e:	20000437          	lui	s0,0x20000
    b252:	11040413          	addi	s0,s0,272 # 20000110 <uxSchedulerSuspended>
    b256:	401c                	lw	a5,0(s0)
    b258:	1141                	addi	sp,sp,-16
    b25a:	e785                	bnez	a5,b282 <xTaskResumeAll+0x38>
    b25c:	67a1                	lui	a5,0x8
    b25e:	80078793          	addi	a5,a5,-2048 # 7800 <sha512_compress+0x74a>
    b262:	30079073          	csrw	mstatus,a5
    b266:	00015637          	lui	a2,0x15
    b26a:	6585                	lui	a1,0x1
    b26c:	00015537          	lui	a0,0x15
    b270:	de460613          	addi	a2,a2,-540 # 14de4 <app_ver+0xc4>
    b274:	8b358593          	addi	a1,a1,-1869 # 8b3 <fe_frombytes+0xb3>
    b278:	d8450513          	addi	a0,a0,-636 # 14d84 <app_ver+0x64>
    b27c:	7fd000ef          	jal	ra,c278 <iprintf>
    b280:	a001                	j	b280 <xTaskResumeAll+0x36>
    b282:	a28ff0ef          	jal	ra,a4aa <vPortEnterCritical>
    b286:	401c                	lw	a5,0(s0)
    b288:	17fd                	addi	a5,a5,-1
    b28a:	c01c                	sw	a5,0(s0)
    b28c:	401c                	lw	a5,0(s0)
    b28e:	cb89                	beqz	a5,b2a0 <xTaskResumeAll+0x56>
    b290:	4501                	li	a0,0
    b292:	c62a                	sw	a0,12(sp)
    b294:	a2cff0ef          	jal	ra,a4c0 <vPortExitCritical>
    b298:	4532                	lw	a0,12(sp)
    b29a:	0141                	addi	sp,sp,16
    b29c:	a94f506f          	j	530 <__riscv_restore_4>
    b2a0:	200007b7          	lui	a5,0x20000
    b2a4:	1087a783          	lw	a5,264(a5) # 20000108 <uxCurrentNumberOfTasks>
    b2a8:	d7e5                	beqz	a5,b290 <xTaskResumeAll+0x46>
    b2aa:	200056b7          	lui	a3,0x20005
    b2ae:	20005537          	lui	a0,0x20005
    b2b2:	4781                	li	a5,0
    b2b4:	0cc68693          	addi	a3,a3,204 # 200050cc <xPendingReadyList>
    b2b8:	20000f37          	lui	t5,0x20000
    b2bc:	f7850513          	addi	a0,a0,-136 # 20004f78 <pxReadyTasksLists>
    b2c0:	48d1                	li	a7,20
    b2c2:	20000337          	lui	t1,0x20000
    b2c6:	20000e37          	lui	t3,0x20000
    b2ca:	4e85                	li	t4,1
    b2cc:	a859                	j	b362 <xTaskResumeAll+0x118>
    b2ce:	46dc                	lw	a5,12(a3)
    b2d0:	47dc                	lw	a5,12(a5)
    b2d2:	4fcc                	lw	a1,28(a5)
    b2d4:	5390                	lw	a2,32(a5)
    b2d6:	5798                	lw	a4,40(a5)
    b2d8:	c590                	sw	a2,8(a1)
    b2da:	0207a803          	lw	a6,32(a5)
    b2de:	00b82223          	sw	a1,4(a6)
    b2e2:	00472803          	lw	a6,4(a4)
    b2e6:	01878593          	addi	a1,a5,24
    b2ea:	00b81363          	bne	a6,a1,b2f0 <xTaskResumeAll+0xa6>
    b2ee:	c350                	sw	a2,4(a4)
    b2f0:	4310                	lw	a2,0(a4)
    b2f2:	0207a423          	sw	zero,40(a5)
    b2f6:	167d                	addi	a2,a2,-1
    b2f8:	c310                	sw	a2,0(a4)
    b2fa:	478c                	lw	a1,8(a5)
    b2fc:	47d0                	lw	a2,12(a5)
    b2fe:	4bd8                	lw	a4,20(a5)
    b300:	00478813          	addi	a6,a5,4
    b304:	c590                	sw	a2,8(a1)
    b306:	c24c                	sw	a1,4(a2)
    b308:	434c                	lw	a1,4(a4)
    b30a:	01059363          	bne	a1,a6,b310 <xTaskResumeAll+0xc6>
    b30e:	c350                	sw	a2,4(a4)
    b310:	4310                	lw	a2,0(a4)
    b312:	0007aa23          	sw	zero,20(a5)
    b316:	167d                	addi	a2,a2,-1
    b318:	c310                	sw	a2,0(a4)
    b31a:	118f0713          	addi	a4,t5,280 # 20000118 <uxTopReadyPriority>
    b31e:	57d0                	lw	a2,44(a5)
    b320:	430c                	lw	a1,0(a4)
    b322:	00c5f363          	bgeu	a1,a2,b328 <xTaskResumeAll+0xde>
    b326:	c310                	sw	a2,0(a4)
    b328:	03160733          	mul	a4,a2,a7
    b32c:	972a                	add	a4,a4,a0
    b32e:	434c                	lw	a1,4(a4)
    b330:	0085af83          	lw	t6,8(a1)
    b334:	c78c                	sw	a1,8(a5)
    b336:	01f7a623          	sw	t6,12(a5)
    b33a:	0085af83          	lw	t6,8(a1)
    b33e:	010fa223          	sw	a6,4(t6)
    b342:	0105a423          	sw	a6,8(a1)
    b346:	430c                	lw	a1,0(a4)
    b348:	cbd8                	sw	a4,20(a5)
    b34a:	0585                	addi	a1,a1,1
    b34c:	c30c                	sw	a1,0(a4)
    b34e:	0fc30713          	addi	a4,t1,252 # 200000fc <pxCurrentTCB>
    b352:	4318                	lw	a4,0(a4)
    b354:	5758                	lw	a4,44(a4)
    b356:	00e66663          	bltu	a2,a4,b362 <xTaskResumeAll+0x118>
    b35a:	134e0713          	addi	a4,t3,308 # 20000134 <xYieldPending>
    b35e:	01d72023          	sw	t4,0(a4)
    b362:	4298                	lw	a4,0(a3)
    b364:	f72d                	bnez	a4,b2ce <xTaskResumeAll+0x84>
    b366:	c399                	beqz	a5,b36c <xTaskResumeAll+0x122>
    b368:	96bff0ef          	jal	ra,acd2 <prvResetNextTaskUnblockTime>
    b36c:	200007b7          	lui	a5,0x20000
    b370:	12878713          	addi	a4,a5,296 # 20000128 <xPendedTicks>
    b374:	4304                	lw	s1,0(a4)
    b376:	12878413          	addi	s0,a5,296
    b37a:	cc99                	beqz	s1,b398 <xTaskResumeAll+0x14e>
    b37c:	20000937          	lui	s2,0x20000
    b380:	4985                	li	s3,1
    b382:	d1dff0ef          	jal	ra,b09e <xTaskIncrementTick>
    b386:	c509                	beqz	a0,b390 <xTaskResumeAll+0x146>
    b388:	13490793          	addi	a5,s2,308 # 20000134 <xYieldPending>
    b38c:	0137a023          	sw	s3,0(a5)
    b390:	14fd                	addi	s1,s1,-1
    b392:	f8e5                	bnez	s1,b382 <xTaskResumeAll+0x138>
    b394:	00042023          	sw	zero,0(s0)
    b398:	200007b7          	lui	a5,0x20000
    b39c:	1347a783          	lw	a5,308(a5) # 20000134 <xYieldPending>
    b3a0:	ee0788e3          	beqz	a5,b290 <xTaskResumeAll+0x46>
    b3a4:	e000e7b7          	lui	a5,0xe000e
    b3a8:	6711                	lui	a4,0x4
    b3aa:	20e7a023          	sw	a4,512(a5) # e000e200 <__freertos_irq_stack_top+0xc0006200>
    b3ae:	4505                	li	a0,1
    b3b0:	b5cd                	j	b292 <xTaskResumeAll+0x48>

0000b3b2 <vTaskDelay>:
    b3b2:	e519                	bnez	a0,b3c0 <vTaskDelay+0xe>
    b3b4:	e000e7b7          	lui	a5,0xe000e
    b3b8:	6711                	lui	a4,0x4
    b3ba:	20e7a023          	sw	a4,512(a5) # e000e200 <__freertos_irq_stack_top+0xc0006200>
    b3be:	8082                	ret
    b3c0:	956f52ef          	jal	t0,516 <__riscv_save_0>
    b3c4:	200007b7          	lui	a5,0x20000
    b3c8:	1107a783          	lw	a5,272(a5) # 20000110 <uxSchedulerSuspended>
    b3cc:	1141                	addi	sp,sp,-16
    b3ce:	c39d                	beqz	a5,b3f4 <vTaskDelay+0x42>
    b3d0:	67a1                	lui	a5,0x8
    b3d2:	80078793          	addi	a5,a5,-2048 # 7800 <sha512_compress+0x74a>
    b3d6:	30079073          	csrw	mstatus,a5
    b3da:	00015637          	lui	a2,0x15
    b3de:	00015537          	lui	a0,0x15
    b3e2:	de460613          	addi	a2,a2,-540 # 14de4 <app_ver+0xc4>
    b3e6:	54900593          	li	a1,1353
    b3ea:	d8450513          	addi	a0,a0,-636 # 14d84 <app_ver+0x64>
    b3ee:	68b000ef          	jal	ra,c278 <iprintf>
    b3f2:	a001                	j	b3f2 <vTaskDelay+0x40>
    b3f4:	c62a                	sw	a0,12(sp)
    b3f6:	c8fff0ef          	jal	ra,b084 <vTaskSuspendAll>
    b3fa:	4532                	lw	a0,12(sp)
    b3fc:	4581                	li	a1,0
    b3fe:	8f9ff0ef          	jal	ra,acf6 <prvAddCurrentTaskToDelayedList>
    b402:	e49ff0ef          	jal	ra,b24a <xTaskResumeAll>
    b406:	e511                	bnez	a0,b412 <vTaskDelay+0x60>
    b408:	e000e7b7          	lui	a5,0xe000e
    b40c:	6711                	lui	a4,0x4
    b40e:	20e7a023          	sw	a4,512(a5) # e000e200 <__freertos_irq_stack_top+0xc0006200>
    b412:	0141                	addi	sp,sp,16
    b414:	926f506f          	j	53a <__riscv_restore_0>

0000b418 <vTaskSwitchContext>:
    b418:	200007b7          	lui	a5,0x20000
    b41c:	1107a703          	lw	a4,272(a5) # 20000110 <uxSchedulerSuspended>
    b420:	200007b7          	lui	a5,0x20000
    b424:	13478793          	addi	a5,a5,308 # 20000134 <xYieldPending>
    b428:	c701                	beqz	a4,b430 <vTaskSwitchContext+0x18>
    b42a:	4705                	li	a4,1
    b42c:	c398                	sw	a4,0(a5)
    b42e:	8082                	ret
    b430:	0007a023          	sw	zero,0(a5)
    b434:	200007b7          	lui	a5,0x20000
    b438:	11878713          	addi	a4,a5,280 # 20000118 <uxTopReadyPriority>
    b43c:	4318                	lw	a4,0(a4)
    b43e:	11878613          	addi	a2,a5,280
    b442:	200057b7          	lui	a5,0x20005
    b446:	f7878793          	addi	a5,a5,-136 # 20004f78 <pxReadyTasksLists>
    b44a:	4851                	li	a6,20
    b44c:	030706b3          	mul	a3,a4,a6
    b450:	00d785b3          	add	a1,a5,a3
    b454:	4188                	lw	a0,0(a1)
    b456:	c515                	beqz	a0,b482 <vTaskSwitchContext+0x6a>
    b458:	41c8                	lw	a0,4(a1)
    b45a:	06a1                	addi	a3,a3,8
    b45c:	96be                	add	a3,a3,a5
    b45e:	4148                	lw	a0,4(a0)
    b460:	c1c8                	sw	a0,4(a1)
    b462:	00d51463          	bne	a0,a3,b46a <vTaskSwitchContext+0x52>
    b466:	4154                	lw	a3,4(a0)
    b468:	c1d4                	sw	a3,4(a1)
    b46a:	46d1                	li	a3,20
    b46c:	02d706b3          	mul	a3,a4,a3
    b470:	97b6                	add	a5,a5,a3
    b472:	43dc                	lw	a5,4(a5)
    b474:	47d4                	lw	a3,12(a5)
    b476:	200007b7          	lui	a5,0x20000
    b47a:	0ed7ae23          	sw	a3,252(a5) # 200000fc <pxCurrentTCB>
    b47e:	c218                	sw	a4,0(a2)
    b480:	8082                	ret
    b482:	e715                	bnez	a4,b4ae <vTaskSwitchContext+0x96>
    b484:	892f52ef          	jal	t0,516 <__riscv_save_0>
    b488:	67a1                	lui	a5,0x8
    b48a:	80078793          	addi	a5,a5,-2048 # 7800 <sha512_compress+0x74a>
    b48e:	30079073          	csrw	mstatus,a5
    b492:	00015637          	lui	a2,0x15
    b496:	6585                	lui	a1,0x1
    b498:	00015537          	lui	a0,0x15
    b49c:	de460613          	addi	a2,a2,-540 # 14de4 <app_ver+0xc4>
    b4a0:	c0258593          	addi	a1,a1,-1022 # c02 <fe_mul+0x16e>
    b4a4:	d8450513          	addi	a0,a0,-636 # 14d84 <app_ver+0x64>
    b4a8:	5d1000ef          	jal	ra,c278 <iprintf>
    b4ac:	a001                	j	b4ac <vTaskSwitchContext+0x94>
    b4ae:	177d                	addi	a4,a4,-1
    b4b0:	bf71                	j	b44c <vTaskSwitchContext+0x34>

0000b4b2 <vTaskPlaceOnEventList>:
    b4b2:	864f52ef          	jal	t0,516 <__riscv_save_0>
    b4b6:	e505                	bnez	a0,b4de <vTaskPlaceOnEventList+0x2c>
    b4b8:	67a1                	lui	a5,0x8
    b4ba:	80078793          	addi	a5,a5,-2048 # 7800 <sha512_compress+0x74a>
    b4be:	30079073          	csrw	mstatus,a5
    b4c2:	00015637          	lui	a2,0x15
    b4c6:	6585                	lui	a1,0x1
    b4c8:	00015537          	lui	a0,0x15
    b4cc:	de460613          	addi	a2,a2,-540 # 14de4 <app_ver+0xc4>
    b4d0:	c1c58593          	addi	a1,a1,-996 # c1c <fe_mul+0x188>
    b4d4:	d8450513          	addi	a0,a0,-636 # 14d84 <app_ver+0x64>
    b4d8:	5a1000ef          	jal	ra,c278 <iprintf>
    b4dc:	a001                	j	b4dc <vTaskPlaceOnEventList+0x2a>
    b4de:	200007b7          	lui	a5,0x20000
    b4e2:	842e                	mv	s0,a1
    b4e4:	0fc7a583          	lw	a1,252(a5) # 200000fc <pxCurrentTCB>
    b4e8:	05e1                	addi	a1,a1,24
    b4ea:	844ff0ef          	jal	ra,a52e <vListInsert>
    b4ee:	4585                	li	a1,1
    b4f0:	8522                	mv	a0,s0
    b4f2:	805ff0ef          	jal	ra,acf6 <prvAddCurrentTaskToDelayedList>
    b4f6:	844f506f          	j	53a <__riscv_restore_0>

0000b4fa <vTaskPlaceOnEventListRestricted>:
    b4fa:	81cf52ef          	jal	t0,516 <__riscv_save_0>
    b4fe:	872a                	mv	a4,a0
    b500:	e505                	bnez	a0,b528 <vTaskPlaceOnEventListRestricted+0x2e>
    b502:	67a1                	lui	a5,0x8
    b504:	80078793          	addi	a5,a5,-2048 # 7800 <sha512_compress+0x74a>
    b508:	30079073          	csrw	mstatus,a5
    b50c:	00015637          	lui	a2,0x15
    b510:	6585                	lui	a1,0x1
    b512:	00015537          	lui	a0,0x15
    b516:	de460613          	addi	a2,a2,-540 # 14de4 <app_ver+0xc4>
    b51a:	c5258593          	addi	a1,a1,-942 # c52 <fe_mul+0x1be>
    b51e:	d8450513          	addi	a0,a0,-636 # 14d84 <app_ver+0x64>
    b522:	557000ef          	jal	ra,c278 <iprintf>
    b526:	a001                	j	b526 <vTaskPlaceOnEventListRestricted+0x2c>
    b528:	200007b7          	lui	a5,0x20000
    b52c:	0fc78793          	addi	a5,a5,252 # 200000fc <pxCurrentTCB>
    b530:	4354                	lw	a3,4(a4)
    b532:	852e                	mv	a0,a1
    b534:	438c                	lw	a1,0(a5)
    b536:	0086a803          	lw	a6,8(a3)
    b53a:	cdd4                	sw	a3,28(a1)
    b53c:	438c                	lw	a1,0(a5)
    b53e:	0305a023          	sw	a6,32(a1)
    b542:	0007a803          	lw	a6,0(a5)
    b546:	468c                	lw	a1,8(a3)
    b548:	0861                	addi	a6,a6,24
    b54a:	0105a223          	sw	a6,4(a1)
    b54e:	0007a803          	lw	a6,0(a5)
    b552:	439c                	lw	a5,0(a5)
    b554:	0861                	addi	a6,a6,24
    b556:	0106a423          	sw	a6,8(a3)
    b55a:	d798                	sw	a4,40(a5)
    b55c:	431c                	lw	a5,0(a4)
    b55e:	0785                	addi	a5,a5,1
    b560:	c31c                	sw	a5,0(a4)
    b562:	c211                	beqz	a2,b566 <vTaskPlaceOnEventListRestricted+0x6c>
    b564:	557d                	li	a0,-1
    b566:	85b2                	mv	a1,a2
    b568:	f8eff0ef          	jal	ra,acf6 <prvAddCurrentTaskToDelayedList>
    b56c:	fcff406f          	j	53a <__riscv_restore_0>

0000b570 <xTaskRemoveFromEventList>:
    b570:	455c                	lw	a5,12(a0)
    b572:	47dc                	lw	a5,12(a5)
    b574:	e795                	bnez	a5,b5a0 <xTaskRemoveFromEventList+0x30>
    b576:	fa1f42ef          	jal	t0,516 <__riscv_save_0>
    b57a:	67a1                	lui	a5,0x8
    b57c:	80078793          	addi	a5,a5,-2048 # 7800 <sha512_compress+0x74a>
    b580:	30079073          	csrw	mstatus,a5
    b584:	00015637          	lui	a2,0x15
    b588:	6585                	lui	a1,0x1
    b58a:	00015537          	lui	a0,0x15
    b58e:	de460613          	addi	a2,a2,-540 # 14de4 <app_ver+0xc4>
    b592:	c8258593          	addi	a1,a1,-894 # c82 <fe_mul+0x1ee>
    b596:	d8450513          	addi	a0,a0,-636 # 14d84 <app_ver+0x64>
    b59a:	4df000ef          	jal	ra,c278 <iprintf>
    b59e:	a001                	j	b59e <xTaskRemoveFromEventList+0x2e>
    b5a0:	4fd0                	lw	a2,28(a5)
    b5a2:	5394                	lw	a3,32(a5)
    b5a4:	5798                	lw	a4,40(a5)
    b5a6:	01878593          	addi	a1,a5,24
    b5aa:	c614                	sw	a3,8(a2)
    b5ac:	c2d0                	sw	a2,4(a3)
    b5ae:	4350                	lw	a2,4(a4)
    b5b0:	00b61363          	bne	a2,a1,b5b6 <xTaskRemoveFromEventList+0x46>
    b5b4:	c354                	sw	a3,4(a4)
    b5b6:	4314                	lw	a3,0(a4)
    b5b8:	0207a423          	sw	zero,40(a5)
    b5bc:	16fd                	addi	a3,a3,-1
    b5be:	c314                	sw	a3,0(a4)
    b5c0:	20000737          	lui	a4,0x20000
    b5c4:	11072703          	lw	a4,272(a4) # 20000110 <uxSchedulerSuspended>
    b5c8:	57d4                	lw	a3,44(a5)
    b5ca:	ef25                	bnez	a4,b642 <xTaskRemoveFromEventList+0xd2>
    b5cc:	478c                	lw	a1,8(a5)
    b5ce:	47d0                	lw	a2,12(a5)
    b5d0:	4bd8                	lw	a4,20(a5)
    b5d2:	c590                	sw	a2,8(a1)
    b5d4:	47d0                	lw	a2,12(a5)
    b5d6:	4348                	lw	a0,4(a4)
    b5d8:	c24c                	sw	a1,4(a2)
    b5da:	00478593          	addi	a1,a5,4
    b5de:	00b51363          	bne	a0,a1,b5e4 <xTaskRemoveFromEventList+0x74>
    b5e2:	c350                	sw	a2,4(a4)
    b5e4:	4310                	lw	a2,0(a4)
    b5e6:	0007aa23          	sw	zero,20(a5)
    b5ea:	167d                	addi	a2,a2,-1
    b5ec:	c310                	sw	a2,0(a4)
    b5ee:	20000737          	lui	a4,0x20000
    b5f2:	11870713          	addi	a4,a4,280 # 20000118 <uxTopReadyPriority>
    b5f6:	4310                	lw	a2,0(a4)
    b5f8:	00d67363          	bgeu	a2,a3,b5fe <xTaskRemoveFromEventList+0x8e>
    b5fc:	c314                	sw	a3,0(a4)
    b5fe:	4751                	li	a4,20
    b600:	02e68633          	mul	a2,a3,a4
    b604:	20005737          	lui	a4,0x20005
    b608:	f7870713          	addi	a4,a4,-136 # 20004f78 <pxReadyTasksLists>
    b60c:	9732                	add	a4,a4,a2
    b60e:	4350                	lw	a2,4(a4)
    b610:	4608                	lw	a0,8(a2)
    b612:	c790                	sw	a2,8(a5)
    b614:	c7c8                	sw	a0,12(a5)
    b616:	4608                	lw	a0,8(a2)
    b618:	c14c                	sw	a1,4(a0)
    b61a:	c60c                	sw	a1,8(a2)
    b61c:	cbd8                	sw	a4,20(a5)
    b61e:	431c                	lw	a5,0(a4)
    b620:	4501                	li	a0,0
    b622:	0785                	addi	a5,a5,1
    b624:	c31c                	sw	a5,0(a4)
    b626:	200007b7          	lui	a5,0x20000
    b62a:	0fc7a783          	lw	a5,252(a5) # 200000fc <pxCurrentTCB>
    b62e:	57dc                	lw	a5,44(a5)
    b630:	00d7f863          	bgeu	a5,a3,b640 <xTaskRemoveFromEventList+0xd0>
    b634:	200007b7          	lui	a5,0x20000
    b638:	4705                	li	a4,1
    b63a:	12e7aa23          	sw	a4,308(a5) # 20000134 <xYieldPending>
    b63e:	4505                	li	a0,1
    b640:	8082                	ret
    b642:	20005737          	lui	a4,0x20005
    b646:	0cc70713          	addi	a4,a4,204 # 200050cc <xPendingReadyList>
    b64a:	4350                	lw	a2,4(a4)
    b64c:	4608                	lw	a0,8(a2)
    b64e:	cfd0                	sw	a2,28(a5)
    b650:	d388                	sw	a0,32(a5)
    b652:	4608                	lw	a0,8(a2)
    b654:	c14c                	sw	a1,4(a0)
    b656:	c60c                	sw	a1,8(a2)
    b658:	d798                	sw	a4,40(a5)
    b65a:	b7d1                	j	b61e <xTaskRemoveFromEventList+0xae>

0000b65c <vTaskInternalSetTimeOutState>:
    b65c:	200007b7          	lui	a5,0x20000
    b660:	1247a783          	lw	a5,292(a5) # 20000124 <xNumOfOverflows>
    b664:	c11c                	sw	a5,0(a0)
    b666:	200007b7          	lui	a5,0x20000
    b66a:	1307a783          	lw	a5,304(a5) # 20000130 <xTickCount>
    b66e:	c15c                	sw	a5,4(a0)
    b670:	8082                	ret

0000b672 <xTaskCheckForTimeOut>:
    b672:	ea5f42ef          	jal	t0,516 <__riscv_save_0>
    b676:	1141                	addi	sp,sp,-16
    b678:	e505                	bnez	a0,b6a0 <xTaskCheckForTimeOut+0x2e>
    b67a:	67a1                	lui	a5,0x8
    b67c:	80078793          	addi	a5,a5,-2048 # 7800 <sha512_compress+0x74a>
    b680:	30079073          	csrw	mstatus,a5
    b684:	00015637          	lui	a2,0x15
    b688:	6585                	lui	a1,0x1
    b68a:	00015537          	lui	a0,0x15
    b68e:	de460613          	addi	a2,a2,-540 # 14de4 <app_ver+0xc4>
    b692:	cfd58593          	addi	a1,a1,-771 # cfd <fe_mul+0x269>
    b696:	d8450513          	addi	a0,a0,-636 # 14d84 <app_ver+0x64>
    b69a:	3df000ef          	jal	ra,c278 <iprintf>
    b69e:	a001                	j	b69e <xTaskCheckForTimeOut+0x2c>
    b6a0:	e585                	bnez	a1,b6c8 <xTaskCheckForTimeOut+0x56>
    b6a2:	67a1                	lui	a5,0x8
    b6a4:	80078793          	addi	a5,a5,-2048 # 7800 <sha512_compress+0x74a>
    b6a8:	30079073          	csrw	mstatus,a5
    b6ac:	00015637          	lui	a2,0x15
    b6b0:	6585                	lui	a1,0x1
    b6b2:	00015537          	lui	a0,0x15
    b6b6:	de460613          	addi	a2,a2,-540 # 14de4 <app_ver+0xc4>
    b6ba:	cfe58593          	addi	a1,a1,-770 # cfe <fe_mul+0x26a>
    b6be:	d8450513          	addi	a0,a0,-636 # 14d84 <app_ver+0x64>
    b6c2:	3b7000ef          	jal	ra,c278 <iprintf>
    b6c6:	a001                	j	b6c6 <xTaskCheckForTimeOut+0x54>
    b6c8:	c62e                	sw	a1,12(sp)
    b6ca:	c42a                	sw	a0,8(sp)
    b6cc:	ddffe0ef          	jal	ra,a4aa <vPortEnterCritical>
    b6d0:	20000737          	lui	a4,0x20000
    b6d4:	200007b7          	lui	a5,0x20000
    b6d8:	0fc70713          	addi	a4,a4,252 # 200000fc <pxCurrentTCB>
    b6dc:	1307a683          	lw	a3,304(a5) # 20000130 <xTickCount>
    b6e0:	431c                	lw	a5,0(a4)
    b6e2:	4522                	lw	a0,8(sp)
    b6e4:	45b2                	lw	a1,12(sp)
    b6e6:	0517c783          	lbu	a5,81(a5)
    b6ea:	cb99                	beqz	a5,b700 <xTaskCheckForTimeOut+0x8e>
    b6ec:	431c                	lw	a5,0(a4)
    b6ee:	040788a3          	sb	zero,81(a5)
    b6f2:	4405                	li	s0,1
    b6f4:	dcdfe0ef          	jal	ra,a4c0 <vPortExitCritical>
    b6f8:	8522                	mv	a0,s0
    b6fa:	0141                	addi	sp,sp,16
    b6fc:	e3ff406f          	j	53a <__riscv_restore_0>
    b700:	419c                	lw	a5,0(a1)
    b702:	577d                	li	a4,-1
    b704:	4401                	li	s0,0
    b706:	fee787e3          	beq	a5,a4,b6f4 <xTaskCheckForTimeOut+0x82>
    b70a:	20000637          	lui	a2,0x20000
    b70e:	12462603          	lw	a2,292(a2) # 20000124 <xNumOfOverflows>
    b712:	00052803          	lw	a6,0(a0)
    b716:	4158                	lw	a4,4(a0)
    b718:	00c80763          	beq	a6,a2,b726 <xTaskCheckForTimeOut+0xb4>
    b71c:	00e6e563          	bltu	a3,a4,b726 <xTaskCheckForTimeOut+0xb4>
    b720:	0005a023          	sw	zero,0(a1)
    b724:	b7f9                	j	b6f2 <xTaskCheckForTimeOut+0x80>
    b726:	40e68633          	sub	a2,a3,a4
    b72a:	fef67be3          	bgeu	a2,a5,b720 <xTaskCheckForTimeOut+0xae>
    b72e:	8f95                	sub	a5,a5,a3
    b730:	97ba                	add	a5,a5,a4
    b732:	c19c                	sw	a5,0(a1)
    b734:	f29ff0ef          	jal	ra,b65c <vTaskInternalSetTimeOutState>
    b738:	4401                	li	s0,0
    b73a:	bf6d                	j	b6f4 <xTaskCheckForTimeOut+0x82>

0000b73c <vTaskMissedYield>:
    b73c:	200007b7          	lui	a5,0x20000
    b740:	4705                	li	a4,1
    b742:	12e7aa23          	sw	a4,308(a5) # 20000134 <xYieldPending>
    b746:	8082                	ret

0000b748 <xTaskGetSchedulerState>:
    b748:	200007b7          	lui	a5,0x20000
    b74c:	12c7a783          	lw	a5,300(a5) # 2000012c <xSchedulerRunning>
    b750:	4505                	li	a0,1
    b752:	cb81                	beqz	a5,b762 <xTaskGetSchedulerState+0x1a>
    b754:	200007b7          	lui	a5,0x20000
    b758:	1107a503          	lw	a0,272(a5) # 20000110 <uxSchedulerSuspended>
    b75c:	00153513          	seqz	a0,a0
    b760:	0506                	slli	a0,a0,0x1
    b762:	8082                	ret

0000b764 <xTaskPriorityDisinherit>:
    b764:	e511                	bnez	a0,b770 <xTaskPriorityDisinherit+0xc>
    b766:	4501                	li	a0,0
    b768:	8082                	ret
    b76a:	4501                	li	a0,0
    b76c:	dcff406f          	j	53a <__riscv_restore_0>
    b770:	da7f42ef          	jal	t0,516 <__riscv_save_0>
    b774:	200007b7          	lui	a5,0x20000
    b778:	0fc7a783          	lw	a5,252(a5) # 200000fc <pxCurrentTCB>
    b77c:	842a                	mv	s0,a0
    b77e:	02a78563          	beq	a5,a0,b7a8 <xTaskPriorityDisinherit+0x44>
    b782:	67a1                	lui	a5,0x8
    b784:	80078793          	addi	a5,a5,-2048 # 7800 <sha512_compress+0x74a>
    b788:	30079073          	csrw	mstatus,a5
    b78c:	00015637          	lui	a2,0x15
    b790:	6585                	lui	a1,0x1
    b792:	00015537          	lui	a0,0x15
    b796:	de460613          	addi	a2,a2,-540 # 14de4 <app_ver+0xc4>
    b79a:	04f58593          	addi	a1,a1,79 # 104f <fe_mul+0x5bb>
    b79e:	d8450513          	addi	a0,a0,-636 # 14d84 <app_ver+0x64>
    b7a2:	2d7000ef          	jal	ra,c278 <iprintf>
    b7a6:	a001                	j	b7a6 <xTaskPriorityDisinherit+0x42>
    b7a8:	47bc                	lw	a5,72(a5)
    b7aa:	e785                	bnez	a5,b7d2 <xTaskPriorityDisinherit+0x6e>
    b7ac:	67a1                	lui	a5,0x8
    b7ae:	80078793          	addi	a5,a5,-2048 # 7800 <sha512_compress+0x74a>
    b7b2:	30079073          	csrw	mstatus,a5
    b7b6:	00015637          	lui	a2,0x15
    b7ba:	6585                	lui	a1,0x1
    b7bc:	00015537          	lui	a0,0x15
    b7c0:	de460613          	addi	a2,a2,-540 # 14de4 <app_ver+0xc4>
    b7c4:	05058593          	addi	a1,a1,80 # 1050 <fe_mul+0x5bc>
    b7c8:	d8450513          	addi	a0,a0,-636 # 14d84 <app_ver+0x64>
    b7cc:	2ad000ef          	jal	ra,c278 <iprintf>
    b7d0:	a001                	j	b7d0 <xTaskPriorityDisinherit+0x6c>
    b7d2:	5554                	lw	a3,44(a0)
    b7d4:	4178                	lw	a4,68(a0)
    b7d6:	17fd                	addi	a5,a5,-1
    b7d8:	c53c                	sw	a5,72(a0)
    b7da:	f8e688e3          	beq	a3,a4,b76a <xTaskPriorityDisinherit+0x6>
    b7de:	f7d1                	bnez	a5,b76a <xTaskPriorityDisinherit+0x6>
    b7e0:	00450493          	addi	s1,a0,4
    b7e4:	8526                	mv	a0,s1
    b7e6:	d77fe0ef          	jal	ra,a55c <uxListRemove>
    b7ea:	407c                	lw	a5,68(s0)
    b7ec:	473d                	li	a4,15
    b7ee:	8f1d                	sub	a4,a4,a5
    b7f0:	cc18                	sw	a4,24(s0)
    b7f2:	20000737          	lui	a4,0x20000
    b7f6:	11870713          	addi	a4,a4,280 # 20000118 <uxTopReadyPriority>
    b7fa:	4314                	lw	a3,0(a4)
    b7fc:	d45c                	sw	a5,44(s0)
    b7fe:	00f6f363          	bgeu	a3,a5,b804 <xTaskPriorityDisinherit+0xa0>
    b802:	c31c                	sw	a5,0(a4)
    b804:	4751                	li	a4,20
    b806:	02e78733          	mul	a4,a5,a4
    b80a:	200057b7          	lui	a5,0x20005
    b80e:	f7878793          	addi	a5,a5,-136 # 20004f78 <pxReadyTasksLists>
    b812:	4505                	li	a0,1
    b814:	97ba                	add	a5,a5,a4
    b816:	43d8                	lw	a4,4(a5)
    b818:	4714                	lw	a3,8(a4)
    b81a:	c418                	sw	a4,8(s0)
    b81c:	c454                	sw	a3,12(s0)
    b81e:	4714                	lw	a3,8(a4)
    b820:	c2c4                	sw	s1,4(a3)
    b822:	c704                	sw	s1,8(a4)
    b824:	4398                	lw	a4,0(a5)
    b826:	c85c                	sw	a5,20(s0)
    b828:	0705                	addi	a4,a4,1
    b82a:	c398                	sw	a4,0(a5)
    b82c:	b781                	j	b76c <xTaskPriorityDisinherit+0x8>

0000b82e <prvCheckForValidListAndQueue>:
    b82e:	ce9f42ef          	jal	t0,516 <__riscv_save_0>
    b832:	20000437          	lui	s0,0x20000
    b836:	c75fe0ef          	jal	ra,a4aa <vPortEnterCritical>
    b83a:	14440413          	addi	s0,s0,324 # 20000144 <xTimerQueue>
    b83e:	401c                	lw	a5,0(s0)
    b840:	e7b1                	bnez	a5,b88c <prvCheckForValidListAndQueue+0x5e>
    b842:	20005537          	lui	a0,0x20005
    b846:	10850913          	addi	s2,a0,264 # 20005108 <xActiveTimerList1>
    b84a:	10850513          	addi	a0,a0,264
    b84e:	cc7fe0ef          	jal	ra,a514 <vListInitialise>
    b852:	20005537          	lui	a0,0x20005
    b856:	11c50493          	addi	s1,a0,284 # 2000511c <xActiveTimerList2>
    b85a:	11c50513          	addi	a0,a0,284
    b85e:	cb7fe0ef          	jal	ra,a514 <vListInitialise>
    b862:	200007b7          	lui	a5,0x20000
    b866:	1327ac23          	sw	s2,312(a5) # 20000138 <pxCurrentTimerList>
    b86a:	4601                	li	a2,0
    b86c:	200007b7          	lui	a5,0x20000
    b870:	45c1                	li	a1,16
    b872:	4511                	li	a0,4
    b874:	1297ae23          	sw	s1,316(a5) # 2000013c <pxOverflowTimerList>
    b878:	ef7fe0ef          	jal	ra,a76e <xQueueGenericCreate>
    b87c:	c008                	sw	a0,0(s0)
    b87e:	c519                	beqz	a0,b88c <prvCheckForValidListAndQueue+0x5e>
    b880:	000155b7          	lui	a1,0x15
    b884:	e2458593          	addi	a1,a1,-476 # 14e24 <app_ver+0x104>
    b888:	b82ff0ef          	jal	ra,ac0a <vQueueAddToRegistry>
    b88c:	c35fe0ef          	jal	ra,a4c0 <vPortExitCritical>
    b890:	cabf406f          	j	53a <__riscv_restore_0>

0000b894 <prvInsertTimerInActiveList>:
    b894:	c83f42ef          	jal	t0,516 <__riscv_save_0>
    b898:	c14c                	sw	a1,4(a0)
    b89a:	c908                	sw	a0,16(a0)
    b89c:	87aa                	mv	a5,a0
    b89e:	02b66263          	bltu	a2,a1,b8c2 <prvInsertTimerInActiveList+0x2e>
    b8a2:	4d18                	lw	a4,24(a0)
    b8a4:	8e15                	sub	a2,a2,a3
    b8a6:	4505                	li	a0,1
    b8a8:	00e67b63          	bgeu	a2,a4,b8be <prvInsertTimerInActiveList+0x2a>
    b8ac:	00478593          	addi	a1,a5,4
    b8b0:	200007b7          	lui	a5,0x20000
    b8b4:	13c7a503          	lw	a0,316(a5) # 2000013c <pxOverflowTimerList>
    b8b8:	c77fe0ef          	jal	ra,a52e <vListInsert>
    b8bc:	4501                	li	a0,0
    b8be:	c7df406f          	j	53a <__riscv_restore_0>
    b8c2:	00d67563          	bgeu	a2,a3,b8cc <prvInsertTimerInActiveList+0x38>
    b8c6:	4505                	li	a0,1
    b8c8:	fed5fbe3          	bgeu	a1,a3,b8be <prvInsertTimerInActiveList+0x2a>
    b8cc:	00478593          	addi	a1,a5,4
    b8d0:	200007b7          	lui	a5,0x20000
    b8d4:	1387a503          	lw	a0,312(a5) # 20000138 <pxCurrentTimerList>
    b8d8:	b7c5                	j	b8b8 <prvInsertTimerInActiveList+0x24>

0000b8da <prvReloadTimer>:
    b8da:	c3df42ef          	jal	t0,516 <__riscv_save_0>
    b8de:	842a                	mv	s0,a0
    b8e0:	84ae                	mv	s1,a1
    b8e2:	8932                	mv	s2,a2
    b8e4:	4c0c                	lw	a1,24(s0)
    b8e6:	86a6                	mv	a3,s1
    b8e8:	864a                	mv	a2,s2
    b8ea:	95a6                	add	a1,a1,s1
    b8ec:	8522                	mv	a0,s0
    b8ee:	fa7ff0ef          	jal	ra,b894 <prvInsertTimerInActiveList>
    b8f2:	e119                	bnez	a0,b8f8 <prvReloadTimer+0x1e>
    b8f4:	c47f406f          	j	53a <__riscv_restore_0>
    b8f8:	4c1c                	lw	a5,24(s0)
    b8fa:	8522                	mv	a0,s0
    b8fc:	94be                	add	s1,s1,a5
    b8fe:	501c                	lw	a5,32(s0)
    b900:	9782                	jalr	a5
    b902:	b7cd                	j	b8e4 <prvReloadTimer+0xa>

0000b904 <prvProcessExpiredTimer>:
    b904:	c13f42ef          	jal	t0,516 <__riscv_save_0>
    b908:	200007b7          	lui	a5,0x20000
    b90c:	1387a783          	lw	a5,312(a5) # 20000138 <pxCurrentTimerList>
    b910:	1141                	addi	sp,sp,-16
    b912:	84aa                	mv	s1,a0
    b914:	47dc                	lw	a5,12(a5)
    b916:	c62e                	sw	a1,12(sp)
    b918:	47c0                	lw	s0,12(a5)
    b91a:	00440513          	addi	a0,s0,4
    b91e:	c3ffe0ef          	jal	ra,a55c <uxListRemove>
    b922:	02444783          	lbu	a5,36(s0)
    b926:	4632                	lw	a2,12(sp)
    b928:	0047f713          	andi	a4,a5,4
    b92c:	cb19                	beqz	a4,b942 <prvProcessExpiredTimer+0x3e>
    b92e:	85a6                	mv	a1,s1
    b930:	8522                	mv	a0,s0
    b932:	fa9ff0ef          	jal	ra,b8da <prvReloadTimer>
    b936:	501c                	lw	a5,32(s0)
    b938:	8522                	mv	a0,s0
    b93a:	9782                	jalr	a5
    b93c:	0141                	addi	sp,sp,16
    b93e:	bfdf406f          	j	53a <__riscv_restore_0>
    b942:	9bf9                	andi	a5,a5,-2
    b944:	02f40223          	sb	a5,36(s0)
    b948:	b7fd                	j	b936 <prvProcessExpiredTimer+0x32>

0000b94a <prvSwitchTimerLists>:
    b94a:	bcdf42ef          	jal	t0,516 <__riscv_save_0>
    b94e:	20000437          	lui	s0,0x20000
    b952:	13840693          	addi	a3,s0,312 # 20000138 <pxCurrentTimerList>
    b956:	4298                	lw	a4,0(a3)
    b958:	431c                	lw	a5,0(a4)
    b95a:	eb91                	bnez	a5,b96e <prvSwitchTimerLists+0x24>
    b95c:	200007b7          	lui	a5,0x20000
    b960:	13c78793          	addi	a5,a5,316 # 2000013c <pxOverflowTimerList>
    b964:	4390                	lw	a2,0(a5)
    b966:	c398                	sw	a4,0(a5)
    b968:	c290                	sw	a2,0(a3)
    b96a:	bd1f406f          	j	53a <__riscv_restore_0>
    b96e:	475c                	lw	a5,12(a4)
    b970:	55fd                	li	a1,-1
    b972:	4388                	lw	a0,0(a5)
    b974:	f91ff0ef          	jal	ra,b904 <prvProcessExpiredTimer>
    b978:	bfe9                	j	b952 <prvSwitchTimerLists+0x8>

0000b97a <prvTimerTask>:
    b97a:	b75f42ef          	jal	t0,4ee <__riscv_save_10>
    b97e:	6955                	lui	s2,0x15
    b980:	1141                	addi	sp,sp,-16
    b982:	20000ab7          	lui	s5,0x20000
    b986:	200009b7          	lui	s3,0x20000
    b98a:	20000b37          	lui	s6,0x20000
    b98e:	20000bb7          	lui	s7,0x20000
    b992:	e0090913          	addi	s2,s2,-512 # 14e00 <app_ver+0xe0>
    b996:	138aa783          	lw	a5,312(s5) # 20000138 <pxCurrentTimerList>
    b99a:	4398                	lw	a4,0(a5)
    b99c:	cb29                	beqz	a4,b9ee <prvTimerTask+0x74>
    b99e:	47dc                	lw	a5,12(a5)
    b9a0:	4c81                	li	s9,0
    b9a2:	0007ac03          	lw	s8,0(a5)
    b9a6:	edeff0ef          	jal	ra,b084 <vTaskSuspendAll>
    b9aa:	eeaff0ef          	jal	ra,b094 <xTaskGetTickCount>
    b9ae:	1409a783          	lw	a5,320(s3) # 20000140 <xLastTime.6326>
    b9b2:	842a                	mv	s0,a0
    b9b4:	14098493          	addi	s1,s3,320
    b9b8:	144b0a13          	addi	s4,s6,324 # 20000144 <xTimerQueue>
    b9bc:	02f56c63          	bltu	a0,a5,b9f4 <prvTimerTask+0x7a>
    b9c0:	c088                	sw	a0,0(s1)
    b9c2:	040c8063          	beqz	s9,ba02 <prvTimerTask+0x88>
    b9c6:	13cba783          	lw	a5,316(s7) # 2000013c <pxOverflowTimerList>
    b9ca:	4390                	lw	a2,0(a5)
    b9cc:	00163613          	seqz	a2,a2
    b9d0:	000a2503          	lw	a0,0(s4)
    b9d4:	408c05b3          	sub	a1,s8,s0
    b9d8:	a9eff0ef          	jal	ra,ac76 <vQueueWaitForMessageRestricted>
    b9dc:	86fff0ef          	jal	ra,b24a <xTaskResumeAll>
    b9e0:	ed19                	bnez	a0,b9fe <prvTimerTask+0x84>
    b9e2:	e000e7b7          	lui	a5,0xe000e
    b9e6:	6711                	lui	a4,0x4
    b9e8:	20e7a023          	sw	a4,512(a5) # e000e200 <__freertos_irq_stack_top+0xc0006200>
    b9ec:	a809                	j	b9fe <prvTimerTask+0x84>
    b9ee:	4c85                	li	s9,1
    b9f0:	4c01                	li	s8,0
    b9f2:	bf55                	j	b9a6 <prvTimerTask+0x2c>
    b9f4:	f57ff0ef          	jal	ra,b94a <prvSwitchTimerLists>
    b9f8:	c080                	sw	s0,0(s1)
    b9fa:	851ff0ef          	jal	ra,b24a <xTaskResumeAll>
    b9fe:	4c21                	li	s8,8
    ba00:	a00d                	j	ba22 <prvTimerTask+0xa8>
    ba02:	4601                	li	a2,0
    ba04:	fd8566e3          	bltu	a0,s8,b9d0 <prvTimerTask+0x56>
    ba08:	843ff0ef          	jal	ra,b24a <xTaskResumeAll>
    ba0c:	85a2                	mv	a1,s0
    ba0e:	8562                	mv	a0,s8
    ba10:	ef5ff0ef          	jal	ra,b904 <prvProcessExpiredTimer>
    ba14:	b7ed                	j	b9fe <prvTimerTask+0x84>
    ba16:	4792                	lw	a5,4(sp)
    ba18:	45b2                	lw	a1,12(sp)
    ba1a:	9782                	jalr	a5
    ba1c:	4782                	lw	a5,0(sp)
    ba1e:	0007dd63          	bgez	a5,ba38 <prvTimerTask+0xbe>
    ba22:	000a2503          	lw	a0,0(s4)
    ba26:	4601                	li	a2,0
    ba28:	858a                	mv	a1,sp
    ba2a:	882ff0ef          	jal	ra,aaac <xQueueReceive>
    ba2e:	d525                	beqz	a0,b996 <prvTimerTask+0x1c>
    ba30:	4782                	lw	a5,0(sp)
    ba32:	4522                	lw	a0,8(sp)
    ba34:	fe07c1e3          	bltz	a5,ba16 <prvTimerTask+0x9c>
    ba38:	4422                	lw	s0,8(sp)
    ba3a:	485c                	lw	a5,20(s0)
    ba3c:	e39d                	bnez	a5,ba62 <prvTimerTask+0xe8>
    ba3e:	e56ff0ef          	jal	ra,b094 <xTaskGetTickCount>
    ba42:	409c                	lw	a5,0(s1)
    ba44:	8caa                	mv	s9,a0
    ba46:	00f57463          	bgeu	a0,a5,ba4e <prvTimerTask+0xd4>
    ba4a:	f01ff0ef          	jal	ra,b94a <prvSwitchTimerLists>
    ba4e:	4782                	lw	a5,0(sp)
    ba50:	0194a023          	sw	s9,0(s1)
    ba54:	17fd                	addi	a5,a5,-1
    ba56:	fcfc66e3          	bltu	s8,a5,ba22 <prvTimerTask+0xa8>
    ba5a:	078a                	slli	a5,a5,0x2
    ba5c:	97ca                	add	a5,a5,s2
    ba5e:	439c                	lw	a5,0(a5)
    ba60:	8782                	jr	a5
    ba62:	00440513          	addi	a0,s0,4
    ba66:	af7fe0ef          	jal	ra,a55c <uxListRemove>
    ba6a:	bfd1                	j	ba3e <prvTimerTask+0xc4>
    ba6c:	02444783          	lbu	a5,36(s0)
    ba70:	4c0c                	lw	a1,24(s0)
    ba72:	4692                	lw	a3,4(sp)
    ba74:	0017e793          	ori	a5,a5,1
    ba78:	02f40223          	sb	a5,36(s0)
    ba7c:	8666                	mv	a2,s9
    ba7e:	95b6                	add	a1,a1,a3
    ba80:	8522                	mv	a0,s0
    ba82:	e13ff0ef          	jal	ra,b894 <prvInsertTimerInActiveList>
    ba86:	dd51                	beqz	a0,ba22 <prvTimerTask+0xa8>
    ba88:	02444783          	lbu	a5,36(s0)
    ba8c:	0047f713          	andi	a4,a5,4
    ba90:	cf01                	beqz	a4,baa8 <prvTimerTask+0x12e>
    ba92:	4c1c                	lw	a5,24(s0)
    ba94:	4592                	lw	a1,4(sp)
    ba96:	8666                	mv	a2,s9
    ba98:	8522                	mv	a0,s0
    ba9a:	95be                	add	a1,a1,a5
    ba9c:	e3fff0ef          	jal	ra,b8da <prvReloadTimer>
    baa0:	501c                	lw	a5,32(s0)
    baa2:	8522                	mv	a0,s0
    baa4:	9782                	jalr	a5
    baa6:	bfb5                	j	ba22 <prvTimerTask+0xa8>
    baa8:	9bf9                	andi	a5,a5,-2
    baaa:	02f40223          	sb	a5,36(s0)
    baae:	bfcd                	j	baa0 <prvTimerTask+0x126>
    bab0:	02444783          	lbu	a5,36(s0)
    bab4:	9bf9                	andi	a5,a5,-2
    bab6:	02f40223          	sb	a5,36(s0)
    baba:	b7a5                	j	ba22 <prvTimerTask+0xa8>
    babc:	02444783          	lbu	a5,36(s0)
    bac0:	4592                	lw	a1,4(sp)
    bac2:	0017e793          	ori	a5,a5,1
    bac6:	02f40223          	sb	a5,36(s0)
    baca:	cc0c                	sw	a1,24(s0)
    bacc:	e19d                	bnez	a1,baf2 <prvTimerTask+0x178>
    bace:	67a1                	lui	a5,0x8
    bad0:	80078793          	addi	a5,a5,-2048 # 7800 <sha512_compress+0x74a>
    bad4:	30079073          	csrw	mstatus,a5
    bad8:	00015637          	lui	a2,0x15
    badc:	00015537          	lui	a0,0x15
    bae0:	e2c60613          	addi	a2,a2,-468 # 14e2c <app_ver+0x10c>
    bae4:	35900593          	li	a1,857
    bae8:	d8450513          	addi	a0,a0,-636 # 14d84 <app_ver+0x64>
    baec:	78c000ef          	jal	ra,c278 <iprintf>
    baf0:	a001                	j	baf0 <prvTimerTask+0x176>
    baf2:	86e6                	mv	a3,s9
    baf4:	8666                	mv	a2,s9
    baf6:	95e6                	add	a1,a1,s9
    baf8:	8522                	mv	a0,s0
    bafa:	d9bff0ef          	jal	ra,b894 <prvInsertTimerInActiveList>
    bafe:	b715                	j	ba22 <prvTimerTask+0xa8>
    bb00:	02444783          	lbu	a5,36(s0)
    bb04:	0027f713          	andi	a4,a5,2
    bb08:	f755                	bnez	a4,bab4 <prvTimerTask+0x13a>
    bb0a:	8522                	mv	a0,s0
    bb0c:	ff0fe0ef          	jal	ra,a2fc <vPortFree>
    bb10:	bf09                	j	ba22 <prvTimerTask+0xa8>

0000bb12 <xTimerCreateTimerTask>:
    bb12:	a05f42ef          	jal	t0,516 <__riscv_save_0>
    bb16:	d19ff0ef          	jal	ra,b82e <prvCheckForValidListAndQueue>
    bb1a:	200007b7          	lui	a5,0x20000
    bb1e:	1447a783          	lw	a5,324(a5) # 20000144 <xTimerQueue>
    bb22:	e395                	bnez	a5,bb46 <xTimerCreateTimerTask+0x34>
    bb24:	67a1                	lui	a5,0x8
    bb26:	80078793          	addi	a5,a5,-2048 # 7800 <sha512_compress+0x74a>
    bb2a:	30079073          	csrw	mstatus,a5
    bb2e:	00015637          	lui	a2,0x15
    bb32:	00015537          	lui	a0,0x15
    bb36:	e2c60613          	addi	a2,a2,-468 # 14e2c <app_ver+0x10c>
    bb3a:	11900593          	li	a1,281
    bb3e:	d8450513          	addi	a0,a0,-636 # 14d84 <app_ver+0x64>
    bb42:	2f1d                	jal	c278 <iprintf>
    bb44:	a001                	j	bb44 <xTimerCreateTimerTask+0x32>
    bb46:	200007b7          	lui	a5,0x20000
    bb4a:	000155b7          	lui	a1,0x15
    bb4e:	0000c537          	lui	a0,0xc
    bb52:	14878793          	addi	a5,a5,328 # 20000148 <xTimerTaskHandle>
    bb56:	4739                	li	a4,14
    bb58:	4681                	li	a3,0
    bb5a:	10000613          	li	a2,256
    bb5e:	e4458593          	addi	a1,a1,-444 # 14e44 <app_ver+0x124>
    bb62:	97a50513          	addi	a0,a0,-1670 # b97a <prvTimerTask>
    bb66:	a88ff0ef          	jal	ra,adee <xTaskCreate>
    bb6a:	dd4d                	beqz	a0,bb24 <xTimerCreateTimerTask+0x12>
    bb6c:	9cff406f          	j	53a <__riscv_restore_0>

0000bb70 <__sflush_r>:
    bb70:	25de                	lhu	a5,12(a1)
    bb72:	1101                	addi	sp,sp,-32
    bb74:	cc22                	sw	s0,24(sp)
    bb76:	ca26                	sw	s1,20(sp)
    bb78:	ce06                	sw	ra,28(sp)
    bb7a:	c84a                	sw	s2,16(sp)
    bb7c:	c64e                	sw	s3,12(sp)
    bb7e:	0087f713          	andi	a4,a5,8
    bb82:	84aa                	mv	s1,a0
    bb84:	842e                	mv	s0,a1
    bb86:	eb79                	bnez	a4,bc5c <__sflush_r+0xec>
    bb88:	41d8                	lw	a4,4(a1)
    bb8a:	00e04d63          	bgtz	a4,bba4 <__sflush_r+0x34>
    bb8e:	41b8                	lw	a4,64(a1)
    bb90:	00e04a63          	bgtz	a4,bba4 <__sflush_r+0x34>
    bb94:	4501                	li	a0,0
    bb96:	40f2                	lw	ra,28(sp)
    bb98:	4462                	lw	s0,24(sp)
    bb9a:	44d2                	lw	s1,20(sp)
    bb9c:	4942                	lw	s2,16(sp)
    bb9e:	49b2                	lw	s3,12(sp)
    bba0:	6105                	addi	sp,sp,32
    bba2:	8082                	ret
    bba4:	5458                	lw	a4,44(s0)
    bba6:	d77d                	beqz	a4,bb94 <__sflush_r+0x24>
    bba8:	0004a903          	lw	s2,0(s1)
    bbac:	01379693          	slli	a3,a5,0x13
    bbb0:	0004a023          	sw	zero,0(s1)
    bbb4:	0606db63          	bgez	a3,bc2a <__sflush_r+0xba>
    bbb8:	4870                	lw	a2,84(s0)
    bbba:	245e                	lhu	a5,12(s0)
    bbbc:	8b91                	andi	a5,a5,4
    bbbe:	c799                	beqz	a5,bbcc <__sflush_r+0x5c>
    bbc0:	405c                	lw	a5,4(s0)
    bbc2:	8e1d                	sub	a2,a2,a5
    bbc4:	585c                	lw	a5,52(s0)
    bbc6:	c399                	beqz	a5,bbcc <__sflush_r+0x5c>
    bbc8:	403c                	lw	a5,64(s0)
    bbca:	8e1d                	sub	a2,a2,a5
    bbcc:	545c                	lw	a5,44(s0)
    bbce:	500c                	lw	a1,32(s0)
    bbd0:	4681                	li	a3,0
    bbd2:	8526                	mv	a0,s1
    bbd4:	9782                	jalr	a5
    bbd6:	57fd                	li	a5,-1
    bbd8:	245a                	lhu	a4,12(s0)
    bbda:	00f51d63          	bne	a0,a5,bbf4 <__sflush_r+0x84>
    bbde:	4094                	lw	a3,0(s1)
    bbe0:	47f5                	li	a5,29
    bbe2:	06d7e863          	bltu	a5,a3,bc52 <__sflush_r+0xe2>
    bbe6:	204007b7          	lui	a5,0x20400
    bbea:	0785                	addi	a5,a5,1
    bbec:	00d7d7b3          	srl	a5,a5,a3
    bbf0:	8b85                	andi	a5,a5,1
    bbf2:	c3a5                	beqz	a5,bc52 <__sflush_r+0xe2>
    bbf4:	481c                	lw	a5,16(s0)
    bbf6:	00042223          	sw	zero,4(s0)
    bbfa:	c01c                	sw	a5,0(s0)
    bbfc:	01371793          	slli	a5,a4,0x13
    bc00:	0007d863          	bgez	a5,bc10 <__sflush_r+0xa0>
    bc04:	57fd                	li	a5,-1
    bc06:	00f51463          	bne	a0,a5,bc0e <__sflush_r+0x9e>
    bc0a:	409c                	lw	a5,0(s1)
    bc0c:	e391                	bnez	a5,bc10 <__sflush_r+0xa0>
    bc0e:	c868                	sw	a0,84(s0)
    bc10:	584c                	lw	a1,52(s0)
    bc12:	0124a023          	sw	s2,0(s1)
    bc16:	ddbd                	beqz	a1,bb94 <__sflush_r+0x24>
    bc18:	04440793          	addi	a5,s0,68
    bc1c:	00f58463          	beq	a1,a5,bc24 <__sflush_r+0xb4>
    bc20:	8526                	mv	a0,s1
    bc22:	21f1                	jal	c0ee <_free_r>
    bc24:	02042a23          	sw	zero,52(s0)
    bc28:	b7b5                	j	bb94 <__sflush_r+0x24>
    bc2a:	500c                	lw	a1,32(s0)
    bc2c:	4601                	li	a2,0
    bc2e:	4685                	li	a3,1
    bc30:	8526                	mv	a0,s1
    bc32:	9702                	jalr	a4
    bc34:	57fd                	li	a5,-1
    bc36:	862a                	mv	a2,a0
    bc38:	f8f511e3          	bne	a0,a5,bbba <__sflush_r+0x4a>
    bc3c:	409c                	lw	a5,0(s1)
    bc3e:	dfb5                	beqz	a5,bbba <__sflush_r+0x4a>
    bc40:	4775                	li	a4,29
    bc42:	00e78563          	beq	a5,a4,bc4c <__sflush_r+0xdc>
    bc46:	4759                	li	a4,22
    bc48:	04e79363          	bne	a5,a4,bc8e <__sflush_r+0x11e>
    bc4c:	0124a023          	sw	s2,0(s1)
    bc50:	b791                	j	bb94 <__sflush_r+0x24>
    bc52:	04076713          	ori	a4,a4,64
    bc56:	a45a                	sh	a4,12(s0)
    bc58:	557d                	li	a0,-1
    bc5a:	bf35                	j	bb96 <__sflush_r+0x26>
    bc5c:	0105a983          	lw	s3,16(a1)
    bc60:	f2098ae3          	beqz	s3,bb94 <__sflush_r+0x24>
    bc64:	0005a903          	lw	s2,0(a1)
    bc68:	8b8d                	andi	a5,a5,3
    bc6a:	0135a023          	sw	s3,0(a1)
    bc6e:	41390933          	sub	s2,s2,s3
    bc72:	4701                	li	a4,0
    bc74:	e391                	bnez	a5,bc78 <__sflush_r+0x108>
    bc76:	49d8                	lw	a4,20(a1)
    bc78:	c418                	sw	a4,8(s0)
    bc7a:	f1205de3          	blez	s2,bb94 <__sflush_r+0x24>
    bc7e:	541c                	lw	a5,40(s0)
    bc80:	500c                	lw	a1,32(s0)
    bc82:	86ca                	mv	a3,s2
    bc84:	864e                	mv	a2,s3
    bc86:	8526                	mv	a0,s1
    bc88:	9782                	jalr	a5
    bc8a:	00a04763          	bgtz	a0,bc98 <__sflush_r+0x128>
    bc8e:	245e                	lhu	a5,12(s0)
    bc90:	0407e793          	ori	a5,a5,64
    bc94:	a45e                	sh	a5,12(s0)
    bc96:	b7c9                	j	bc58 <__sflush_r+0xe8>
    bc98:	99aa                	add	s3,s3,a0
    bc9a:	40a90933          	sub	s2,s2,a0
    bc9e:	bff1                	j	bc7a <__sflush_r+0x10a>

0000bca0 <_fflush_r>:
    bca0:	499c                	lw	a5,16(a1)
    bca2:	c3a5                	beqz	a5,bd02 <_fflush_r+0x62>
    bca4:	1101                	addi	sp,sp,-32
    bca6:	cc22                	sw	s0,24(sp)
    bca8:	ce06                	sw	ra,28(sp)
    bcaa:	842a                	mv	s0,a0
    bcac:	c511                	beqz	a0,bcb8 <_fflush_r+0x18>
    bcae:	4d1c                	lw	a5,24(a0)
    bcb0:	e781                	bnez	a5,bcb8 <_fflush_r+0x18>
    bcb2:	c62e                	sw	a1,12(sp)
    bcb4:	2221                	jal	bdbc <__sinit>
    bcb6:	45b2                	lw	a1,12(sp)
    bcb8:	00009797          	auipc	a5,0x9
    bcbc:	1b478793          	addi	a5,a5,436 # 14e6c <__sf_fake_stdin>
    bcc0:	00f59c63          	bne	a1,a5,bcd8 <_fflush_r+0x38>
    bcc4:	404c                	lw	a1,4(s0)
    bcc6:	00c59783          	lh	a5,12(a1)
    bcca:	c79d                	beqz	a5,bcf8 <_fflush_r+0x58>
    bccc:	8522                	mv	a0,s0
    bcce:	4462                	lw	s0,24(sp)
    bcd0:	40f2                	lw	ra,28(sp)
    bcd2:	6105                	addi	sp,sp,32
    bcd4:	e9dff06f          	j	bb70 <__sflush_r>
    bcd8:	00009797          	auipc	a5,0x9
    bcdc:	1b478793          	addi	a5,a5,436 # 14e8c <__sf_fake_stdout>
    bce0:	00f59463          	bne	a1,a5,bce8 <_fflush_r+0x48>
    bce4:	440c                	lw	a1,8(s0)
    bce6:	b7c5                	j	bcc6 <_fflush_r+0x26>
    bce8:	00009797          	auipc	a5,0x9
    bcec:	16478793          	addi	a5,a5,356 # 14e4c <__sf_fake_stderr>
    bcf0:	fcf59be3          	bne	a1,a5,bcc6 <_fflush_r+0x26>
    bcf4:	444c                	lw	a1,12(s0)
    bcf6:	bfc1                	j	bcc6 <_fflush_r+0x26>
    bcf8:	40f2                	lw	ra,28(sp)
    bcfa:	4462                	lw	s0,24(sp)
    bcfc:	4501                	li	a0,0
    bcfe:	6105                	addi	sp,sp,32
    bd00:	8082                	ret
    bd02:	4501                	li	a0,0
    bd04:	8082                	ret

0000bd06 <std>:
    bd06:	1141                	addi	sp,sp,-16
    bd08:	c422                	sw	s0,8(sp)
    bd0a:	c606                	sw	ra,12(sp)
    bd0c:	842a                	mv	s0,a0
    bd0e:	a54e                	sh	a1,12(a0)
    bd10:	a572                	sh	a2,14(a0)
    bd12:	00052023          	sw	zero,0(a0)
    bd16:	00052223          	sw	zero,4(a0)
    bd1a:	00052423          	sw	zero,8(a0)
    bd1e:	06052223          	sw	zero,100(a0)
    bd22:	00052823          	sw	zero,16(a0)
    bd26:	00052a23          	sw	zero,20(a0)
    bd2a:	00052c23          	sw	zero,24(a0)
    bd2e:	4621                	li	a2,8
    bd30:	4581                	li	a1,0
    bd32:	05c50513          	addi	a0,a0,92
    bd36:	811f40ef          	jal	ra,546 <memset>
    bd3a:	00000797          	auipc	a5,0x0
    bd3e:	5b078793          	addi	a5,a5,1456 # c2ea <__sread>
    bd42:	d05c                	sw	a5,36(s0)
    bd44:	00000797          	auipc	a5,0x0
    bd48:	5d478793          	addi	a5,a5,1492 # c318 <__swrite>
    bd4c:	d41c                	sw	a5,40(s0)
    bd4e:	00000797          	auipc	a5,0x0
    bd52:	61278793          	addi	a5,a5,1554 # c360 <__sseek>
    bd56:	d45c                	sw	a5,44(s0)
    bd58:	00000797          	auipc	a5,0x0
    bd5c:	63878793          	addi	a5,a5,1592 # c390 <__sclose>
    bd60:	d000                	sw	s0,32(s0)
    bd62:	d81c                	sw	a5,48(s0)
    bd64:	40b2                	lw	ra,12(sp)
    bd66:	4422                	lw	s0,8(sp)
    bd68:	0141                	addi	sp,sp,16
    bd6a:	8082                	ret

0000bd6c <_cleanup_r>:
    bd6c:	00000597          	auipc	a1,0x0
    bd70:	f3458593          	addi	a1,a1,-204 # bca0 <_fflush_r>
    bd74:	aa91                	j	bec8 <_fwalk_reent>

0000bd76 <__sfmoreglue>:
    bd76:	1141                	addi	sp,sp,-16
    bd78:	c226                	sw	s1,4(sp)
    bd7a:	06800613          	li	a2,104
    bd7e:	fff58493          	addi	s1,a1,-1
    bd82:	02c484b3          	mul	s1,s1,a2
    bd86:	c04a                	sw	s2,0(sp)
    bd88:	892e                	mv	s2,a1
    bd8a:	c422                	sw	s0,8(sp)
    bd8c:	c606                	sw	ra,12(sp)
    bd8e:	07448593          	addi	a1,s1,116
    bd92:	2121                	jal	c19a <_malloc_r>
    bd94:	842a                	mv	s0,a0
    bd96:	cd01                	beqz	a0,bdae <__sfmoreglue+0x38>
    bd98:	00052023          	sw	zero,0(a0)
    bd9c:	01252223          	sw	s2,4(a0)
    bda0:	0531                	addi	a0,a0,12
    bda2:	c408                	sw	a0,8(s0)
    bda4:	06848613          	addi	a2,s1,104
    bda8:	4581                	li	a1,0
    bdaa:	f9cf40ef          	jal	ra,546 <memset>
    bdae:	8522                	mv	a0,s0
    bdb0:	40b2                	lw	ra,12(sp)
    bdb2:	4422                	lw	s0,8(sp)
    bdb4:	4492                	lw	s1,4(sp)
    bdb6:	4902                	lw	s2,0(sp)
    bdb8:	0141                	addi	sp,sp,16
    bdba:	8082                	ret

0000bdbc <__sinit>:
    bdbc:	4d1c                	lw	a5,24(a0)
    bdbe:	e7a5                	bnez	a5,be26 <__sinit+0x6a>
    bdc0:	1141                	addi	sp,sp,-16
    bdc2:	c606                	sw	ra,12(sp)
    bdc4:	c422                	sw	s0,8(sp)
    bdc6:	00000797          	auipc	a5,0x0
    bdca:	fa678793          	addi	a5,a5,-90 # bd6c <_cleanup_r>
    bdce:	d51c                	sw	a5,40(a0)
    bdd0:	81818793          	addi	a5,gp,-2024 # 200000a8 <_global_impure_ptr>
    bdd4:	439c                	lw	a5,0(a5)
    bdd6:	04052423          	sw	zero,72(a0)
    bdda:	04052623          	sw	zero,76(a0)
    bdde:	04052823          	sw	zero,80(a0)
    bde2:	00f51463          	bne	a0,a5,bdea <__sinit+0x2e>
    bde6:	4785                	li	a5,1
    bde8:	cd1c                	sw	a5,24(a0)
    bdea:	842a                	mv	s0,a0
    bdec:	2835                	jal	be28 <__sfp>
    bdee:	c048                	sw	a0,4(s0)
    bdf0:	8522                	mv	a0,s0
    bdf2:	281d                	jal	be28 <__sfp>
    bdf4:	c408                	sw	a0,8(s0)
    bdf6:	8522                	mv	a0,s0
    bdf8:	2805                	jal	be28 <__sfp>
    bdfa:	c448                	sw	a0,12(s0)
    bdfc:	4048                	lw	a0,4(s0)
    bdfe:	4601                	li	a2,0
    be00:	4591                	li	a1,4
    be02:	f05ff0ef          	jal	ra,bd06 <std>
    be06:	4408                	lw	a0,8(s0)
    be08:	4605                	li	a2,1
    be0a:	45a5                	li	a1,9
    be0c:	efbff0ef          	jal	ra,bd06 <std>
    be10:	4448                	lw	a0,12(s0)
    be12:	4609                	li	a2,2
    be14:	45c9                	li	a1,18
    be16:	ef1ff0ef          	jal	ra,bd06 <std>
    be1a:	4785                	li	a5,1
    be1c:	cc1c                	sw	a5,24(s0)
    be1e:	40b2                	lw	ra,12(sp)
    be20:	4422                	lw	s0,8(sp)
    be22:	0141                	addi	sp,sp,16
    be24:	8082                	ret
    be26:	8082                	ret

0000be28 <__sfp>:
    be28:	1141                	addi	sp,sp,-16
    be2a:	81818793          	addi	a5,gp,-2024 # 200000a8 <_global_impure_ptr>
    be2e:	c226                	sw	s1,4(sp)
    be30:	4384                	lw	s1,0(a5)
    be32:	c04a                	sw	s2,0(sp)
    be34:	c606                	sw	ra,12(sp)
    be36:	4c9c                	lw	a5,24(s1)
    be38:	c422                	sw	s0,8(sp)
    be3a:	892a                	mv	s2,a0
    be3c:	e781                	bnez	a5,be44 <__sfp+0x1c>
    be3e:	8526                	mv	a0,s1
    be40:	f7dff0ef          	jal	ra,bdbc <__sinit>
    be44:	04848493          	addi	s1,s1,72
    be48:	4480                	lw	s0,8(s1)
    be4a:	40dc                	lw	a5,4(s1)
    be4c:	17fd                	addi	a5,a5,-1
    be4e:	0007d663          	bgez	a5,be5a <__sfp+0x32>
    be52:	409c                	lw	a5,0(s1)
    be54:	cfb9                	beqz	a5,beb2 <__sfp+0x8a>
    be56:	4084                	lw	s1,0(s1)
    be58:	bfc5                	j	be48 <__sfp+0x20>
    be5a:	00c41703          	lh	a4,12(s0)
    be5e:	e739                	bnez	a4,beac <__sfp+0x84>
    be60:	77c1                	lui	a5,0xffff0
    be62:	0785                	addi	a5,a5,1
    be64:	06042223          	sw	zero,100(s0)
    be68:	00042023          	sw	zero,0(s0)
    be6c:	00042223          	sw	zero,4(s0)
    be70:	00042423          	sw	zero,8(s0)
    be74:	c45c                	sw	a5,12(s0)
    be76:	00042823          	sw	zero,16(s0)
    be7a:	00042a23          	sw	zero,20(s0)
    be7e:	00042c23          	sw	zero,24(s0)
    be82:	4621                	li	a2,8
    be84:	4581                	li	a1,0
    be86:	05c40513          	addi	a0,s0,92
    be8a:	ebcf40ef          	jal	ra,546 <memset>
    be8e:	02042a23          	sw	zero,52(s0)
    be92:	02042c23          	sw	zero,56(s0)
    be96:	04042423          	sw	zero,72(s0)
    be9a:	04042623          	sw	zero,76(s0)
    be9e:	8522                	mv	a0,s0
    bea0:	40b2                	lw	ra,12(sp)
    bea2:	4422                	lw	s0,8(sp)
    bea4:	4492                	lw	s1,4(sp)
    bea6:	4902                	lw	s2,0(sp)
    bea8:	0141                	addi	sp,sp,16
    beaa:	8082                	ret
    beac:	06840413          	addi	s0,s0,104
    beb0:	bf71                	j	be4c <__sfp+0x24>
    beb2:	4591                	li	a1,4
    beb4:	854a                	mv	a0,s2
    beb6:	ec1ff0ef          	jal	ra,bd76 <__sfmoreglue>
    beba:	c088                	sw	a0,0(s1)
    bebc:	fd49                	bnez	a0,be56 <__sfp+0x2e>
    bebe:	47b1                	li	a5,12
    bec0:	00f92023          	sw	a5,0(s2)
    bec4:	4401                	li	s0,0
    bec6:	bfe1                	j	be9e <__sfp+0x76>

0000bec8 <_fwalk_reent>:
    bec8:	7179                	addi	sp,sp,-48
    beca:	d422                	sw	s0,40(sp)
    becc:	d04a                	sw	s2,32(sp)
    bece:	cc52                	sw	s4,24(sp)
    bed0:	ca56                	sw	s5,20(sp)
    bed2:	c85a                	sw	s6,16(sp)
    bed4:	c65e                	sw	s7,12(sp)
    bed6:	d606                	sw	ra,44(sp)
    bed8:	d226                	sw	s1,36(sp)
    beda:	ce4e                	sw	s3,28(sp)
    bedc:	8a2a                	mv	s4,a0
    bede:	8aae                	mv	s5,a1
    bee0:	04850413          	addi	s0,a0,72
    bee4:	4901                	li	s2,0
    bee6:	4b05                	li	s6,1
    bee8:	5bfd                	li	s7,-1
    beea:	ec09                	bnez	s0,bf04 <_fwalk_reent+0x3c>
    beec:	50b2                	lw	ra,44(sp)
    beee:	5422                	lw	s0,40(sp)
    bef0:	854a                	mv	a0,s2
    bef2:	5492                	lw	s1,36(sp)
    bef4:	5902                	lw	s2,32(sp)
    bef6:	49f2                	lw	s3,28(sp)
    bef8:	4a62                	lw	s4,24(sp)
    befa:	4ad2                	lw	s5,20(sp)
    befc:	4b42                	lw	s6,16(sp)
    befe:	4bb2                	lw	s7,12(sp)
    bf00:	6145                	addi	sp,sp,48
    bf02:	8082                	ret
    bf04:	4404                	lw	s1,8(s0)
    bf06:	00442983          	lw	s3,4(s0)
    bf0a:	19fd                	addi	s3,s3,-1
    bf0c:	0009d463          	bgez	s3,bf14 <_fwalk_reent+0x4c>
    bf10:	4000                	lw	s0,0(s0)
    bf12:	bfe1                	j	beea <_fwalk_reent+0x22>
    bf14:	24de                	lhu	a5,12(s1)
    bf16:	00fb7b63          	bgeu	s6,a5,bf2c <_fwalk_reent+0x64>
    bf1a:	00e49783          	lh	a5,14(s1)
    bf1e:	01778763          	beq	a5,s7,bf2c <_fwalk_reent+0x64>
    bf22:	85a6                	mv	a1,s1
    bf24:	8552                	mv	a0,s4
    bf26:	9a82                	jalr	s5
    bf28:	00a96933          	or	s2,s2,a0
    bf2c:	06848493          	addi	s1,s1,104
    bf30:	bfe9                	j	bf0a <_fwalk_reent+0x42>

0000bf32 <__swhatbuf_r>:
    bf32:	7119                	addi	sp,sp,-128
    bf34:	daa6                	sw	s1,116(sp)
    bf36:	84ae                	mv	s1,a1
    bf38:	00e59583          	lh	a1,14(a1)
    bf3c:	dca2                	sw	s0,120(sp)
    bf3e:	de86                	sw	ra,124(sp)
    bf40:	8432                	mv	s0,a2
    bf42:	0005db63          	bgez	a1,bf58 <__swhatbuf_r+0x26>
    bf46:	24de                	lhu	a5,12(s1)
    bf48:	0006a023          	sw	zero,0(a3)
    bf4c:	0807f793          	andi	a5,a5,128
    bf50:	e39d                	bnez	a5,bf76 <__swhatbuf_r+0x44>
    bf52:	40000793          	li	a5,1024
    bf56:	a015                	j	bf7a <__swhatbuf_r+0x48>
    bf58:	0830                	addi	a2,sp,24
    bf5a:	c636                	sw	a3,12(sp)
    bf5c:	21e1                	jal	c424 <_fstat_r>
    bf5e:	46b2                	lw	a3,12(sp)
    bf60:	fe0543e3          	bltz	a0,bf46 <__swhatbuf_r+0x14>
    bf64:	4772                	lw	a4,28(sp)
    bf66:	67bd                	lui	a5,0xf
    bf68:	8ff9                	and	a5,a5,a4
    bf6a:	7779                	lui	a4,0xffffe
    bf6c:	97ba                	add	a5,a5,a4
    bf6e:	0017b793          	seqz	a5,a5
    bf72:	c29c                	sw	a5,0(a3)
    bf74:	bff9                	j	bf52 <__swhatbuf_r+0x20>
    bf76:	04000793          	li	a5,64
    bf7a:	c01c                	sw	a5,0(s0)
    bf7c:	50f6                	lw	ra,124(sp)
    bf7e:	5466                	lw	s0,120(sp)
    bf80:	54d6                	lw	s1,116(sp)
    bf82:	4501                	li	a0,0
    bf84:	6109                	addi	sp,sp,128
    bf86:	8082                	ret

0000bf88 <__smakebuf_r>:
    bf88:	25de                	lhu	a5,12(a1)
    bf8a:	1101                	addi	sp,sp,-32
    bf8c:	cc22                	sw	s0,24(sp)
    bf8e:	ce06                	sw	ra,28(sp)
    bf90:	ca26                	sw	s1,20(sp)
    bf92:	c84a                	sw	s2,16(sp)
    bf94:	8b89                	andi	a5,a5,2
    bf96:	842e                	mv	s0,a1
    bf98:	cf89                	beqz	a5,bfb2 <__smakebuf_r+0x2a>
    bf9a:	04740793          	addi	a5,s0,71
    bf9e:	c01c                	sw	a5,0(s0)
    bfa0:	c81c                	sw	a5,16(s0)
    bfa2:	4785                	li	a5,1
    bfa4:	c85c                	sw	a5,20(s0)
    bfa6:	40f2                	lw	ra,28(sp)
    bfa8:	4462                	lw	s0,24(sp)
    bfaa:	44d2                	lw	s1,20(sp)
    bfac:	4942                	lw	s2,16(sp)
    bfae:	6105                	addi	sp,sp,32
    bfb0:	8082                	ret
    bfb2:	0074                	addi	a3,sp,12
    bfb4:	0030                	addi	a2,sp,8
    bfb6:	84aa                	mv	s1,a0
    bfb8:	f7bff0ef          	jal	ra,bf32 <__swhatbuf_r>
    bfbc:	45a2                	lw	a1,8(sp)
    bfbe:	892a                	mv	s2,a0
    bfc0:	8526                	mv	a0,s1
    bfc2:	2ae1                	jal	c19a <_malloc_r>
    bfc4:	e919                	bnez	a0,bfda <__smakebuf_r+0x52>
    bfc6:	00c41783          	lh	a5,12(s0)
    bfca:	2007f713          	andi	a4,a5,512
    bfce:	ff61                	bnez	a4,bfa6 <__smakebuf_r+0x1e>
    bfd0:	9bf1                	andi	a5,a5,-4
    bfd2:	0027e793          	ori	a5,a5,2
    bfd6:	a45e                	sh	a5,12(s0)
    bfd8:	b7c9                	j	bf9a <__smakebuf_r+0x12>
    bfda:	00000797          	auipc	a5,0x0
    bfde:	d9278793          	addi	a5,a5,-622 # bd6c <_cleanup_r>
    bfe2:	d49c                	sw	a5,40(s1)
    bfe4:	245e                	lhu	a5,12(s0)
    bfe6:	c008                	sw	a0,0(s0)
    bfe8:	c808                	sw	a0,16(s0)
    bfea:	0807e793          	ori	a5,a5,128
    bfee:	a45e                	sh	a5,12(s0)
    bff0:	47a2                	lw	a5,8(sp)
    bff2:	c85c                	sw	a5,20(s0)
    bff4:	47b2                	lw	a5,12(sp)
    bff6:	cb99                	beqz	a5,c00c <__smakebuf_r+0x84>
    bff8:	00e41583          	lh	a1,14(s0)
    bffc:	8526                	mv	a0,s1
    bffe:	29a9                	jal	c458 <_isatty_r>
    c000:	c511                	beqz	a0,c00c <__smakebuf_r+0x84>
    c002:	245e                	lhu	a5,12(s0)
    c004:	9bf1                	andi	a5,a5,-4
    c006:	0017e793          	ori	a5,a5,1
    c00a:	a45e                	sh	a5,12(s0)
    c00c:	245e                	lhu	a5,12(s0)
    c00e:	00f96933          	or	s2,s2,a5
    c012:	01241623          	sh	s2,12(s0)
    c016:	bf41                	j	bfa6 <__smakebuf_r+0x1e>

0000c018 <memcmp>:
    c018:	4701                	li	a4,0
    c01a:	00e61463          	bne	a2,a4,c022 <memcmp+0xa>
    c01e:	4501                	li	a0,0
    c020:	8082                	ret
    c022:	00e507b3          	add	a5,a0,a4
    c026:	0705                	addi	a4,a4,1
    c028:	00e586b3          	add	a3,a1,a4
    c02c:	239c                	lbu	a5,0(a5)
    c02e:	fff6c683          	lbu	a3,-1(a3)
    c032:	fed784e3          	beq	a5,a3,c01a <memcmp+0x2>
    c036:	40d78533          	sub	a0,a5,a3
    c03a:	8082                	ret

0000c03c <memcpy>:
    c03c:	00a5c7b3          	xor	a5,a1,a0
    c040:	8b8d                	andi	a5,a5,3
    c042:	00c50733          	add	a4,a0,a2
    c046:	e781                	bnez	a5,c04e <memcpy+0x12>
    c048:	478d                	li	a5,3
    c04a:	00c7ed63          	bltu	a5,a2,c064 <memcpy+0x28>
    c04e:	87aa                	mv	a5,a0
    c050:	08e57e63          	bgeu	a0,a4,c0ec <memcpy+0xb0>
    c054:	2194                	lbu	a3,0(a1)
    c056:	0785                	addi	a5,a5,1
    c058:	0585                	addi	a1,a1,1
    c05a:	fed78fa3          	sb	a3,-1(a5)
    c05e:	fee7ebe3          	bltu	a5,a4,c054 <memcpy+0x18>
    c062:	8082                	ret
    c064:	00357693          	andi	a3,a0,3
    c068:	87aa                	mv	a5,a0
    c06a:	ca89                	beqz	a3,c07c <memcpy+0x40>
    c06c:	2194                	lbu	a3,0(a1)
    c06e:	0785                	addi	a5,a5,1
    c070:	0585                	addi	a1,a1,1
    c072:	fed78fa3          	sb	a3,-1(a5)
    c076:	0037f693          	andi	a3,a5,3
    c07a:	bfc5                	j	c06a <memcpy+0x2e>
    c07c:	ffc77693          	andi	a3,a4,-4
    c080:	fe068613          	addi	a2,a3,-32
    c084:	06c7f063          	bgeu	a5,a2,c0e4 <memcpy+0xa8>
    c088:	0005a383          	lw	t2,0(a1)
    c08c:	0045a283          	lw	t0,4(a1)
    c090:	0085af83          	lw	t6,8(a1)
    c094:	00c5af03          	lw	t5,12(a1)
    c098:	0105ae83          	lw	t4,16(a1)
    c09c:	0145ae03          	lw	t3,20(a1)
    c0a0:	0185a303          	lw	t1,24(a1)
    c0a4:	01c5a883          	lw	a7,28(a1)
    c0a8:	02458593          	addi	a1,a1,36
    c0ac:	0077a023          	sw	t2,0(a5)
    c0b0:	ffc5a803          	lw	a6,-4(a1)
    c0b4:	0057a223          	sw	t0,4(a5)
    c0b8:	01f7a423          	sw	t6,8(a5)
    c0bc:	01e7a623          	sw	t5,12(a5)
    c0c0:	01d7a823          	sw	t4,16(a5)
    c0c4:	01c7aa23          	sw	t3,20(a5)
    c0c8:	0067ac23          	sw	t1,24(a5)
    c0cc:	0117ae23          	sw	a7,28(a5)
    c0d0:	02478793          	addi	a5,a5,36
    c0d4:	ff07ae23          	sw	a6,-4(a5)
    c0d8:	b775                	j	c084 <memcpy+0x48>
    c0da:	4190                	lw	a2,0(a1)
    c0dc:	0791                	addi	a5,a5,4
    c0de:	0591                	addi	a1,a1,4
    c0e0:	fec7ae23          	sw	a2,-4(a5)
    c0e4:	fed7ebe3          	bltu	a5,a3,c0da <memcpy+0x9e>
    c0e8:	f6e7e6e3          	bltu	a5,a4,c054 <memcpy+0x18>
    c0ec:	8082                	ret

0000c0ee <_free_r>:
    c0ee:	c5cd                	beqz	a1,c198 <_free_r+0xaa>
    c0f0:	ffc5a783          	lw	a5,-4(a1)
    c0f4:	1141                	addi	sp,sp,-16
    c0f6:	c422                	sw	s0,8(sp)
    c0f8:	c606                	sw	ra,12(sp)
    c0fa:	c226                	sw	s1,4(sp)
    c0fc:	ffc58413          	addi	s0,a1,-4
    c100:	0007d363          	bgez	a5,c106 <_free_r+0x18>
    c104:	943e                	add	s0,s0,a5
    c106:	84aa                	mv	s1,a0
    c108:	2e65                	jal	c4c0 <__malloc_lock>
    c10a:	1fff4797          	auipc	a5,0x1fff4
    c10e:	04278793          	addi	a5,a5,66 # 2000014c <__malloc_free_list>
    c112:	439c                	lw	a5,0(a5)
    c114:	ef89                	bnez	a5,c12e <_free_r+0x40>
    c116:	00042223          	sw	zero,4(s0)
    c11a:	1fff4797          	auipc	a5,0x1fff4
    c11e:	0287a923          	sw	s0,50(a5) # 2000014c <__malloc_free_list>
    c122:	4422                	lw	s0,8(sp)
    c124:	40b2                	lw	ra,12(sp)
    c126:	8526                	mv	a0,s1
    c128:	4492                	lw	s1,4(sp)
    c12a:	0141                	addi	sp,sp,16
    c12c:	ae59                	j	c4c2 <__malloc_unlock>
    c12e:	00f47e63          	bgeu	s0,a5,c14a <_free_r+0x5c>
    c132:	4014                	lw	a3,0(s0)
    c134:	00d40733          	add	a4,s0,a3
    c138:	00e79663          	bne	a5,a4,c144 <_free_r+0x56>
    c13c:	4398                	lw	a4,0(a5)
    c13e:	43dc                	lw	a5,4(a5)
    c140:	9736                	add	a4,a4,a3
    c142:	c018                	sw	a4,0(s0)
    c144:	c05c                	sw	a5,4(s0)
    c146:	bfd1                	j	c11a <_free_r+0x2c>
    c148:	87ba                	mv	a5,a4
    c14a:	43d8                	lw	a4,4(a5)
    c14c:	c319                	beqz	a4,c152 <_free_r+0x64>
    c14e:	fee47de3          	bgeu	s0,a4,c148 <_free_r+0x5a>
    c152:	4394                	lw	a3,0(a5)
    c154:	00d78633          	add	a2,a5,a3
    c158:	00861f63          	bne	a2,s0,c176 <_free_r+0x88>
    c15c:	4010                	lw	a2,0(s0)
    c15e:	96b2                	add	a3,a3,a2
    c160:	c394                	sw	a3,0(a5)
    c162:	00d78633          	add	a2,a5,a3
    c166:	fac71ee3          	bne	a4,a2,c122 <_free_r+0x34>
    c16a:	4310                	lw	a2,0(a4)
    c16c:	4358                	lw	a4,4(a4)
    c16e:	96b2                	add	a3,a3,a2
    c170:	c394                	sw	a3,0(a5)
    c172:	c3d8                	sw	a4,4(a5)
    c174:	b77d                	j	c122 <_free_r+0x34>
    c176:	00c47563          	bgeu	s0,a2,c180 <_free_r+0x92>
    c17a:	47b1                	li	a5,12
    c17c:	c09c                	sw	a5,0(s1)
    c17e:	b755                	j	c122 <_free_r+0x34>
    c180:	4010                	lw	a2,0(s0)
    c182:	00c406b3          	add	a3,s0,a2
    c186:	00d71663          	bne	a4,a3,c192 <_free_r+0xa4>
    c18a:	4314                	lw	a3,0(a4)
    c18c:	4358                	lw	a4,4(a4)
    c18e:	96b2                	add	a3,a3,a2
    c190:	c014                	sw	a3,0(s0)
    c192:	c058                	sw	a4,4(s0)
    c194:	c3c0                	sw	s0,4(a5)
    c196:	b771                	j	c122 <_free_r+0x34>
    c198:	8082                	ret

0000c19a <_malloc_r>:
    c19a:	1101                	addi	sp,sp,-32
    c19c:	ca26                	sw	s1,20(sp)
    c19e:	00358493          	addi	s1,a1,3
    c1a2:	98f1                	andi	s1,s1,-4
    c1a4:	ce06                	sw	ra,28(sp)
    c1a6:	cc22                	sw	s0,24(sp)
    c1a8:	c84a                	sw	s2,16(sp)
    c1aa:	c64e                	sw	s3,12(sp)
    c1ac:	04a1                	addi	s1,s1,8
    c1ae:	47b1                	li	a5,12
    c1b0:	04f4f763          	bgeu	s1,a5,c1fe <_malloc_r+0x64>
    c1b4:	44b1                	li	s1,12
    c1b6:	04b4e663          	bltu	s1,a1,c202 <_malloc_r+0x68>
    c1ba:	892a                	mv	s2,a0
    c1bc:	2611                	jal	c4c0 <__malloc_lock>
    c1be:	1fff4797          	auipc	a5,0x1fff4
    c1c2:	f8e78793          	addi	a5,a5,-114 # 2000014c <__malloc_free_list>
    c1c6:	4398                	lw	a4,0(a5)
    c1c8:	843a                	mv	s0,a4
    c1ca:	e431                	bnez	s0,c216 <_malloc_r+0x7c>
    c1cc:	1fff4797          	auipc	a5,0x1fff4
    c1d0:	f8478793          	addi	a5,a5,-124 # 20000150 <__malloc_sbrk_start>
    c1d4:	439c                	lw	a5,0(a5)
    c1d6:	eb81                	bnez	a5,c1e6 <_malloc_r+0x4c>
    c1d8:	4581                	li	a1,0
    c1da:	854a                	mv	a0,s2
    c1dc:	28f1                	jal	c2b8 <_sbrk_r>
    c1de:	1fff4797          	auipc	a5,0x1fff4
    c1e2:	f6a7a923          	sw	a0,-142(a5) # 20000150 <__malloc_sbrk_start>
    c1e6:	85a6                	mv	a1,s1
    c1e8:	854a                	mv	a0,s2
    c1ea:	20f9                	jal	c2b8 <_sbrk_r>
    c1ec:	59fd                	li	s3,-1
    c1ee:	07351963          	bne	a0,s3,c260 <_malloc_r+0xc6>
    c1f2:	47b1                	li	a5,12
    c1f4:	00f92023          	sw	a5,0(s2)
    c1f8:	854a                	mv	a0,s2
    c1fa:	24e1                	jal	c4c2 <__malloc_unlock>
    c1fc:	a029                	j	c206 <_malloc_r+0x6c>
    c1fe:	fa04dce3          	bgez	s1,c1b6 <_malloc_r+0x1c>
    c202:	47b1                	li	a5,12
    c204:	c11c                	sw	a5,0(a0)
    c206:	4501                	li	a0,0
    c208:	40f2                	lw	ra,28(sp)
    c20a:	4462                	lw	s0,24(sp)
    c20c:	44d2                	lw	s1,20(sp)
    c20e:	4942                	lw	s2,16(sp)
    c210:	49b2                	lw	s3,12(sp)
    c212:	6105                	addi	sp,sp,32
    c214:	8082                	ret
    c216:	401c                	lw	a5,0(s0)
    c218:	8f85                	sub	a5,a5,s1
    c21a:	0407c063          	bltz	a5,c25a <_malloc_r+0xc0>
    c21e:	46ad                	li	a3,11
    c220:	00f6f663          	bgeu	a3,a5,c22c <_malloc_r+0x92>
    c224:	c01c                	sw	a5,0(s0)
    c226:	943e                	add	s0,s0,a5
    c228:	c004                	sw	s1,0(s0)
    c22a:	a801                	j	c23a <_malloc_r+0xa0>
    c22c:	405c                	lw	a5,4(s0)
    c22e:	02871463          	bne	a4,s0,c256 <_malloc_r+0xbc>
    c232:	1fff4717          	auipc	a4,0x1fff4
    c236:	f0f72d23          	sw	a5,-230(a4) # 2000014c <__malloc_free_list>
    c23a:	854a                	mv	a0,s2
    c23c:	2459                	jal	c4c2 <__malloc_unlock>
    c23e:	00b40513          	addi	a0,s0,11
    c242:	00440793          	addi	a5,s0,4
    c246:	9961                	andi	a0,a0,-8
    c248:	40f50733          	sub	a4,a0,a5
    c24c:	df55                	beqz	a4,c208 <_malloc_r+0x6e>
    c24e:	943a                	add	s0,s0,a4
    c250:	8f89                	sub	a5,a5,a0
    c252:	c01c                	sw	a5,0(s0)
    c254:	bf55                	j	c208 <_malloc_r+0x6e>
    c256:	c35c                	sw	a5,4(a4)
    c258:	b7cd                	j	c23a <_malloc_r+0xa0>
    c25a:	8722                	mv	a4,s0
    c25c:	4040                	lw	s0,4(s0)
    c25e:	b7b5                	j	c1ca <_malloc_r+0x30>
    c260:	00350413          	addi	s0,a0,3
    c264:	9871                	andi	s0,s0,-4
    c266:	fc8501e3          	beq	a0,s0,c228 <_malloc_r+0x8e>
    c26a:	40a405b3          	sub	a1,s0,a0
    c26e:	854a                	mv	a0,s2
    c270:	20a1                	jal	c2b8 <_sbrk_r>
    c272:	fb351be3          	bne	a0,s3,c228 <_malloc_r+0x8e>
    c276:	bfb5                	j	c1f2 <_malloc_r+0x58>

0000c278 <iprintf>:
    c278:	7139                	addi	sp,sp,-64
    c27a:	da3e                	sw	a5,52(sp)
    c27c:	d22e                	sw	a1,36(sp)
    c27e:	d432                	sw	a2,40(sp)
    c280:	d636                	sw	a3,44(sp)
    c282:	d83a                	sw	a4,48(sp)
    c284:	dc42                	sw	a6,56(sp)
    c286:	de46                	sw	a7,60(sp)
    c288:	81018793          	addi	a5,gp,-2032 # 200000a0 <_impure_ptr>
    c28c:	cc22                	sw	s0,24(sp)
    c28e:	4380                	lw	s0,0(a5)
    c290:	ca26                	sw	s1,20(sp)
    c292:	ce06                	sw	ra,28(sp)
    c294:	84aa                	mv	s1,a0
    c296:	c411                	beqz	s0,c2a2 <iprintf+0x2a>
    c298:	4c1c                	lw	a5,24(s0)
    c29a:	e781                	bnez	a5,c2a2 <iprintf+0x2a>
    c29c:	8522                	mv	a0,s0
    c29e:	b1fff0ef          	jal	ra,bdbc <__sinit>
    c2a2:	440c                	lw	a1,8(s0)
    c2a4:	1054                	addi	a3,sp,36
    c2a6:	8626                	mv	a2,s1
    c2a8:	8522                	mv	a0,s0
    c2aa:	c636                	sw	a3,12(sp)
    c2ac:	2441                	jal	c52c <_vfiprintf_r>
    c2ae:	40f2                	lw	ra,28(sp)
    c2b0:	4462                	lw	s0,24(sp)
    c2b2:	44d2                	lw	s1,20(sp)
    c2b4:	6121                	addi	sp,sp,64
    c2b6:	8082                	ret

0000c2b8 <_sbrk_r>:
    c2b8:	1141                	addi	sp,sp,-16
    c2ba:	c422                	sw	s0,8(sp)
    c2bc:	842a                	mv	s0,a0
    c2be:	852e                	mv	a0,a1
    c2c0:	1fff9797          	auipc	a5,0x1fff9
    c2c4:	e607a823          	sw	zero,-400(a5) # 20005130 <errno>
    c2c8:	c606                	sw	ra,12(sp)
    c2ca:	2f7000ef          	jal	ra,cdc0 <_sbrk>
    c2ce:	57fd                	li	a5,-1
    c2d0:	00f51963          	bne	a0,a5,c2e2 <_sbrk_r+0x2a>
    c2d4:	1fff9797          	auipc	a5,0x1fff9
    c2d8:	e5c78793          	addi	a5,a5,-420 # 20005130 <errno>
    c2dc:	439c                	lw	a5,0(a5)
    c2de:	c391                	beqz	a5,c2e2 <_sbrk_r+0x2a>
    c2e0:	c01c                	sw	a5,0(s0)
    c2e2:	40b2                	lw	ra,12(sp)
    c2e4:	4422                	lw	s0,8(sp)
    c2e6:	0141                	addi	sp,sp,16
    c2e8:	8082                	ret

0000c2ea <__sread>:
    c2ea:	1141                	addi	sp,sp,-16
    c2ec:	c422                	sw	s0,8(sp)
    c2ee:	842e                	mv	s0,a1
    c2f0:	00e59583          	lh	a1,14(a1)
    c2f4:	c606                	sw	ra,12(sp)
    c2f6:	06b000ef          	jal	ra,cb60 <_read_r>
    c2fa:	00054963          	bltz	a0,c30c <__sread+0x22>
    c2fe:	487c                	lw	a5,84(s0)
    c300:	97aa                	add	a5,a5,a0
    c302:	c87c                	sw	a5,84(s0)
    c304:	40b2                	lw	ra,12(sp)
    c306:	4422                	lw	s0,8(sp)
    c308:	0141                	addi	sp,sp,16
    c30a:	8082                	ret
    c30c:	245e                	lhu	a5,12(s0)
    c30e:	777d                	lui	a4,0xfffff
    c310:	177d                	addi	a4,a4,-1
    c312:	8ff9                	and	a5,a5,a4
    c314:	a45e                	sh	a5,12(s0)
    c316:	b7fd                	j	c304 <__sread+0x1a>

0000c318 <__swrite>:
    c318:	25de                	lhu	a5,12(a1)
    c31a:	1101                	addi	sp,sp,-32
    c31c:	cc22                	sw	s0,24(sp)
    c31e:	ca26                	sw	s1,20(sp)
    c320:	c84a                	sw	s2,16(sp)
    c322:	c64e                	sw	s3,12(sp)
    c324:	ce06                	sw	ra,28(sp)
    c326:	1007f793          	andi	a5,a5,256
    c32a:	84aa                	mv	s1,a0
    c32c:	842e                	mv	s0,a1
    c32e:	8932                	mv	s2,a2
    c330:	89b6                	mv	s3,a3
    c332:	c791                	beqz	a5,c33e <__swrite+0x26>
    c334:	00e59583          	lh	a1,14(a1)
    c338:	4689                	li	a3,2
    c33a:	4601                	li	a2,0
    c33c:	22b9                	jal	c48a <_lseek_r>
    c33e:	245e                	lhu	a5,12(s0)
    c340:	777d                	lui	a4,0xfffff
    c342:	177d                	addi	a4,a4,-1
    c344:	8ff9                	and	a5,a5,a4
    c346:	a45e                	sh	a5,12(s0)
    c348:	00e41583          	lh	a1,14(s0)
    c34c:	4462                	lw	s0,24(sp)
    c34e:	40f2                	lw	ra,28(sp)
    c350:	86ce                	mv	a3,s3
    c352:	864a                	mv	a2,s2
    c354:	49b2                	lw	s3,12(sp)
    c356:	4942                	lw	s2,16(sp)
    c358:	8526                	mv	a0,s1
    c35a:	44d2                	lw	s1,20(sp)
    c35c:	6105                	addi	sp,sp,32
    c35e:	a8b9                	j	c3bc <_write_r>

0000c360 <__sseek>:
    c360:	1141                	addi	sp,sp,-16
    c362:	c422                	sw	s0,8(sp)
    c364:	842e                	mv	s0,a1
    c366:	00e59583          	lh	a1,14(a1)
    c36a:	c606                	sw	ra,12(sp)
    c36c:	2a39                	jal	c48a <_lseek_r>
    c36e:	57fd                	li	a5,-1
    c370:	245a                	lhu	a4,12(s0)
    c372:	00f51a63          	bne	a0,a5,c386 <__sseek+0x26>
    c376:	77fd                	lui	a5,0xfffff
    c378:	17fd                	addi	a5,a5,-1
    c37a:	8ff9                	and	a5,a5,a4
    c37c:	a45e                	sh	a5,12(s0)
    c37e:	40b2                	lw	ra,12(sp)
    c380:	4422                	lw	s0,8(sp)
    c382:	0141                	addi	sp,sp,16
    c384:	8082                	ret
    c386:	6785                	lui	a5,0x1
    c388:	8fd9                	or	a5,a5,a4
    c38a:	a45e                	sh	a5,12(s0)
    c38c:	c868                	sw	a0,84(s0)
    c38e:	bfc5                	j	c37e <__sseek+0x1e>

0000c390 <__sclose>:
    c390:	00e59583          	lh	a1,14(a1)
    c394:	a8b9                	j	c3f2 <_close_r>

0000c396 <strcpy>:
    c396:	87aa                	mv	a5,a0
    c398:	2198                	lbu	a4,0(a1)
    c39a:	0785                	addi	a5,a5,1
    c39c:	0585                	addi	a1,a1,1
    c39e:	fee78fa3          	sb	a4,-1(a5) # fff <fe_mul+0x56b>
    c3a2:	fb7d                	bnez	a4,c398 <strcpy+0x2>
    c3a4:	8082                	ret

0000c3a6 <strnlen>:
    c3a6:	95aa                	add	a1,a1,a0
    c3a8:	87aa                	mv	a5,a0
    c3aa:	00b78463          	beq	a5,a1,c3b2 <strnlen+0xc>
    c3ae:	2398                	lbu	a4,0(a5)
    c3b0:	e701                	bnez	a4,c3b8 <strnlen+0x12>
    c3b2:	40a78533          	sub	a0,a5,a0
    c3b6:	8082                	ret
    c3b8:	0785                	addi	a5,a5,1
    c3ba:	bfc5                	j	c3aa <strnlen+0x4>

0000c3bc <_write_r>:
    c3bc:	1141                	addi	sp,sp,-16
    c3be:	c422                	sw	s0,8(sp)
    c3c0:	842a                	mv	s0,a0
    c3c2:	852e                	mv	a0,a1
    c3c4:	85b2                	mv	a1,a2
    c3c6:	8636                	mv	a2,a3
    c3c8:	1fff9797          	auipc	a5,0x1fff9
    c3cc:	d607a423          	sw	zero,-664(a5) # 20005130 <errno>
    c3d0:	c606                	sw	ra,12(sp)
    c3d2:	21f000ef          	jal	ra,cdf0 <_write>
    c3d6:	57fd                	li	a5,-1
    c3d8:	00f51963          	bne	a0,a5,c3ea <_write_r+0x2e>
    c3dc:	1fff9797          	auipc	a5,0x1fff9
    c3e0:	d5478793          	addi	a5,a5,-684 # 20005130 <errno>
    c3e4:	439c                	lw	a5,0(a5)
    c3e6:	c391                	beqz	a5,c3ea <_write_r+0x2e>
    c3e8:	c01c                	sw	a5,0(s0)
    c3ea:	40b2                	lw	ra,12(sp)
    c3ec:	4422                	lw	s0,8(sp)
    c3ee:	0141                	addi	sp,sp,16
    c3f0:	8082                	ret

0000c3f2 <_close_r>:
    c3f2:	1141                	addi	sp,sp,-16
    c3f4:	c422                	sw	s0,8(sp)
    c3f6:	842a                	mv	s0,a0
    c3f8:	852e                	mv	a0,a1
    c3fa:	1fff9797          	auipc	a5,0x1fff9
    c3fe:	d207ab23          	sw	zero,-714(a5) # 20005130 <errno>
    c402:	c606                	sw	ra,12(sp)
    c404:	16d000ef          	jal	ra,cd70 <_close>
    c408:	57fd                	li	a5,-1
    c40a:	00f51963          	bne	a0,a5,c41c <_close_r+0x2a>
    c40e:	1fff9797          	auipc	a5,0x1fff9
    c412:	d2278793          	addi	a5,a5,-734 # 20005130 <errno>
    c416:	439c                	lw	a5,0(a5)
    c418:	c391                	beqz	a5,c41c <_close_r+0x2a>
    c41a:	c01c                	sw	a5,0(s0)
    c41c:	40b2                	lw	ra,12(sp)
    c41e:	4422                	lw	s0,8(sp)
    c420:	0141                	addi	sp,sp,16
    c422:	8082                	ret

0000c424 <_fstat_r>:
    c424:	1141                	addi	sp,sp,-16
    c426:	c422                	sw	s0,8(sp)
    c428:	842a                	mv	s0,a0
    c42a:	852e                	mv	a0,a1
    c42c:	85b2                	mv	a1,a2
    c42e:	1fff9797          	auipc	a5,0x1fff9
    c432:	d007a123          	sw	zero,-766(a5) # 20005130 <errno>
    c436:	c606                	sw	ra,12(sp)
    c438:	149000ef          	jal	ra,cd80 <_fstat>
    c43c:	57fd                	li	a5,-1
    c43e:	00f51963          	bne	a0,a5,c450 <_fstat_r+0x2c>
    c442:	1fff9797          	auipc	a5,0x1fff9
    c446:	cee78793          	addi	a5,a5,-786 # 20005130 <errno>
    c44a:	439c                	lw	a5,0(a5)
    c44c:	c391                	beqz	a5,c450 <_fstat_r+0x2c>
    c44e:	c01c                	sw	a5,0(s0)
    c450:	40b2                	lw	ra,12(sp)
    c452:	4422                	lw	s0,8(sp)
    c454:	0141                	addi	sp,sp,16
    c456:	8082                	ret

0000c458 <_isatty_r>:
    c458:	1141                	addi	sp,sp,-16
    c45a:	c422                	sw	s0,8(sp)
    c45c:	842a                	mv	s0,a0
    c45e:	852e                	mv	a0,a1
    c460:	1fff9797          	auipc	a5,0x1fff9
    c464:	cc07a823          	sw	zero,-816(a5) # 20005130 <errno>
    c468:	c606                	sw	ra,12(sp)
    c46a:	127000ef          	jal	ra,cd90 <_isatty>
    c46e:	57fd                	li	a5,-1
    c470:	00f51963          	bne	a0,a5,c482 <_isatty_r+0x2a>
    c474:	1fff9797          	auipc	a5,0x1fff9
    c478:	cbc78793          	addi	a5,a5,-836 # 20005130 <errno>
    c47c:	439c                	lw	a5,0(a5)
    c47e:	c391                	beqz	a5,c482 <_isatty_r+0x2a>
    c480:	c01c                	sw	a5,0(s0)
    c482:	40b2                	lw	ra,12(sp)
    c484:	4422                	lw	s0,8(sp)
    c486:	0141                	addi	sp,sp,16
    c488:	8082                	ret

0000c48a <_lseek_r>:
    c48a:	1141                	addi	sp,sp,-16
    c48c:	c422                	sw	s0,8(sp)
    c48e:	842a                	mv	s0,a0
    c490:	852e                	mv	a0,a1
    c492:	85b2                	mv	a1,a2
    c494:	8636                	mv	a2,a3
    c496:	1fff9797          	auipc	a5,0x1fff9
    c49a:	c807ad23          	sw	zero,-870(a5) # 20005130 <errno>
    c49e:	c606                	sw	ra,12(sp)
    c4a0:	101000ef          	jal	ra,cda0 <_lseek>
    c4a4:	57fd                	li	a5,-1
    c4a6:	00f51963          	bne	a0,a5,c4b8 <_lseek_r+0x2e>
    c4aa:	1fff9797          	auipc	a5,0x1fff9
    c4ae:	c8678793          	addi	a5,a5,-890 # 20005130 <errno>
    c4b2:	439c                	lw	a5,0(a5)
    c4b4:	c391                	beqz	a5,c4b8 <_lseek_r+0x2e>
    c4b6:	c01c                	sw	a5,0(s0)
    c4b8:	40b2                	lw	ra,12(sp)
    c4ba:	4422                	lw	s0,8(sp)
    c4bc:	0141                	addi	sp,sp,16
    c4be:	8082                	ret

0000c4c0 <__malloc_lock>:
    c4c0:	8082                	ret

0000c4c2 <__malloc_unlock>:
    c4c2:	8082                	ret

0000c4c4 <__sfputc_r>:
    c4c4:	461c                	lw	a5,8(a2)
    c4c6:	17fd                	addi	a5,a5,-1
    c4c8:	c61c                	sw	a5,8(a2)
    c4ca:	0007d963          	bgez	a5,c4dc <__sfputc_r+0x18>
    c4ce:	4e18                	lw	a4,24(a2)
    c4d0:	00e7c563          	blt	a5,a4,c4da <__sfputc_r+0x16>
    c4d4:	47a9                	li	a5,10
    c4d6:	00f59363          	bne	a1,a5,c4dc <__sfputc_r+0x18>
    c4da:	ad6d                	j	cb94 <__swbuf_r>
    c4dc:	421c                	lw	a5,0(a2)
    c4de:	852e                	mv	a0,a1
    c4e0:	00178713          	addi	a4,a5,1
    c4e4:	c218                	sw	a4,0(a2)
    c4e6:	a38c                	sb	a1,0(a5)
    c4e8:	8082                	ret

0000c4ea <__sfputs_r>:
    c4ea:	1101                	addi	sp,sp,-32
    c4ec:	cc22                	sw	s0,24(sp)
    c4ee:	ca26                	sw	s1,20(sp)
    c4f0:	c84a                	sw	s2,16(sp)
    c4f2:	c64e                	sw	s3,12(sp)
    c4f4:	c452                	sw	s4,8(sp)
    c4f6:	ce06                	sw	ra,28(sp)
    c4f8:	892a                	mv	s2,a0
    c4fa:	89ae                	mv	s3,a1
    c4fc:	8432                	mv	s0,a2
    c4fe:	00d604b3          	add	s1,a2,a3
    c502:	5a7d                	li	s4,-1
    c504:	00941463          	bne	s0,s1,c50c <__sfputs_r+0x22>
    c508:	4501                	li	a0,0
    c50a:	a809                	j	c51c <__sfputs_r+0x32>
    c50c:	200c                	lbu	a1,0(s0)
    c50e:	864e                	mv	a2,s3
    c510:	854a                	mv	a0,s2
    c512:	fb3ff0ef          	jal	ra,c4c4 <__sfputc_r>
    c516:	0405                	addi	s0,s0,1
    c518:	ff4516e3          	bne	a0,s4,c504 <__sfputs_r+0x1a>
    c51c:	40f2                	lw	ra,28(sp)
    c51e:	4462                	lw	s0,24(sp)
    c520:	44d2                	lw	s1,20(sp)
    c522:	4942                	lw	s2,16(sp)
    c524:	49b2                	lw	s3,12(sp)
    c526:	4a22                	lw	s4,8(sp)
    c528:	6105                	addi	sp,sp,32
    c52a:	8082                	ret

0000c52c <_vfiprintf_r>:
    c52c:	7135                	addi	sp,sp,-160
    c52e:	cd22                	sw	s0,152(sp)
    c530:	cb26                	sw	s1,148(sp)
    c532:	c94a                	sw	s2,144(sp)
    c534:	c74e                	sw	s3,140(sp)
    c536:	cf06                	sw	ra,156(sp)
    c538:	c552                	sw	s4,136(sp)
    c53a:	c356                	sw	s5,132(sp)
    c53c:	c15a                	sw	s6,128(sp)
    c53e:	dede                	sw	s7,124(sp)
    c540:	dce2                	sw	s8,120(sp)
    c542:	dae6                	sw	s9,116(sp)
    c544:	89aa                	mv	s3,a0
    c546:	84ae                	mv	s1,a1
    c548:	8932                	mv	s2,a2
    c54a:	8436                	mv	s0,a3
    c54c:	c509                	beqz	a0,c556 <_vfiprintf_r+0x2a>
    c54e:	4d1c                	lw	a5,24(a0)
    c550:	e399                	bnez	a5,c556 <_vfiprintf_r+0x2a>
    c552:	86bff0ef          	jal	ra,bdbc <__sinit>
    c556:	00009797          	auipc	a5,0x9
    c55a:	91678793          	addi	a5,a5,-1770 # 14e6c <__sf_fake_stdin>
    c55e:	0cf49863          	bne	s1,a5,c62e <_vfiprintf_r+0x102>
    c562:	0049a483          	lw	s1,4(s3)
    c566:	24de                	lhu	a5,12(s1)
    c568:	8ba1                	andi	a5,a5,8
    c56a:	c7e5                	beqz	a5,c652 <_vfiprintf_r+0x126>
    c56c:	489c                	lw	a5,16(s1)
    c56e:	c3f5                	beqz	a5,c652 <_vfiprintf_r+0x126>
    c570:	02000793          	li	a5,32
    c574:	02f104a3          	sb	a5,41(sp)
    c578:	03000793          	li	a5,48
    c57c:	d202                	sw	zero,36(sp)
    c57e:	02f10523          	sb	a5,42(sp)
    c582:	c622                	sw	s0,12(sp)
    c584:	02500b93          	li	s7,37
    c588:	00009a97          	auipc	s5,0x9
    c58c:	924a8a93          	addi	s5,s5,-1756 # 14eac <__sf_fake_stdout+0x20>
    c590:	4c05                	li	s8,1
    c592:	4b29                	li	s6,10
    c594:	844a                	mv	s0,s2
    c596:	201c                	lbu	a5,0(s0)
    c598:	c399                	beqz	a5,c59e <_vfiprintf_r+0x72>
    c59a:	0d779e63          	bne	a5,s7,c676 <_vfiprintf_r+0x14a>
    c59e:	41240cb3          	sub	s9,s0,s2
    c5a2:	000c8e63          	beqz	s9,c5be <_vfiprintf_r+0x92>
    c5a6:	86e6                	mv	a3,s9
    c5a8:	864a                	mv	a2,s2
    c5aa:	85a6                	mv	a1,s1
    c5ac:	854e                	mv	a0,s3
    c5ae:	f3dff0ef          	jal	ra,c4ea <__sfputs_r>
    c5b2:	57fd                	li	a5,-1
    c5b4:	1cf50e63          	beq	a0,a5,c790 <_vfiprintf_r+0x264>
    c5b8:	5692                	lw	a3,36(sp)
    c5ba:	96e6                	add	a3,a3,s9
    c5bc:	d236                	sw	a3,36(sp)
    c5be:	201c                	lbu	a5,0(s0)
    c5c0:	1c078863          	beqz	a5,c790 <_vfiprintf_r+0x264>
    c5c4:	57fd                	li	a5,-1
    c5c6:	00140913          	addi	s2,s0,1
    c5ca:	c802                	sw	zero,16(sp)
    c5cc:	ce02                	sw	zero,28(sp)
    c5ce:	ca3e                	sw	a5,20(sp)
    c5d0:	cc02                	sw	zero,24(sp)
    c5d2:	040109a3          	sb	zero,83(sp)
    c5d6:	d482                	sw	zero,104(sp)
    c5d8:	00094583          	lbu	a1,0(s2)
    c5dc:	4615                	li	a2,5
    c5de:	8556                	mv	a0,s5
    c5e0:	2fa5                	jal	cd58 <memchr>
    c5e2:	00190413          	addi	s0,s2,1
    c5e6:	47c2                	lw	a5,16(sp)
    c5e8:	e949                	bnez	a0,c67a <_vfiprintf_r+0x14e>
    c5ea:	0107f713          	andi	a4,a5,16
    c5ee:	c709                	beqz	a4,c5f8 <_vfiprintf_r+0xcc>
    c5f0:	02000713          	li	a4,32
    c5f4:	04e109a3          	sb	a4,83(sp)
    c5f8:	0087f713          	andi	a4,a5,8
    c5fc:	c709                	beqz	a4,c606 <_vfiprintf_r+0xda>
    c5fe:	02b00713          	li	a4,43
    c602:	04e109a3          	sb	a4,83(sp)
    c606:	00094683          	lbu	a3,0(s2)
    c60a:	02a00713          	li	a4,42
    c60e:	06e68e63          	beq	a3,a4,c68a <_vfiprintf_r+0x15e>
    c612:	47f2                	lw	a5,28(sp)
    c614:	844a                	mv	s0,s2
    c616:	4681                	li	a3,0
    c618:	4625                	li	a2,9
    c61a:	2018                	lbu	a4,0(s0)
    c61c:	00140593          	addi	a1,s0,1
    c620:	fd070713          	addi	a4,a4,-48 # ffffefd0 <__freertos_irq_stack_top+0xdfff6fd0>
    c624:	0ae67663          	bgeu	a2,a4,c6d0 <_vfiprintf_r+0x1a4>
    c628:	caad                	beqz	a3,c69a <_vfiprintf_r+0x16e>
    c62a:	ce3e                	sw	a5,28(sp)
    c62c:	a0bd                	j	c69a <_vfiprintf_r+0x16e>
    c62e:	00009797          	auipc	a5,0x9
    c632:	85e78793          	addi	a5,a5,-1954 # 14e8c <__sf_fake_stdout>
    c636:	00f49563          	bne	s1,a5,c640 <_vfiprintf_r+0x114>
    c63a:	0089a483          	lw	s1,8(s3)
    c63e:	b725                	j	c566 <_vfiprintf_r+0x3a>
    c640:	00009797          	auipc	a5,0x9
    c644:	80c78793          	addi	a5,a5,-2036 # 14e4c <__sf_fake_stderr>
    c648:	f0f49fe3          	bne	s1,a5,c566 <_vfiprintf_r+0x3a>
    c64c:	00c9a483          	lw	s1,12(s3)
    c650:	bf19                	j	c566 <_vfiprintf_r+0x3a>
    c652:	85a6                	mv	a1,s1
    c654:	854e                	mv	a0,s3
    c656:	2501                	jal	cc56 <__swsetup_r>
    c658:	dd01                	beqz	a0,c570 <_vfiprintf_r+0x44>
    c65a:	557d                	li	a0,-1
    c65c:	40fa                	lw	ra,156(sp)
    c65e:	446a                	lw	s0,152(sp)
    c660:	44da                	lw	s1,148(sp)
    c662:	494a                	lw	s2,144(sp)
    c664:	49ba                	lw	s3,140(sp)
    c666:	4a2a                	lw	s4,136(sp)
    c668:	4a9a                	lw	s5,132(sp)
    c66a:	4b0a                	lw	s6,128(sp)
    c66c:	5bf6                	lw	s7,124(sp)
    c66e:	5c66                	lw	s8,120(sp)
    c670:	5cd6                	lw	s9,116(sp)
    c672:	610d                	addi	sp,sp,160
    c674:	8082                	ret
    c676:	0405                	addi	s0,s0,1
    c678:	bf39                	j	c596 <_vfiprintf_r+0x6a>
    c67a:	41550533          	sub	a0,a0,s5
    c67e:	00ac1533          	sll	a0,s8,a0
    c682:	8fc9                	or	a5,a5,a0
    c684:	c83e                	sw	a5,16(sp)
    c686:	8922                	mv	s2,s0
    c688:	bf81                	j	c5d8 <_vfiprintf_r+0xac>
    c68a:	4732                	lw	a4,12(sp)
    c68c:	00470693          	addi	a3,a4,4
    c690:	4318                	lw	a4,0(a4)
    c692:	c636                	sw	a3,12(sp)
    c694:	02074763          	bltz	a4,c6c2 <_vfiprintf_r+0x196>
    c698:	ce3a                	sw	a4,28(sp)
    c69a:	2018                	lbu	a4,0(s0)
    c69c:	02e00793          	li	a5,46
    c6a0:	04f71d63          	bne	a4,a5,c6fa <_vfiprintf_r+0x1ce>
    c6a4:	3018                	lbu	a4,1(s0)
    c6a6:	02a00793          	li	a5,42
    c6aa:	02f71b63          	bne	a4,a5,c6e0 <_vfiprintf_r+0x1b4>
    c6ae:	47b2                	lw	a5,12(sp)
    c6b0:	0409                	addi	s0,s0,2
    c6b2:	00478713          	addi	a4,a5,4
    c6b6:	439c                	lw	a5,0(a5)
    c6b8:	c63a                	sw	a4,12(sp)
    c6ba:	0207c163          	bltz	a5,c6dc <_vfiprintf_r+0x1b0>
    c6be:	ca3e                	sw	a5,20(sp)
    c6c0:	a82d                	j	c6fa <_vfiprintf_r+0x1ce>
    c6c2:	40e00733          	neg	a4,a4
    c6c6:	0027e793          	ori	a5,a5,2
    c6ca:	ce3a                	sw	a4,28(sp)
    c6cc:	c83e                	sw	a5,16(sp)
    c6ce:	b7f1                	j	c69a <_vfiprintf_r+0x16e>
    c6d0:	036787b3          	mul	a5,a5,s6
    c6d4:	4685                	li	a3,1
    c6d6:	842e                	mv	s0,a1
    c6d8:	97ba                	add	a5,a5,a4
    c6da:	b781                	j	c61a <_vfiprintf_r+0xee>
    c6dc:	57fd                	li	a5,-1
    c6de:	b7c5                	j	c6be <_vfiprintf_r+0x192>
    c6e0:	0405                	addi	s0,s0,1
    c6e2:	ca02                	sw	zero,20(sp)
    c6e4:	4681                	li	a3,0
    c6e6:	4781                	li	a5,0
    c6e8:	4625                	li	a2,9
    c6ea:	2018                	lbu	a4,0(s0)
    c6ec:	00140593          	addi	a1,s0,1
    c6f0:	fd070713          	addi	a4,a4,-48
    c6f4:	06e67463          	bgeu	a2,a4,c75c <_vfiprintf_r+0x230>
    c6f8:	f2f9                	bnez	a3,c6be <_vfiprintf_r+0x192>
    c6fa:	200c                	lbu	a1,0(s0)
    c6fc:	460d                	li	a2,3
    c6fe:	00008517          	auipc	a0,0x8
    c702:	7b650513          	addi	a0,a0,1974 # 14eb4 <__sf_fake_stdout+0x28>
    c706:	2d89                	jal	cd58 <memchr>
    c708:	cd11                	beqz	a0,c724 <_vfiprintf_r+0x1f8>
    c70a:	00008797          	auipc	a5,0x8
    c70e:	7aa78793          	addi	a5,a5,1962 # 14eb4 <__sf_fake_stdout+0x28>
    c712:	8d1d                	sub	a0,a0,a5
    c714:	04000793          	li	a5,64
    c718:	00a797b3          	sll	a5,a5,a0
    c71c:	4542                	lw	a0,16(sp)
    c71e:	0405                	addi	s0,s0,1
    c720:	8d5d                	or	a0,a0,a5
    c722:	c82a                	sw	a0,16(sp)
    c724:	200c                	lbu	a1,0(s0)
    c726:	4619                	li	a2,6
    c728:	00008517          	auipc	a0,0x8
    c72c:	79050513          	addi	a0,a0,1936 # 14eb8 <__sf_fake_stdout+0x2c>
    c730:	00140913          	addi	s2,s0,1
    c734:	02b10423          	sb	a1,40(sp)
    c738:	2505                	jal	cd58 <memchr>
    c73a:	c135                	beqz	a0,c79e <_vfiprintf_r+0x272>
    c73c:	ffff4797          	auipc	a5,0xffff4
    c740:	8c478793          	addi	a5,a5,-1852 # 0 <_sinit>
    c744:	e795                	bnez	a5,c770 <_vfiprintf_r+0x244>
    c746:	4742                	lw	a4,16(sp)
    c748:	47b2                	lw	a5,12(sp)
    c74a:	10077713          	andi	a4,a4,256
    c74e:	cf09                	beqz	a4,c768 <_vfiprintf_r+0x23c>
    c750:	0791                	addi	a5,a5,4
    c752:	c63e                	sw	a5,12(sp)
    c754:	5792                	lw	a5,36(sp)
    c756:	97d2                	add	a5,a5,s4
    c758:	d23e                	sw	a5,36(sp)
    c75a:	bd2d                	j	c594 <_vfiprintf_r+0x68>
    c75c:	036787b3          	mul	a5,a5,s6
    c760:	4685                	li	a3,1
    c762:	842e                	mv	s0,a1
    c764:	97ba                	add	a5,a5,a4
    c766:	b751                	j	c6ea <_vfiprintf_r+0x1be>
    c768:	079d                	addi	a5,a5,7
    c76a:	9be1                	andi	a5,a5,-8
    c76c:	07a1                	addi	a5,a5,8
    c76e:	b7d5                	j	c752 <_vfiprintf_r+0x226>
    c770:	0078                	addi	a4,sp,12
    c772:	00000697          	auipc	a3,0x0
    c776:	d7868693          	addi	a3,a3,-648 # c4ea <__sfputs_r>
    c77a:	8626                	mv	a2,s1
    c77c:	080c                	addi	a1,sp,16
    c77e:	854e                	mv	a0,s3
    c780:	00000097          	auipc	ra,0x0
    c784:	000000e7          	jalr	zero # 0 <_sinit>
    c788:	57fd                	li	a5,-1
    c78a:	8a2a                	mv	s4,a0
    c78c:	fcf514e3          	bne	a0,a5,c754 <_vfiprintf_r+0x228>
    c790:	24de                	lhu	a5,12(s1)
    c792:	0407f793          	andi	a5,a5,64
    c796:	ec0792e3          	bnez	a5,c65a <_vfiprintf_r+0x12e>
    c79a:	5512                	lw	a0,36(sp)
    c79c:	b5c1                	j	c65c <_vfiprintf_r+0x130>
    c79e:	0078                	addi	a4,sp,12
    c7a0:	00000697          	auipc	a3,0x0
    c7a4:	d4a68693          	addi	a3,a3,-694 # c4ea <__sfputs_r>
    c7a8:	8626                	mv	a2,s1
    c7aa:	080c                	addi	a1,sp,16
    c7ac:	854e                	mv	a0,s3
    c7ae:	2a01                	jal	c8be <_printf_i>
    c7b0:	bfe1                	j	c788 <_vfiprintf_r+0x25c>

0000c7b2 <_printf_common>:
    c7b2:	7179                	addi	sp,sp,-48
    c7b4:	ca56                	sw	s5,20(sp)
    c7b6:	499c                	lw	a5,16(a1)
    c7b8:	8aba                	mv	s5,a4
    c7ba:	4598                	lw	a4,8(a1)
    c7bc:	d422                	sw	s0,40(sp)
    c7be:	d226                	sw	s1,36(sp)
    c7c0:	ce4e                	sw	s3,28(sp)
    c7c2:	cc52                	sw	s4,24(sp)
    c7c4:	d606                	sw	ra,44(sp)
    c7c6:	d04a                	sw	s2,32(sp)
    c7c8:	c85a                	sw	s6,16(sp)
    c7ca:	c65e                	sw	s7,12(sp)
    c7cc:	89aa                	mv	s3,a0
    c7ce:	842e                	mv	s0,a1
    c7d0:	84b2                	mv	s1,a2
    c7d2:	8a36                	mv	s4,a3
    c7d4:	00e7d363          	bge	a5,a4,c7da <_printf_common+0x28>
    c7d8:	87ba                	mv	a5,a4
    c7da:	c09c                	sw	a5,0(s1)
    c7dc:	04344703          	lbu	a4,67(s0)
    c7e0:	c319                	beqz	a4,c7e6 <_printf_common+0x34>
    c7e2:	0785                	addi	a5,a5,1
    c7e4:	c09c                	sw	a5,0(s1)
    c7e6:	401c                	lw	a5,0(s0)
    c7e8:	0207f793          	andi	a5,a5,32
    c7ec:	c781                	beqz	a5,c7f4 <_printf_common+0x42>
    c7ee:	409c                	lw	a5,0(s1)
    c7f0:	0789                	addi	a5,a5,2
    c7f2:	c09c                	sw	a5,0(s1)
    c7f4:	00042903          	lw	s2,0(s0)
    c7f8:	00697913          	andi	s2,s2,6
    c7fc:	00091a63          	bnez	s2,c810 <_printf_common+0x5e>
    c800:	01940b13          	addi	s6,s0,25
    c804:	5bfd                	li	s7,-1
    c806:	445c                	lw	a5,12(s0)
    c808:	4098                	lw	a4,0(s1)
    c80a:	8f99                	sub	a5,a5,a4
    c80c:	04f94c63          	blt	s2,a5,c864 <_printf_common+0xb2>
    c810:	401c                	lw	a5,0(s0)
    c812:	04344683          	lbu	a3,67(s0)
    c816:	0207f793          	andi	a5,a5,32
    c81a:	00d036b3          	snez	a3,a3
    c81e:	eba5                	bnez	a5,c88e <_printf_common+0xdc>
    c820:	04340613          	addi	a2,s0,67
    c824:	85d2                	mv	a1,s4
    c826:	854e                	mv	a0,s3
    c828:	9a82                	jalr	s5
    c82a:	57fd                	li	a5,-1
    c82c:	04f50363          	beq	a0,a5,c872 <_printf_common+0xc0>
    c830:	401c                	lw	a5,0(s0)
    c832:	4611                	li	a2,4
    c834:	4098                	lw	a4,0(s1)
    c836:	8b99                	andi	a5,a5,6
    c838:	4454                	lw	a3,12(s0)
    c83a:	4481                	li	s1,0
    c83c:	00c79763          	bne	a5,a2,c84a <_printf_common+0x98>
    c840:	40e684b3          	sub	s1,a3,a4
    c844:	0004d363          	bgez	s1,c84a <_printf_common+0x98>
    c848:	4481                	li	s1,0
    c84a:	441c                	lw	a5,8(s0)
    c84c:	4818                	lw	a4,16(s0)
    c84e:	00f75463          	bge	a4,a5,c856 <_printf_common+0xa4>
    c852:	8f99                	sub	a5,a5,a4
    c854:	94be                	add	s1,s1,a5
    c856:	4901                	li	s2,0
    c858:	0469                	addi	s0,s0,26
    c85a:	5b7d                	li	s6,-1
    c85c:	05249863          	bne	s1,s2,c8ac <_printf_common+0xfa>
    c860:	4501                	li	a0,0
    c862:	a809                	j	c874 <_printf_common+0xc2>
    c864:	4685                	li	a3,1
    c866:	865a                	mv	a2,s6
    c868:	85d2                	mv	a1,s4
    c86a:	854e                	mv	a0,s3
    c86c:	9a82                	jalr	s5
    c86e:	01751e63          	bne	a0,s7,c88a <_printf_common+0xd8>
    c872:	557d                	li	a0,-1
    c874:	50b2                	lw	ra,44(sp)
    c876:	5422                	lw	s0,40(sp)
    c878:	5492                	lw	s1,36(sp)
    c87a:	5902                	lw	s2,32(sp)
    c87c:	49f2                	lw	s3,28(sp)
    c87e:	4a62                	lw	s4,24(sp)
    c880:	4ad2                	lw	s5,20(sp)
    c882:	4b42                	lw	s6,16(sp)
    c884:	4bb2                	lw	s7,12(sp)
    c886:	6145                	addi	sp,sp,48
    c888:	8082                	ret
    c88a:	0905                	addi	s2,s2,1
    c88c:	bfad                	j	c806 <_printf_common+0x54>
    c88e:	00d40733          	add	a4,s0,a3
    c892:	03000613          	li	a2,48
    c896:	04c701a3          	sb	a2,67(a4)
    c89a:	04544703          	lbu	a4,69(s0)
    c89e:	00168793          	addi	a5,a3,1
    c8a2:	97a2                	add	a5,a5,s0
    c8a4:	0689                	addi	a3,a3,2
    c8a6:	04e781a3          	sb	a4,67(a5)
    c8aa:	bf9d                	j	c820 <_printf_common+0x6e>
    c8ac:	4685                	li	a3,1
    c8ae:	8622                	mv	a2,s0
    c8b0:	85d2                	mv	a1,s4
    c8b2:	854e                	mv	a0,s3
    c8b4:	9a82                	jalr	s5
    c8b6:	fb650ee3          	beq	a0,s6,c872 <_printf_common+0xc0>
    c8ba:	0905                	addi	s2,s2,1
    c8bc:	b745                	j	c85c <_printf_common+0xaa>

0000c8be <_printf_i>:
    c8be:	7179                	addi	sp,sp,-48
    c8c0:	d422                	sw	s0,40(sp)
    c8c2:	d226                	sw	s1,36(sp)
    c8c4:	d04a                	sw	s2,32(sp)
    c8c6:	ce4e                	sw	s3,28(sp)
    c8c8:	d606                	sw	ra,44(sp)
    c8ca:	cc52                	sw	s4,24(sp)
    c8cc:	ca56                	sw	s5,20(sp)
    c8ce:	c85a                	sw	s6,16(sp)
    c8d0:	89b6                	mv	s3,a3
    c8d2:	2d94                	lbu	a3,24(a1)
    c8d4:	06900793          	li	a5,105
    c8d8:	8932                	mv	s2,a2
    c8da:	84aa                	mv	s1,a0
    c8dc:	842e                	mv	s0,a1
    c8de:	04358613          	addi	a2,a1,67
    c8e2:	02f68d63          	beq	a3,a5,c91c <_printf_i+0x5e>
    c8e6:	06d7e263          	bltu	a5,a3,c94a <_printf_i+0x8c>
    c8ea:	05800793          	li	a5,88
    c8ee:	18f68663          	beq	a3,a5,ca7a <_printf_i+0x1bc>
    c8f2:	00d7ed63          	bltu	a5,a3,c90c <_printf_i+0x4e>
    c8f6:	20068e63          	beqz	a3,cb12 <_printf_i+0x254>
    c8fa:	04300793          	li	a5,67
    c8fe:	0af68e63          	beq	a3,a5,c9ba <_printf_i+0xfc>
    c902:	04240a93          	addi	s5,s0,66
    c906:	04d40123          	sb	a3,66(s0)
    c90a:	a0c9                	j	c9cc <_printf_i+0x10e>
    c90c:	06300793          	li	a5,99
    c910:	0af68563          	beq	a3,a5,c9ba <_printf_i+0xfc>
    c914:	06400793          	li	a5,100
    c918:	fef695e3          	bne	a3,a5,c902 <_printf_i+0x44>
    c91c:	401c                	lw	a5,0(s0)
    c91e:	4308                	lw	a0,0(a4)
    c920:	0807f693          	andi	a3,a5,128
    c924:	00450593          	addi	a1,a0,4
    c928:	c6c5                	beqz	a3,c9d0 <_printf_i+0x112>
    c92a:	411c                	lw	a5,0(a0)
    c92c:	c30c                	sw	a1,0(a4)
    c92e:	0007d863          	bgez	a5,c93e <_printf_i+0x80>
    c932:	02d00713          	li	a4,45
    c936:	40f007b3          	neg	a5,a5
    c93a:	04e401a3          	sb	a4,67(s0)
    c93e:	00008697          	auipc	a3,0x8
    c942:	58268693          	addi	a3,a3,1410 # 14ec0 <__sf_fake_stdout+0x34>
    c946:	4729                	li	a4,10
    c948:	a865                	j	ca00 <_printf_i+0x142>
    c94a:	07000793          	li	a5,112
    c94e:	16f68263          	beq	a3,a5,cab2 <_printf_i+0x1f4>
    c952:	02d7e563          	bltu	a5,a3,c97c <_printf_i+0xbe>
    c956:	06e00793          	li	a5,110
    c95a:	18f68963          	beq	a3,a5,caec <_printf_i+0x22e>
    c95e:	06f00793          	li	a5,111
    c962:	faf690e3          	bne	a3,a5,c902 <_printf_i+0x44>
    c966:	400c                	lw	a1,0(s0)
    c968:	431c                	lw	a5,0(a4)
    c96a:	0805f813          	andi	a6,a1,128
    c96e:	00478513          	addi	a0,a5,4
    c972:	06080763          	beqz	a6,c9e0 <_printf_i+0x122>
    c976:	c308                	sw	a0,0(a4)
    c978:	439c                	lw	a5,0(a5)
    c97a:	a885                	j	c9ea <_printf_i+0x12c>
    c97c:	07500793          	li	a5,117
    c980:	fef683e3          	beq	a3,a5,c966 <_printf_i+0xa8>
    c984:	07800793          	li	a5,120
    c988:	12f68963          	beq	a3,a5,caba <_printf_i+0x1fc>
    c98c:	07300793          	li	a5,115
    c990:	f6f699e3          	bne	a3,a5,c902 <_printf_i+0x44>
    c994:	431c                	lw	a5,0(a4)
    c996:	41d0                	lw	a2,4(a1)
    c998:	4581                	li	a1,0
    c99a:	00478693          	addi	a3,a5,4
    c99e:	c314                	sw	a3,0(a4)
    c9a0:	0007aa83          	lw	s5,0(a5)
    c9a4:	8556                	mv	a0,s5
    c9a6:	2e4d                	jal	cd58 <memchr>
    c9a8:	c501                	beqz	a0,c9b0 <_printf_i+0xf2>
    c9aa:	41550533          	sub	a0,a0,s5
    c9ae:	c048                	sw	a0,4(s0)
    c9b0:	405c                	lw	a5,4(s0)
    c9b2:	c81c                	sw	a5,16(s0)
    c9b4:	040401a3          	sb	zero,67(s0)
    c9b8:	a861                	j	ca50 <_printf_i+0x192>
    c9ba:	431c                	lw	a5,0(a4)
    c9bc:	04240a93          	addi	s5,s0,66
    c9c0:	00478693          	addi	a3,a5,4
    c9c4:	439c                	lw	a5,0(a5)
    c9c6:	c314                	sw	a3,0(a4)
    c9c8:	04f40123          	sb	a5,66(s0)
    c9cc:	4785                	li	a5,1
    c9ce:	b7d5                	j	c9b2 <_printf_i+0xf4>
    c9d0:	0407f693          	andi	a3,a5,64
    c9d4:	411c                	lw	a5,0(a0)
    c9d6:	c30c                	sw	a1,0(a4)
    c9d8:	dab9                	beqz	a3,c92e <_printf_i+0x70>
    c9da:	07c2                	slli	a5,a5,0x10
    c9dc:	87c1                	srai	a5,a5,0x10
    c9de:	bf81                	j	c92e <_printf_i+0x70>
    c9e0:	0405f593          	andi	a1,a1,64
    c9e4:	c308                	sw	a0,0(a4)
    c9e6:	d9c9                	beqz	a1,c978 <_printf_i+0xba>
    c9e8:	239e                	lhu	a5,0(a5)
    c9ea:	06f00713          	li	a4,111
    c9ee:	0ee68763          	beq	a3,a4,cadc <_printf_i+0x21e>
    c9f2:	00008697          	auipc	a3,0x8
    c9f6:	4ce68693          	addi	a3,a3,1230 # 14ec0 <__sf_fake_stdout+0x34>
    c9fa:	4729                	li	a4,10
    c9fc:	040401a3          	sb	zero,67(s0)
    ca00:	404c                	lw	a1,4(s0)
    ca02:	c40c                	sw	a1,8(s0)
    ca04:	0005c563          	bltz	a1,ca0e <_printf_i+0x150>
    ca08:	4008                	lw	a0,0(s0)
    ca0a:	996d                	andi	a0,a0,-5
    ca0c:	c008                	sw	a0,0(s0)
    ca0e:	e399                	bnez	a5,ca14 <_printf_i+0x156>
    ca10:	8ab2                	mv	s5,a2
    ca12:	cd89                	beqz	a1,ca2c <_printf_i+0x16e>
    ca14:	8ab2                	mv	s5,a2
    ca16:	02e7f5b3          	remu	a1,a5,a4
    ca1a:	1afd                	addi	s5,s5,-1
    ca1c:	95b6                	add	a1,a1,a3
    ca1e:	218c                	lbu	a1,0(a1)
    ca20:	00ba8023          	sb	a1,0(s5)
    ca24:	02e7d5b3          	divu	a1,a5,a4
    ca28:	0ce7f063          	bgeu	a5,a4,cae8 <_printf_i+0x22a>
    ca2c:	47a1                	li	a5,8
    ca2e:	00f71e63          	bne	a4,a5,ca4a <_printf_i+0x18c>
    ca32:	401c                	lw	a5,0(s0)
    ca34:	8b85                	andi	a5,a5,1
    ca36:	cb91                	beqz	a5,ca4a <_printf_i+0x18c>
    ca38:	4058                	lw	a4,4(s0)
    ca3a:	481c                	lw	a5,16(s0)
    ca3c:	00e7c763          	blt	a5,a4,ca4a <_printf_i+0x18c>
    ca40:	03000793          	li	a5,48
    ca44:	fefa8fa3          	sb	a5,-1(s5)
    ca48:	1afd                	addi	s5,s5,-1
    ca4a:	41560633          	sub	a2,a2,s5
    ca4e:	c810                	sw	a2,16(s0)
    ca50:	874e                	mv	a4,s3
    ca52:	86ca                	mv	a3,s2
    ca54:	0070                	addi	a2,sp,12
    ca56:	85a2                	mv	a1,s0
    ca58:	8526                	mv	a0,s1
    ca5a:	d59ff0ef          	jal	ra,c7b2 <_printf_common>
    ca5e:	5a7d                	li	s4,-1
    ca60:	0b451d63          	bne	a0,s4,cb1a <_printf_i+0x25c>
    ca64:	557d                	li	a0,-1
    ca66:	50b2                	lw	ra,44(sp)
    ca68:	5422                	lw	s0,40(sp)
    ca6a:	5492                	lw	s1,36(sp)
    ca6c:	5902                	lw	s2,32(sp)
    ca6e:	49f2                	lw	s3,28(sp)
    ca70:	4a62                	lw	s4,24(sp)
    ca72:	4ad2                	lw	s5,20(sp)
    ca74:	4b42                	lw	s6,16(sp)
    ca76:	6145                	addi	sp,sp,48
    ca78:	8082                	ret
    ca7a:	04d582a3          	sb	a3,69(a1)
    ca7e:	00008697          	auipc	a3,0x8
    ca82:	44268693          	addi	a3,a3,1090 # 14ec0 <__sf_fake_stdout+0x34>
    ca86:	400c                	lw	a1,0(s0)
    ca88:	4308                	lw	a0,0(a4)
    ca8a:	0805f813          	andi	a6,a1,128
    ca8e:	411c                	lw	a5,0(a0)
    ca90:	0511                	addi	a0,a0,4
    ca92:	02080d63          	beqz	a6,cacc <_printf_i+0x20e>
    ca96:	c308                	sw	a0,0(a4)
    ca98:	0015f713          	andi	a4,a1,1
    ca9c:	c701                	beqz	a4,caa4 <_printf_i+0x1e6>
    ca9e:	0205e593          	ori	a1,a1,32
    caa2:	c00c                	sw	a1,0(s0)
    caa4:	4741                	li	a4,16
    caa6:	fbb9                	bnez	a5,c9fc <_printf_i+0x13e>
    caa8:	400c                	lw	a1,0(s0)
    caaa:	fdf5f593          	andi	a1,a1,-33
    caae:	c00c                	sw	a1,0(s0)
    cab0:	b7b1                	j	c9fc <_printf_i+0x13e>
    cab2:	419c                	lw	a5,0(a1)
    cab4:	0207e793          	ori	a5,a5,32
    cab8:	c19c                	sw	a5,0(a1)
    caba:	07800793          	li	a5,120
    cabe:	04f402a3          	sb	a5,69(s0)
    cac2:	00008697          	auipc	a3,0x8
    cac6:	41268693          	addi	a3,a3,1042 # 14ed4 <__sf_fake_stdout+0x48>
    caca:	bf75                	j	ca86 <_printf_i+0x1c8>
    cacc:	0405f813          	andi	a6,a1,64
    cad0:	c308                	sw	a0,0(a4)
    cad2:	fc0803e3          	beqz	a6,ca98 <_printf_i+0x1da>
    cad6:	07c2                	slli	a5,a5,0x10
    cad8:	83c1                	srli	a5,a5,0x10
    cada:	bf7d                	j	ca98 <_printf_i+0x1da>
    cadc:	00008697          	auipc	a3,0x8
    cae0:	3e468693          	addi	a3,a3,996 # 14ec0 <__sf_fake_stdout+0x34>
    cae4:	4721                	li	a4,8
    cae6:	bf19                	j	c9fc <_printf_i+0x13e>
    cae8:	87ae                	mv	a5,a1
    caea:	b735                	j	ca16 <_printf_i+0x158>
    caec:	4194                	lw	a3,0(a1)
    caee:	431c                	lw	a5,0(a4)
    caf0:	49cc                	lw	a1,20(a1)
    caf2:	0806f813          	andi	a6,a3,128
    caf6:	00478513          	addi	a0,a5,4
    cafa:	00080663          	beqz	a6,cb06 <_printf_i+0x248>
    cafe:	c308                	sw	a0,0(a4)
    cb00:	439c                	lw	a5,0(a5)
    cb02:	c38c                	sw	a1,0(a5)
    cb04:	a039                	j	cb12 <_printf_i+0x254>
    cb06:	c308                	sw	a0,0(a4)
    cb08:	0406f693          	andi	a3,a3,64
    cb0c:	439c                	lw	a5,0(a5)
    cb0e:	daf5                	beqz	a3,cb02 <_printf_i+0x244>
    cb10:	a38e                	sh	a1,0(a5)
    cb12:	00042823          	sw	zero,16(s0)
    cb16:	8ab2                	mv	s5,a2
    cb18:	bf25                	j	ca50 <_printf_i+0x192>
    cb1a:	4814                	lw	a3,16(s0)
    cb1c:	8656                	mv	a2,s5
    cb1e:	85ca                	mv	a1,s2
    cb20:	8526                	mv	a0,s1
    cb22:	9982                	jalr	s3
    cb24:	f54500e3          	beq	a0,s4,ca64 <_printf_i+0x1a6>
    cb28:	401c                	lw	a5,0(s0)
    cb2a:	8b89                	andi	a5,a5,2
    cb2c:	e78d                	bnez	a5,cb56 <_printf_i+0x298>
    cb2e:	47b2                	lw	a5,12(sp)
    cb30:	4448                	lw	a0,12(s0)
    cb32:	f2f55ae3          	bge	a0,a5,ca66 <_printf_i+0x1a8>
    cb36:	853e                	mv	a0,a5
    cb38:	b73d                	j	ca66 <_printf_i+0x1a8>
    cb3a:	4685                	li	a3,1
    cb3c:	8656                	mv	a2,s5
    cb3e:	85ca                	mv	a1,s2
    cb40:	8526                	mv	a0,s1
    cb42:	9982                	jalr	s3
    cb44:	f36500e3          	beq	a0,s6,ca64 <_printf_i+0x1a6>
    cb48:	0a05                	addi	s4,s4,1
    cb4a:	445c                	lw	a5,12(s0)
    cb4c:	4732                	lw	a4,12(sp)
    cb4e:	8f99                	sub	a5,a5,a4
    cb50:	fefa45e3          	blt	s4,a5,cb3a <_printf_i+0x27c>
    cb54:	bfe9                	j	cb2e <_printf_i+0x270>
    cb56:	4a01                	li	s4,0
    cb58:	01940a93          	addi	s5,s0,25
    cb5c:	5b7d                	li	s6,-1
    cb5e:	b7f5                	j	cb4a <_printf_i+0x28c>

0000cb60 <_read_r>:
    cb60:	1141                	addi	sp,sp,-16
    cb62:	c422                	sw	s0,8(sp)
    cb64:	842a                	mv	s0,a0
    cb66:	852e                	mv	a0,a1
    cb68:	85b2                	mv	a1,a2
    cb6a:	8636                	mv	a2,a3
    cb6c:	1fff8797          	auipc	a5,0x1fff8
    cb70:	5c07a223          	sw	zero,1476(a5) # 20005130 <errno>
    cb74:	c606                	sw	ra,12(sp)
    cb76:	2c2d                	jal	cdb0 <_read>
    cb78:	57fd                	li	a5,-1
    cb7a:	00f51963          	bne	a0,a5,cb8c <_read_r+0x2c>
    cb7e:	1fff8797          	auipc	a5,0x1fff8
    cb82:	5b278793          	addi	a5,a5,1458 # 20005130 <errno>
    cb86:	439c                	lw	a5,0(a5)
    cb88:	c391                	beqz	a5,cb8c <_read_r+0x2c>
    cb8a:	c01c                	sw	a5,0(s0)
    cb8c:	40b2                	lw	ra,12(sp)
    cb8e:	4422                	lw	s0,8(sp)
    cb90:	0141                	addi	sp,sp,16
    cb92:	8082                	ret

0000cb94 <__swbuf_r>:
    cb94:	1101                	addi	sp,sp,-32
    cb96:	cc22                	sw	s0,24(sp)
    cb98:	ca26                	sw	s1,20(sp)
    cb9a:	c84a                	sw	s2,16(sp)
    cb9c:	ce06                	sw	ra,28(sp)
    cb9e:	c64e                	sw	s3,12(sp)
    cba0:	84aa                	mv	s1,a0
    cba2:	892e                	mv	s2,a1
    cba4:	8432                	mv	s0,a2
    cba6:	c509                	beqz	a0,cbb0 <__swbuf_r+0x1c>
    cba8:	4d1c                	lw	a5,24(a0)
    cbaa:	e399                	bnez	a5,cbb0 <__swbuf_r+0x1c>
    cbac:	a10ff0ef          	jal	ra,bdbc <__sinit>
    cbb0:	00008797          	auipc	a5,0x8
    cbb4:	2bc78793          	addi	a5,a5,700 # 14e6c <__sf_fake_stdin>
    cbb8:	06f41963          	bne	s0,a5,cc2a <__swbuf_r+0x96>
    cbbc:	40c0                	lw	s0,4(s1)
    cbbe:	4c1c                	lw	a5,24(s0)
    cbc0:	c41c                	sw	a5,8(s0)
    cbc2:	245e                	lhu	a5,12(s0)
    cbc4:	8ba1                	andi	a5,a5,8
    cbc6:	c3d1                	beqz	a5,cc4a <__swbuf_r+0xb6>
    cbc8:	481c                	lw	a5,16(s0)
    cbca:	c3c1                	beqz	a5,cc4a <__swbuf_r+0xb6>
    cbcc:	481c                	lw	a5,16(s0)
    cbce:	4008                	lw	a0,0(s0)
    cbd0:	0ff97993          	andi	s3,s2,255
    cbd4:	0ff97913          	andi	s2,s2,255
    cbd8:	8d1d                	sub	a0,a0,a5
    cbda:	485c                	lw	a5,20(s0)
    cbdc:	00f54763          	blt	a0,a5,cbea <__swbuf_r+0x56>
    cbe0:	85a2                	mv	a1,s0
    cbe2:	8526                	mv	a0,s1
    cbe4:	8bcff0ef          	jal	ra,bca0 <_fflush_r>
    cbe8:	e52d                	bnez	a0,cc52 <__swbuf_r+0xbe>
    cbea:	441c                	lw	a5,8(s0)
    cbec:	0505                	addi	a0,a0,1
    cbee:	17fd                	addi	a5,a5,-1
    cbf0:	c41c                	sw	a5,8(s0)
    cbf2:	401c                	lw	a5,0(s0)
    cbf4:	00178713          	addi	a4,a5,1
    cbf8:	c018                	sw	a4,0(s0)
    cbfa:	01378023          	sb	s3,0(a5)
    cbfe:	485c                	lw	a5,20(s0)
    cc00:	00a78863          	beq	a5,a0,cc10 <__swbuf_r+0x7c>
    cc04:	245e                	lhu	a5,12(s0)
    cc06:	8b85                	andi	a5,a5,1
    cc08:	cb89                	beqz	a5,cc1a <__swbuf_r+0x86>
    cc0a:	47a9                	li	a5,10
    cc0c:	00f91763          	bne	s2,a5,cc1a <__swbuf_r+0x86>
    cc10:	85a2                	mv	a1,s0
    cc12:	8526                	mv	a0,s1
    cc14:	88cff0ef          	jal	ra,bca0 <_fflush_r>
    cc18:	ed0d                	bnez	a0,cc52 <__swbuf_r+0xbe>
    cc1a:	40f2                	lw	ra,28(sp)
    cc1c:	4462                	lw	s0,24(sp)
    cc1e:	854a                	mv	a0,s2
    cc20:	44d2                	lw	s1,20(sp)
    cc22:	4942                	lw	s2,16(sp)
    cc24:	49b2                	lw	s3,12(sp)
    cc26:	6105                	addi	sp,sp,32
    cc28:	8082                	ret
    cc2a:	00008797          	auipc	a5,0x8
    cc2e:	26278793          	addi	a5,a5,610 # 14e8c <__sf_fake_stdout>
    cc32:	00f41463          	bne	s0,a5,cc3a <__swbuf_r+0xa6>
    cc36:	4480                	lw	s0,8(s1)
    cc38:	b759                	j	cbbe <__swbuf_r+0x2a>
    cc3a:	00008797          	auipc	a5,0x8
    cc3e:	21278793          	addi	a5,a5,530 # 14e4c <__sf_fake_stderr>
    cc42:	f6f41ee3          	bne	s0,a5,cbbe <__swbuf_r+0x2a>
    cc46:	44c0                	lw	s0,12(s1)
    cc48:	bf9d                	j	cbbe <__swbuf_r+0x2a>
    cc4a:	85a2                	mv	a1,s0
    cc4c:	8526                	mv	a0,s1
    cc4e:	2021                	jal	cc56 <__swsetup_r>
    cc50:	dd35                	beqz	a0,cbcc <__swbuf_r+0x38>
    cc52:	597d                	li	s2,-1
    cc54:	b7d9                	j	cc1a <__swbuf_r+0x86>

0000cc56 <__swsetup_r>:
    cc56:	1141                	addi	sp,sp,-16
    cc58:	81018793          	addi	a5,gp,-2032 # 200000a0 <_impure_ptr>
    cc5c:	c226                	sw	s1,4(sp)
    cc5e:	4384                	lw	s1,0(a5)
    cc60:	c422                	sw	s0,8(sp)
    cc62:	c04a                	sw	s2,0(sp)
    cc64:	c606                	sw	ra,12(sp)
    cc66:	892a                	mv	s2,a0
    cc68:	842e                	mv	s0,a1
    cc6a:	c491                	beqz	s1,cc76 <__swsetup_r+0x20>
    cc6c:	4c9c                	lw	a5,24(s1)
    cc6e:	e781                	bnez	a5,cc76 <__swsetup_r+0x20>
    cc70:	8526                	mv	a0,s1
    cc72:	94aff0ef          	jal	ra,bdbc <__sinit>
    cc76:	00008797          	auipc	a5,0x8
    cc7a:	1f678793          	addi	a5,a5,502 # 14e6c <__sf_fake_stdin>
    cc7e:	02f41b63          	bne	s0,a5,ccb4 <__swsetup_r+0x5e>
    cc82:	40c0                	lw	s0,4(s1)
    cc84:	00c41703          	lh	a4,12(s0)
    cc88:	01071793          	slli	a5,a4,0x10
    cc8c:	83c1                	srli	a5,a5,0x10
    cc8e:	0087f693          	andi	a3,a5,8
    cc92:	eab5                	bnez	a3,cd06 <__swsetup_r+0xb0>
    cc94:	0107f693          	andi	a3,a5,16
    cc98:	ee95                	bnez	a3,ccd4 <__swsetup_r+0x7e>
    cc9a:	47a5                	li	a5,9
    cc9c:	00f92023          	sw	a5,0(s2)
    cca0:	04076713          	ori	a4,a4,64
    cca4:	a45a                	sh	a4,12(s0)
    cca6:	557d                	li	a0,-1
    cca8:	40b2                	lw	ra,12(sp)
    ccaa:	4422                	lw	s0,8(sp)
    ccac:	4492                	lw	s1,4(sp)
    ccae:	4902                	lw	s2,0(sp)
    ccb0:	0141                	addi	sp,sp,16
    ccb2:	8082                	ret
    ccb4:	00008797          	auipc	a5,0x8
    ccb8:	1d878793          	addi	a5,a5,472 # 14e8c <__sf_fake_stdout>
    ccbc:	00f41463          	bne	s0,a5,ccc4 <__swsetup_r+0x6e>
    ccc0:	4480                	lw	s0,8(s1)
    ccc2:	b7c9                	j	cc84 <__swsetup_r+0x2e>
    ccc4:	00008797          	auipc	a5,0x8
    ccc8:	18878793          	addi	a5,a5,392 # 14e4c <__sf_fake_stderr>
    cccc:	faf41ce3          	bne	s0,a5,cc84 <__swsetup_r+0x2e>
    ccd0:	44c0                	lw	s0,12(s1)
    ccd2:	bf4d                	j	cc84 <__swsetup_r+0x2e>
    ccd4:	8b91                	andi	a5,a5,4
    ccd6:	c785                	beqz	a5,ccfe <__swsetup_r+0xa8>
    ccd8:	584c                	lw	a1,52(s0)
    ccda:	c991                	beqz	a1,ccee <__swsetup_r+0x98>
    ccdc:	04440793          	addi	a5,s0,68
    cce0:	00f58563          	beq	a1,a5,ccea <__swsetup_r+0x94>
    cce4:	854a                	mv	a0,s2
    cce6:	c08ff0ef          	jal	ra,c0ee <_free_r>
    ccea:	02042a23          	sw	zero,52(s0)
    ccee:	245e                	lhu	a5,12(s0)
    ccf0:	00042223          	sw	zero,4(s0)
    ccf4:	fdb7f793          	andi	a5,a5,-37
    ccf8:	a45e                	sh	a5,12(s0)
    ccfa:	481c                	lw	a5,16(s0)
    ccfc:	c01c                	sw	a5,0(s0)
    ccfe:	245e                	lhu	a5,12(s0)
    cd00:	0087e793          	ori	a5,a5,8
    cd04:	a45e                	sh	a5,12(s0)
    cd06:	481c                	lw	a5,16(s0)
    cd08:	ef81                	bnez	a5,cd20 <__swsetup_r+0xca>
    cd0a:	245e                	lhu	a5,12(s0)
    cd0c:	20000713          	li	a4,512
    cd10:	2807f793          	andi	a5,a5,640
    cd14:	00e78663          	beq	a5,a4,cd20 <__swsetup_r+0xca>
    cd18:	85a2                	mv	a1,s0
    cd1a:	854a                	mv	a0,s2
    cd1c:	a6cff0ef          	jal	ra,bf88 <__smakebuf_r>
    cd20:	245e                	lhu	a5,12(s0)
    cd22:	0017f713          	andi	a4,a5,1
    cd26:	c31d                	beqz	a4,cd4c <__swsetup_r+0xf6>
    cd28:	485c                	lw	a5,20(s0)
    cd2a:	00042423          	sw	zero,8(s0)
    cd2e:	40f007b3          	neg	a5,a5
    cd32:	cc1c                	sw	a5,24(s0)
    cd34:	481c                	lw	a5,16(s0)
    cd36:	4501                	li	a0,0
    cd38:	fba5                	bnez	a5,cca8 <__swsetup_r+0x52>
    cd3a:	00c41783          	lh	a5,12(s0)
    cd3e:	0807f713          	andi	a4,a5,128
    cd42:	d33d                	beqz	a4,cca8 <__swsetup_r+0x52>
    cd44:	0407e793          	ori	a5,a5,64
    cd48:	a45e                	sh	a5,12(s0)
    cd4a:	bfb1                	j	cca6 <__swsetup_r+0x50>
    cd4c:	8b89                	andi	a5,a5,2
    cd4e:	4701                	li	a4,0
    cd50:	e391                	bnez	a5,cd54 <__swsetup_r+0xfe>
    cd52:	4858                	lw	a4,20(s0)
    cd54:	c418                	sw	a4,8(s0)
    cd56:	bff9                	j	cd34 <__swsetup_r+0xde>

0000cd58 <memchr>:
    cd58:	0ff5f593          	andi	a1,a1,255
    cd5c:	962a                	add	a2,a2,a0
    cd5e:	00c51463          	bne	a0,a2,cd66 <memchr+0xe>
    cd62:	4501                	li	a0,0
    cd64:	8082                	ret
    cd66:	211c                	lbu	a5,0(a0)
    cd68:	feb78ee3          	beq	a5,a1,cd64 <memchr+0xc>
    cd6c:	0505                	addi	a0,a0,1
    cd6e:	bfc5                	j	cd5e <memchr+0x6>

0000cd70 <_close>:
    cd70:	05800793          	li	a5,88
    cd74:	1fff8717          	auipc	a4,0x1fff8
    cd78:	3af72e23          	sw	a5,956(a4) # 20005130 <errno>
    cd7c:	557d                	li	a0,-1
    cd7e:	8082                	ret

0000cd80 <_fstat>:
    cd80:	05800793          	li	a5,88
    cd84:	1fff8717          	auipc	a4,0x1fff8
    cd88:	3af72623          	sw	a5,940(a4) # 20005130 <errno>
    cd8c:	557d                	li	a0,-1
    cd8e:	8082                	ret

0000cd90 <_isatty>:
    cd90:	05800793          	li	a5,88
    cd94:	1fff8717          	auipc	a4,0x1fff8
    cd98:	38f72e23          	sw	a5,924(a4) # 20005130 <errno>
    cd9c:	4501                	li	a0,0
    cd9e:	8082                	ret

0000cda0 <_lseek>:
    cda0:	05800793          	li	a5,88
    cda4:	1fff8717          	auipc	a4,0x1fff8
    cda8:	38f72623          	sw	a5,908(a4) # 20005130 <errno>
    cdac:	557d                	li	a0,-1
    cdae:	8082                	ret

0000cdb0 <_read>:
    cdb0:	05800793          	li	a5,88
    cdb4:	1fff8717          	auipc	a4,0x1fff8
    cdb8:	36f72e23          	sw	a5,892(a4) # 20005130 <errno>
    cdbc:	557d                	li	a0,-1
    cdbe:	8082                	ret

0000cdc0 <_sbrk>:
    cdc0:	1fff3797          	auipc	a5,0x1fff3
    cdc4:	39478793          	addi	a5,a5,916 # 20000154 <heap_end.1518>
    cdc8:	439c                	lw	a5,0(a5)
    cdca:	cb81                	beqz	a5,cdda <_sbrk+0x1a>
    cdcc:	953e                	add	a0,a0,a5
    cdce:	1fff3717          	auipc	a4,0x1fff3
    cdd2:	38a72323          	sw	a0,902(a4) # 20000154 <heap_end.1518>
    cdd6:	853e                	mv	a0,a5
    cdd8:	8082                	ret
    cdda:	1fff8797          	auipc	a5,0x1fff8
    cdde:	35a78793          	addi	a5,a5,858 # 20005134 <_ebss>
    cde2:	953e                	add	a0,a0,a5
    cde4:	1fff3717          	auipc	a4,0x1fff3
    cde8:	36a72823          	sw	a0,880(a4) # 20000154 <heap_end.1518>
    cdec:	853e                	mv	a0,a5
    cdee:	8082                	ret

0000cdf0 <_write>:
    cdf0:	05800793          	li	a5,88
    cdf4:	1fff8717          	auipc	a4,0x1fff8
    cdf8:	32f72e23          	sw	a5,828(a4) # 20005130 <errno>
    cdfc:	557d                	li	a0,-1
    cdfe:	8082                	ret

0000ce00 <Bi>:
    ce00:	3b85 018c f1bd ff24 25f8 01c3 dc60 0037     .;....$..%..`.7.
    ce10:	4cb7 ff3e 42c3 003d 4c32 01a4 a4e1 ff4c     .L>..B=.2L....L.
    ce20:	3d4c ffa3 3e75 001f 9151 ff40 4176 000e     L=..u>..Q.@.vA..
    ce30:	73a2 ffd6 8a06 002e e67c fff4 8a0a 008f     .s......|.......
    ce40:	1a34 00c2 f4b8 004c 8f81 0129 f4be ff13     4.....L...).....
    ce50:	aa7b ff7a 8162 0044 d579 0093 6556 ff1e     {.z.b.D.y...Ve..
    ce60:	67a1 009b 598c ff43 e5ef 01be 0b43 00b5     .g...YC.....C...
    ce70:	f0c6 fe89 45ee ffbc 9743 00ee 2a13 ff6c     .....E..C....*l.
    ce80:	55e5 0171 4432 ff87 6a11 0009 6732 ff01     .Uq.2D...j..2g..
    ce90:	0150 01a8 9823 ff1e a810 01b9 5938 ffe8     P...#.......8Y..
    cea0:	d265 00fc fa29 0047 aacc ff4f 2e0e ffef     e...).G...O.....
    ceb0:	4d50 00ef d6bd ff4b 8d11 00f9 5026 ff4c     PM....K.....&PL.
    cec0:	55be 0075 e456 00aa d89c 01d0 cfc3 ffa4     .Uu.V...........
    ced0:	4296 ff4c e1af ff10 508d 0162 db4c 00f2     .BL......Pb.L...
    cee0:	a2c6 0072 da2e 0098 2b9b fef1 a09b ff68     ..r......+....h.
    cef0:	bb33 00a5 1102 00af 5442 01a0 3af7 001e     3.......BT...:..
    cf00:	4123 fe35 ec45 00bf 862d 01f5 7ba3 00dd     #A5.E...-....{..
    cf10:	6e20 ff14 1734 00a5 d6ba 0047 b0e9 0060      n..4.....G...`.
    cf20:	eff2 0136 5939 008a 0053 ff54 a088 0064     ..6.9Y..S.T...d.
    cf30:	8e5c fe78 7c68 00be b1b5 ff3e 29fa 0055     \.x.h|....>..)U.
    cf40:	8298 012a fc60 00f6 9797 fe3f 85ef 003e     ..*.`.....?...>.
    cf50:	3820 009c a72d ffbd 858e 01b3 5683 00d3      8..-........V..
    cf60:	b3bb fe96 aafa ff0e a3d2 004e 3425 0097     ..........N.%4..
    cf70:	4d63 001a 9cee ffd5 c0d5 01d1 2e49 0054     cM..........I.T.
    cf80:	4114 0129 ce36 004f 83c9 fe92 6faa ff18     .A).6.O......o..
    cf90:	21b1 fe32 26ab ffcb f74e 0074 ddd1 0099     .!2..&..N.t.....
    cfa0:	8085 01b2 2c3a 0019 27c9 013b 13bd 00fc     ....:,...';.....
    cfb0:	e531 01d2 bb75 0075 b3b5 01b8 7200 00db     1...u.u......r..
    cfc0:	5e30 0093 29f5 0038 0d7d fecc adf4 0077     0^...)8.}.....w.
    cfd0:	dd2c fe20 ea54 0014 a0f9 01c6 7eec ffea     ,. .T........~..
    cfe0:	632f fea8 e2aa ff99 b366 00d8 8de2 ff7a     /c......f.....z.
    cff0:	427a fe99 f5b6 0086 e4e3 0119 39d6 ffeb     zB...........9..
    d000:	add8 ff38 e7b5 00d2 8077 ff9d 5f81 ff88     ..8.....w...._..
    d010:	7e6e 0033 a902 ffb7 8207 fe62 b045 ff5e     n~3.......b.E.^.
    d020:	0474 01e3 f2d9 ff91 adca 011f 0169 ff27     t...........i.'.
    d030:	af2e 0045 2fe4 ff3a e0d7 fe45 38cf ff45     ..E../:...E..8E.
    d040:	fe10 ff8b cf17 ffd4 14ca ff7e d55f ff60     ..........~._.`.
    d050:	b009 0021 05c8 ffcf 2af1 fe80 2123 ffc0     ..!......*..#!..
    d060:	e5f8 01c4 1181 0078 67fb ff97 3407 ff70     ......x..g...4p.
    d070:	388c ff42 e228 fff5 46d9 fe25 d6ac ff09     .8B.(....F%.....
    d080:	4348 0186 c092 ffd6 262c 0070 b844 ff4b     HC......,&p.D.K.
    d090:	5ace 00fb eb95 008d aab5 003a f474 00ef     .Z........:.t...
    d0a0:	9d5c 0002 ad66 0062 89e9 0160 317f 00cb     \...f.b...`..1..
    d0b0:	9b05 0094 9417 ff09 7ad3 000c 8622 ff1a     .........z.."...
    d0c0:	ccdb 0088 0886 ff29 53e0 fe2b 1955 00f7     ......)..S+.U...
    d0d0:	7f6d fe00 88a9 0030 77ee ffdb ade7 00d5     m.....0..w......
    d0e0:	12ce fefe ba08 ff07 097e 0107 2a6f 0048     ........~...o*H.
    d0f0:	346f feec 3f60 008d bf93 fe7f 4ecd ffc0     o4..`?.......N..
    d100:	6a0e 01ed dbbb 004c f3af febb 5969 00ad     .j....L.....iY..
    d110:	1955 0159 f3a2 0094 7602 fed1 9e21 0009     U.Y......v..!...
    d120:	a38b ff2e 465d 0028 2a6c fe8e fc6f ff8e     ....]F(.l*..o...
    d130:	df9b 0090 e533 ffa7 fc49 ff9b 745e ff0c     ....3...I...^t..
    d140:	a098 ffda ee9c ff25 eab3 ffcf 00c5 ffb3     ......%.........
    d150:	a49a 008d c4e1 0068 230a fe19 d4d1 fff2     ......h..#......
    d160:	fd61 fede 65b8 00e5 12de 017f 88a4 ff87     a....e..........
    d170:	cf1e fe8c 6192 00f3 c081 fe1a 54c9 ff21     .....a.......T!.
    d180:	0a6f ff4e 5193 ffb2 0404 0018 eea1 ffd7     o.N..Q..........
    d190:	8d06 0021 d735 ff0e b529 ffd0 8be7 009d     ..!.5...).......
    d1a0:	cbb3 ffdd b9ff 0071 e2bd ffac 4271 ffd6     ......q.....qB..
    d1b0:	3eca ff2d 4066 ff08 ae4e fe10 7585 ff44     .>-.f@..N....uD.

0000d1c0 <base>:
    d1c0:	3b85 018c f1bd ff24 25f8 01c3 dc60 0037     .;....$..%..`.7.
    d1d0:	4cb7 ff3e 42c3 003d 4c32 01a4 a4e1 ff4c     .L>..B=.2L....L.
    d1e0:	3d4c ffa3 3e75 001f 9151 ff40 4176 000e     L=..u>..Q.@.vA..
    d1f0:	73a2 ffd6 8a06 002e e67c fff4 8a0a 008f     .s......|.......
    d200:	1a34 00c2 f4b8 004c 8f81 0129 f4be ff13     4.....L...).....
    d210:	aa7b ff7a 8162 0044 d579 0093 6556 ff1e     {.z.b.D.y...Ve..
    d220:	67a1 009b 598c ff43 e5ef 01be 0b43 00b5     .g...YC.....C...
    d230:	f0c6 fe89 45ee ffbc 71ea ff3c ff25 ff39     .....E...q<.%.9.
    d240:	b245 feb6 d080 00b3 1a76 fe7d 0703 ffd6     E.......v.}.....
    d250:	32f1 ff4d cb55 ffc5 87d3 fffa 3019 ff64     .2M.U........0d.
    d260:	d5bb feb4 5811 0069 d153 019e 7305 0062     .....Xi.S....sb.
    d270:	ae04 fe3c 37ab ff6e b5d9 ff11 bc14 00aa     ..<..7n.........
    d280:	9c92 fe66 d657 ffae 7a72 019b 2ce9 00aa     ..f.W...rz...,..
    d290:	087f 01ef ecd6 00ea 05af 00db 6a31 ff3d     ............1j=.
    d2a0:	4206 ffd0 6a02 ff6e ea51 ff13 6bd7 ffc0     .B...jn.Q....k..
    d2b0:	9743 00ee 2a13 ff6c 55e5 0171 4432 ff87     C....*l..Uq.2D..
    d2c0:	6a11 0009 6732 ff01 0150 01a8 9823 ff1e     .j..2g..P...#...
    d2d0:	a810 01b9 5938 ffe8 d265 00fc fa29 0047     ....8Y..e...).G.
    d2e0:	aacc ff4f 2e0e ffef 4d50 00ef d6bd ff4b     ..O.....PM....K.
    d2f0:	8d11 00f9 5026 ff4c 55be 0075 e456 00aa     ....&PL..Uu.V...
    d300:	d89c 01d0 cfc3 ffa4 4296 ff4c e1af ff10     .........BL.....
    d310:	508d 0162 db4c 00f2 a2c6 0072 da2e 0098     .Pb.L.....r.....
    d320:	2b9b fef1 a09b ff68 09b2 fefc 6e64 00d4     .+....h.....dn..
    d330:	050e 00a7 efe9 ffa3 971c 019d 9265 ff0a     ............e...
    d340:	9efe fe46 f947 00e4 1e58 0032 3a44 ffa0     ..F.G...X.2.D:..
    d350:	18bf 0168 4281 ff81 32c0 ff55 b308 ff8a     ..h..B...2U.....
    d360:	fa26 00c9 5073 00a0 e683 0071 587d 0093     &...sP....q.}X..
    d370:	445a 00c7 4cfd 009e ff1c 0076 fa71 00fe     ZD...L....v.q...
    d380:	4b42 002e dae6 002b 78e5 01ba 4494 002b     BK....+..x...D+.
    d390:	7c88 01ee 6bbb ffc5 3554 fff6 7433 fffe     .|...k..T5..3t..
    d3a0:	bb33 00a5 1102 00af 5442 01a0 3af7 001e     3.......BT...:..
    d3b0:	4123 fe35 ec45 00bf 862d 01f5 7ba3 00dd     #A5.E...-....{..
    d3c0:	6e20 ff14 1734 00a5 d6ba 0047 b0e9 0060      n..4.....G...`.
    d3d0:	eff2 0136 5939 008a 0053 ff54 a088 0064     ..6.9Y..S.T...d.
    d3e0:	8e5c fe78 7c68 00be b1b5 ff3e 29fa 0055     \.x.h|....>..)U.
    d3f0:	8298 012a fc60 00f6 9797 fe3f 85ef 003e     ..*.`.....?...>.
    d400:	3820 009c a72d ffbd 858e 01b3 5683 00d3      8..-........V..
    d410:	b3bb fe96 aafa ff0e 7144 ff15 bade ff3b     ........Dq....;.
    d420:	0742 01f1 0645 0048 9c56 fe6c a737 0059     B...E.H.V.l.7.Y.
    d430:	346d fedb b00d ff17 2cc4 ff6a 95ef ff47     m4.......,j...G.
    d440:	8ca4 ff7d ad9f 0001 2933 00e7 3e91 0021     ..}.....3)...>!.
    d450:	6f8a 015d 53b9 0045 7390 002e 9761 ff10     .o]..SE..s..a...
    d460:	e418 001a d931 00e2 4b71 feea 99c1 ff0c     ....1...qK......
    d470:	30b6 ff60 0d0e 001a c380 fef9 c145 003b     .0`.........E.;.
    d480:	2584 fe51 6a7d 003c f0d6 01a9 e3a4 0042     .%Q.}j<.......B.
    d490:	a3d2 004e 3425 0097 4d63 001a 9cee ffd5     ..N.%4..cM......
    d4a0:	c0d5 01d1 2e49 0054 4114 0129 ce36 004f     ....I.T..A).6.O.
    d4b0:	83c9 fe92 6faa ff18 21b1 fe32 26ab ffcb     .....o...!2..&..
    d4c0:	f74e 0074 ddd1 0099 8085 01b2 2c3a 0019     N.t.........:,..
    d4d0:	27c9 013b 13bd 00fc e531 01d2 bb75 0075     .';.....1...u.u.
    d4e0:	b3b5 01b8 7200 00db 5e30 0093 29f5 0038     .....r..0^...)8.
    d4f0:	0d7d fecc adf4 0077 dd2c fe20 ea54 0014     }.....w.,. .T...
    d500:	a0f9 01c6 7eec ffea 3e8f 00dd 5981 ffd6     .....~...>...Y..
    d510:	8b37 fe05 1444 ffbf cc0e 01b2 c323 00d9     7...D.......#...
    d520:	332f 01ce f626 00a5 1bce fe06 579e 0024     /3..&........W$.
    d530:	34d9 ff92 7b7d ffd7 3c55 ff1f 0dab 0007     .4..}{..U<......
    d540:	f5da fe58 23fc 003c d637 ffa0 6585 0038     ..X..#<.7....e8.
    d550:	20e0 fe13 4093 00ea 911a 01a2 7672 007d     . ...@......rv}.
    d560:	fcf8 00fa 5e65 ffc4 8dc6 fee2 2a33 00b6     ....e^......3*..
    d570:	0c87 fe09 ac6d ffd2 ecc5 01c2 41f1 009a     ....m........A..
    d580:	9c30 ff2f 4399 ff37 a5da fe22 b44a 00b3     0./..C7...".J...
    d590:	42da 0147 7a58 0063 b5d4 ffdb 2a5c ffe7     .BG.Xzc.....\*..
    d5a0:	00ef 009a 4df5 ffb7 515e 01aa d512 00d8     .....M..^Q......
    d5b0:	5dab 0047 5e34 00f8 9712 fea1 d1c5 ff42     .]G.4^........B.
    d5c0:	f4ae fe0f 30a2 00b7 3d31 fef0 5db6 00c3     .....0..1=...]..
    d5d0:	e4c7 0106 05c8 ff11 2d89 ffed 946c 0004     .........-..l...
    d5e0:	4f5a ffed 3f27 ff4d 5235 01cf 168e ff76     ZO..'?M.5R....v.
    d5f0:	e865 0112 1a5c 0043 c805 ff58 a821 ff8a     e...\.C...X.!...
    d600:	e195 0048 d102 ff1b f52c 01a8 eddc ff11     ..H.....,.......
    d610:	d31e fe69 ee8d 00dd 5080 fef5 fe6f 000e     ..i......P..o...
    d620:	5fde 01be 09df 00f1 4c92 ffd4 cd6c ff68     ._.......L..l.h.
    d630:	753f 0099 4590 0030 e423 006f 21c0 ffc1     ?u...E0.#.o..!..
    d640:	d670 febe 9873 0097 6617 0058 4a33 00f8     p...s....fX.3J..
    d650:	c7e2 fe8f a2cc ff65 61d0 01bd 68f5 0012     ......e..a...h..
    d660:	f6e6 ff1e 9417 0045 586e fe34 b5e2 ff59     ......E.nX4...Y.
    d670:	2fd0 fe5a a172 ff50 7421 00f8 98b3 ff57     ./Z.r.P.!t....W.
    d680:	9045 01b1 ee58 ff1a 203a 0171 4d01 0045     E...X...: q..ME.
    d690:	793b ff34 ee98 0053 0834 00c1 27e7 ffe9     ;y4...S.4....'..
    d6a0:	22c7 008a 44de 00ad 395b fef2 d2dc ff7f     ."...D..[9......
    d6b0:	07c0 fef6 2397 00bb ecc3 00a5 5d6f 00ce     .....#......o]..
    d6c0:	f7d4 0185 859a ffd1 e79b 000a 4e40 0026     ............@N&.
    d6d0:	f97a 0164 131e ff61 5b3e 01f9 85f8 004d     z.d...a.>[....M.
    d6e0:	3fc5 fea8 0a74 0052 ecb8 fe71 cbd4 ffc2     .?..t.R...q.....
    d6f0:	643d fefc 0524 ffca 5b77 ff99 4f81 001d     =d..$...w[...O..
    d700:	6767 feab d7ed ff6f 35d8 0045 f0ef 0017     gg....o..5E.....
    d710:	95c2 ffdd e126 00de ffe8 feb4 5276 ff85     ....&.......vR..
    d720:	d139 01b1 e88b 0085 b09e fe2e 73c2 002e     9............s..
    d730:	f758 01e5 671c 00bf dedd feaf eb95 002c     X....g........,.
    d740:	e497 fe19 69da 0067 558e 00d2 8195 ffbe     .....ig..U......
    d750:	41d5 fe5e 8675 ffe0 c652 0075 dd9d 00dc     .A^.u...R.u.....
    d760:	65a3 0024 72c5 0025 ac68 fea6 b60b 0000     .e$..r%.h.......
    d770:	4851 ffbc bc61 ff10 0645 000a 93c7 ff91     QH..a...E.......
    d780:	0908 0173 d641 ffaf add9 00d1 7f50 00a6     ..s.A.......P...
    d790:	e5f7 fe04 b7a7 ff7c 1c5a fecc 3baf fff0     ......|.Z....;..
    d7a0:	290b 01f8 286c ff33 b190 fec3 fa96 007e     .)..l(3.......~.
    d7b0:	5b8a 0141 3c78 ffde c1f5 00ef d61d ffbd     .[A.x<..........
    d7c0:	0280 0019 9a50 00a2 dc4d 016b cdea ff4a     ....P...M.k...J.
    d7d0:	a636 ff67 4874 0009 5ee4 ff2f c81e ff19     6.g.tH...^/.....
    d7e0:	d623 ff59 b03d ff8c e253 ffa3 824b 00ac     #.Y.=...S...K...
    d7f0:	2680 0011 895f ff98 7cd7 019f 5d4f 0000     .&.._....|..O]..
    d800:	5294 fe9d 82c3 fffb ca28 ff4c 7efb 00e0     .R......(.L..~..
    d810:	639d fe3e 07cf ffe1 4460 00c3 ba8c ff9d     .c>.....`D......
    d820:	1383 ffe7 802a 00fe db34 fe3d cb66 0048     ....*...4.=.f.H.
    d830:	078d ff0b a4ba 00d5 7a1f 0077 f285 0091     .........zw.....
    d840:	fcd0 ffe8 d55b ffb6 048f fefa d7f9 004a     ....[.........J.
    d850:	1ea5 016f 09ab 00df 7be5 0122 825c ff1a     ..o......{".\...
    d860:	9b4d 012d 8bc3 ff1c e03b 004e 1188 00f7     M.-.....;.N.....
    d870:	796c 0020 fa4f ffbd e360 fefc f126 003e     ly .O...`...&.>.
    d880:	ae3e ff7d 6f9b ff5d e60a 01ce c561 ff28     >.}..o].....a.(.
    d890:	3100 fe39 fa41 000d fb12 ff96 6ddc ffd2     .19.A........m..
    d8a0:	ae05 fea6 812c 00bd 23eb ff93 f725 ff8d     ....,....#..%...
    d8b0:	8d48 ff04 6b67 00ff 5af7 0004 2c35 002a     H...gk...Z..5,*.
    d8c0:	1e02 00f0 3b04 003f 4e58 0024 a771 00b4     .....;?.XN$.q...
    d8d0:	47be ffc1 9ec7 ffa4 083a 00ac 214d 000c     .G......:...M!..
    d8e0:	3f41 0003 4d99 ff21 feac 0166 dde4 ff04     A?...M!...f.....
    d8f0:	1e57 01fe 2992 ff56 cc8a feef 8d6c ff11     W....)V.....l...
    d900:	f2bb 0087 d0d2 007f 2d44 fe0e 6049 003e     ........D-..I`>.
    d910:	3c51 ff18 06aa ff24 f903 001a d523 006d     Q<....$.....#.m.
    d920:	8116 ff36 2315 ffe1 3dea ff38 d93a 0006     ..6..#...=8.:...
    d930:	7c8f 0058 7eec 0042 26d1 ffb7 ee22 ff06     .|X..~B..&.."...
    d940:	91ae 0066 165f 00d3 0fc4 fe99 542e ffe8     ..f._........T..
    d950:	2275 0192 fae7 ff4a 861b 0164 bb5c ffc3     u"....J...d.\...
    d960:	c6aa 0070 1c78 002a 46d1 0043 511d 001f     ..p.x.*..FC..Q..
    d970:	a81d 0164 ada9 00a0 236b 0075 603e ff3b     ..d.....k#u.>`;.
    d980:	0c51 0145 ef87 ffbe fcdc 0012 dca3 ff3a     Q.E...........:.
    d990:	8989 ffbc 6653 006d 0660 004c deea ffd2     ....Sfm.`.L.....
    d9a0:	aeb9 01cd 9e3c ffd5 f10d 00d6 81ac 008c     ....<...........
    d9b0:	685d 00f2 9cc0 00fb 752b 001e 51e1 009e     ]h......+u...Q..
    d9c0:	e87f 00da 1ce2 00cb 1be9 ff97 2b75 ff05     ............u+..
    d9d0:	0ef2 ff2f 1421 0006 fb89 fe2c 1f1b fff5     ../.!.....,.....
    d9e0:	d6b7 fe7d 7928 0095 9eba ffd5 0859 00e3     ..}.(y......Y...
    d9f0:	5845 fe00 87cb 00e1 aec9 00cb 4793 00b8     EX...........G..
    da00:	7912 fe29 055e 004e d6e0 fef0 0524 00b4     .y).^.N.....$...
    da10:	87fb 01e7 8aa3 00d4 f9d2 fe74 8158 00bb     ..........t.X...
    da20:	0813 fe31 0e3e ff90 4c9f 00d3 33d6 0052     ..1.>....L...3R.
    da30:	756d fee4 df67 ffcb fc4b 010f 479a ffdc     mu..g...K....G..
    da40:	0d17 015b a88d ff60 b6b5 0085 33fa 0037     ..[...`......37.
    da50:	eaea fed4 3faf 009e f027 0134 bd9e ff24     .....?..'.4...$.
    da60:	28d5 0155 b420 fff7 6613 011a 1854 ff61     .(U. ....f..T.a.
    da70:	1545 00de 8b94 ff7a d5dc 01eb cbe8 00ff     E.....z.........
    da80:	3979 0093 07e3 009a 1635 0193 0148 00e1     y9......5...H...
    da90:	8652 fe30 3c53 ff9d 4891 00a9 6722 00ef     R.0.S<...H.."g..
    daa0:	e9c6 002f 1374 ff04 6ab8 ff09 81b7 0053     ../.t....j....S.
    dab0:	b024 01e6 6722 0048 a2db 0086 2af5 009e     $..."gH......*..
    dac0:	9520 fe60 2ca5 0090 efca fe48 96d7 0005      .`..,....H.....
    dad0:	422a 0124 d784 00af ae56 ff56 c51a ff9c     *B$.....V.V.....
    dae0:	e831 fe87 b667 0052 80fd 01b0 b299 007a     1...g.R.......z.
    daf0:	faf5 000a 18ec 00b2 6a89 0084 1d28 0029     .........j..(.).
    db00:	1e32 ff98 697c 0026 bfe6 004b 2b8f 00aa     2...|i&...K..+..
    db10:	832c ff14 0d2c ff17 ffed 019b 6d9f ff64     ,...,........md.
    db20:	b570 ff18 dc68 006c d337 0083 0c63 ffd5     p...h.l.7...c...
    db30:	9798 ff91 05ee 009f 9b61 0008 6c21 0051     ........a...!lQ.
    db40:	0301 0067 6d3e ff22 9bfa 00b4 4720 ffc3     ..g.>m"..... G..
    db50:	4626 0191 5f9f 00f5 e545 0165 1c88 00f0     &F..._..E.e.....
    db60:	e04f 0019 6e4e ff79 a8f8 007c 80bb 00f7     O...Nny...|.....
    db70:	9302 feeb 0b4f 0084 3a46 010c 08b5 ffa3     ....O...F:......
    db80:	894f ff85 aa25 ff0b f38d ff55 e7b0 ffd7     O...%.....U.....
    db90:	96cc ffa4 d7ef ff27 572e fe9c a308 ff58     ......'..W....X.
    dba0:	22ac 00e8 2c42 ff66 361b fe29 63ec ff57     ."..B,f..6)..cW.
    dbb0:	7b29 01a9 7234 002b 8675 0028 869b 001a     ){..4r+.u.(.....
    dbc0:	cfe7 fe5b 8423 ff26 6613 fe7d e324 ff85     ..[.#.&..f}.$...
    dbd0:	0376 ff71 0d1d 007c 6098 014a 9258 ffce     v.q...|..`J.X...
    dbe0:	bfa7 fedc 12a2 ff58 64b6 0017 751f 0034     ......X..d...u4.
    dbf0:	2e51 016a 020c 0007 5045 01c9 f6d1 00ac     Q.j.....EP......
    dc00:	300c 018d d3e0 0058 e274 009f 627a 0082     .0....X.t...zb..
    dc10:	ec41 01ea e2e1 ff09 e2cf 017b d659 003b     A.........{.Y.;.
    dc20:	8770 0158 f45a ffcb 0b31 0126 6c81 00ba     p.X.Z...1.&..l..
    dc30:	7059 010f 2e65 ffcc cc7f fe2d ff4f ffdd     Yp..e.....-.O...
    dc40:	4933 ff12 2a7f ff65 15f1 00ca e3a0 0007     3I...*e.........
    dc50:	3269 00ec 344f ffc5 ca68 01d0 0fb4 0010     i2..O4..h.......
    dc60:	c565 ff4e 4d62 00cb b929 01f1 c123 007c     e.N.bM..)...#.|.
    dc70:	9b23 ff17 35cf 00c0 7d0b 01a3 9ef9 ffb9     #....5...}......
    dc80:	8304 0030 5d15 ff6f 793d 01e7 c845 ff24     ..0..]o.=y..E.$.
    dc90:	30b9 ffb9 ee6f ff15 3227 ff19 d763 ffa3     .0..o...'2..c...
    dca0:	d457 ff1e 93a4 ff05 0680 0123 df6c ff6e     W.........#.l.n.
    dcb0:	4cc2 00b2 654a 00b4 2ff3 0030 19ae ff2b     .L..Je.../0...+.
    dcc0:	ad52 01fd 7236 ffc0 3728 005b 6cd7 ffb0     R...6r..(7[..l..
    dcd0:	380b 0007 e9e0 004c 62d1 feca 19f2 007d     .8....L..b....}.
    dce0:	c12c fe5d 08cb 00b1 b087 0013 4770 ffd5     ,.].........pG..
    dcf0:	3bce 01b0 4304 001a 8f0e fed5 372a ffd0     .;...C......*7..
    dd00:	433c 0078 15c1 00a3 a463 0073 140a 0076     <Cx.....c.s...v.
    dd10:	d49c fede 07a0 ffd9 f572 014c 3b75 007b     ........r.L.u;{.
    dd20:	c2b0 fe56 0fd5 00b0 ce4e fecf 81d5 003b     ..V.....N.....;.
    dd30:	fbe9 0116 3760 ff98 ffec ff0f 59c5 ff54     ....`7.......YT.
    dd40:	955d 0085 a0ae 0071 63ea ffa9 7498 0058     ].....q..c...tX.
    dd50:	a490 ff53 1d5f ffc6 2f22 ff0f 7863 ff86     ..S._..."/..cx..
    dd60:	ec05 00c1 f7f9 ff7e bb93 001e e632 ff75     ......~.....2.u.
    dd70:	d96c ffdb 51a3 ffa6 1948 fea9 799b ff4f     l....Q..H....yO.
    dd80:	9b1c fe59 7e07 0011 4193 0121 ea2f 00fd     ..Y..~...A!./...
    dd90:	331a 0012 5369 ffc7 c4a3 00e6 f871 00a4     .3..iS......q...
    dda0:	fee2 00da d1bd ffcb f7a4 fede 23ff 00a5     .............#..
    ddb0:	bc04 01f3 b37f 0047 ed25 fffe ba64 00f0     ......G.%...d...
    ddc0:	3905 fe47 4867 ff49 12f4 fe51 d2e5 ff84     .9G.gHI...Q.....
    ddd0:	06ee ffb4 e50b ffae dde3 01c0 3111 001c     .............1..
    dde0:	d7a3 fec4 7609 ff04 f033 0047 8171 ff6d     .....v..3.G.q.m.
    ddf0:	f04c 00e7 b1bc 007f 477d 012c af1a 00f3     L.......}G,.....
    de00:	a95e fe19 e61b 001d 8b0f 0177 aaa8 ffba     ^.........w.....
    de10:	c5ac ff4c 4bfc 00bc 7c89 00c4 1648 ff60     ..L..K...|..H.`.
    de20:	972d 01f9 91dc 0064 c040 ff9f ef78 00e2     -.....d.@...x...
    de30:	b281 0092 c000 007d 8aeb 00ea 9db7 0092     ......}.........
    de40:	c753 ffc0 acb8 ff48 e149 0080 064d fffa     S.....H.I...M...
    de50:	41ba 0043 f668 00cf 20bc ff8a 18da 00f2     .AC.h.... ......
    de60:	8a43 fe51 81ed ff79 cf14 0196 c729 ff10     C.Q...y.....)...
    de70:	1406 0080 769f 0005 10b5 ff8f 26dc 000f     .....v.......&..
    de80:	4017 fe93 1a49 000d e457 0139 7ccc 0080     .@..I...W.9..|..
    de90:	182b 00df 63db 00c7 4b16 ff14 1b13 007e     +....c...K....~.
    dea0:	3e9d 00d7 1d6e 00e6 a7b3 01ff fc36 00be     .>..n.......6...
    deb0:	ccdd feb6 9eb3 ff41 9d51 0003 dac2 009f     ......A.Q.......
    dec0:	dfaa 0000 0be0 ff20 c526 0062 a4a8 0025     ...... .&.b...%.
    ded0:	5817 0107 baa4 006e 2460 0086 f2ea 00e5     .X....n.`$......
    dee0:	79fa 0013 fef2 ff70 2f03 015e ef09 ff06     .y....p../^.....
    def0:	8651 fe99 fdd6 ffa8 7c43 00e0 5ff5 004a     Q.......C|..._J.
    df00:	1e1c fe2c 6d01 ffdc 59b2 0059 24fc 004c     ..,..m...YY..$L.
    df10:	c618 ff2e 4d4c 006f ea86 ff88 5e27 001d     ....LMo.....'^..
    df20:	48b9 ffea 4446 ff87 66e7 fe07 e74d 008c     .H..FD...f..M...
    df30:	2fa7 013a 6194 ff76 1b10 01e1 cea6 ff8f     ./:..av.........
    df40:	b26e ffd6 83b4 00a2 8d8f 01e1 da0d ff4e     n.............N.
    df50:	9972 0121 6862 00cc 72af 0175 cea7 004b     r.!.bh...ru...K.
    df60:	c4ca 0153 403a 0043 2f8a 016f f7c4 ff80     ..S.:@C../o.....
    df70:	e089 fee0 709e 00cf 649a 01ff 2586 006b     .....p...d...%k.
    df80:	80c6 ff4f d17f ff9b fea3 feb9 0e3c 00f3     ..O.........<...
    df90:	db1f fe70 d91d 0041 0dc8 fe74 3c7b ffc4     ..p...A...t.{<..
    dfa0:	3be0 feb8 59f2 00c4 107b fe4b 1095 00ce     .;...Y..{.K.....
    dfb0:	fe45 0130 74e7 ffdf a0d1 0141 50c8 0062     E.0..t....A..Pb.
    dfc0:	c225 feb8 3f94 0022 f08b ff41 90d9 ff84     %....?"...A.....
    dfd0:	2638 fe2d 78c7 00d2 b16c ffa6 dea0 0004     8&-..x..l.......
    dfe0:	7edc fe77 6ba5 ffa0 dc52 01f8 aff1 0088     .~w..k..R.......
    dff0:	8d90 ff17 8aa9 0054 89a0 ff4e 76e2 ff50     ......T...N..vP.
    e000:	1b34 ff84 603f ff8b fa98 0027 9bbc 000f     4...?`....'.....
    e010:	33e8 fe96 0f28 ffe8 e5f0 ff09 af89 ff1b     .3..(...........
    e020:	494b 0161 d4da 000b 0587 01a2 b96b 00d5     KIa.........k...
    e030:	f902 ff6b f228 0046 c8db 0019 9d19 000d     ..k.(.F.........
    e040:	5243 ff50 f9c4 ff17 1491 0095 4832 0092     CRP.........2H..
    e050:	4c5e 0194 fb18 0041 c01f 0017 d4b8 ffc9     ^L....A.........
    e060:	e97b 01a2 adf7 0048 57a2 fedb 867e 0059     {.....H..W..~.Y.
    e070:	0b9f fe0c 69a6 001d 1b49 01e4 7871 ffb7     .....i..I...qx..
    e080:	a342 016d 8fd4 ff0b e79f 01a8 80ff 005a     B.m...........Z.
    e090:	0e39 fe3a 3459 ff0a 08fd 01a3 9100 ffd2     9.:.Y4..........
    e0a0:	810a 0155 b52e 001b 8867 fea0 bc7e ffd1     ..U.....g...~...
    e0b0:	2322 006f dbd7 ff18 0bd4 fed6 0565 0076     "#o.........e.v.
    e0c0:	c5e8 ff85 a7df ff6d 50ed ff56 8b46 005e     ......m..PV.F.^.
    e0d0:	c19e 01bf 0f9b ff33 be0f 0073 874e ffcf     ......3...s.N...
    e0e0:	0af9 011b 7db5 00e9 ac5f fe0d d5aa ffa1     .....}.._.......
    e0f0:	ec27 ff8a 5d5f ff57 80be 005f 0f7d 00ce     '..._]W..._.}...
    e100:	96a6 009f 0fe3 ff9e 9ece ff78 8d2a 0080     ..........x.*...
    e110:	b265 0178 6d9c 0083 0eda fe2c a8f7 ffce     e.x..m....,.....
    e120:	70d4 001c 1170 ffe4 105a 0125 dec5 006c     .p..p...Z.%...l.
    e130:	cffe ff53 5a09 fff3 f4f3 00ac 581a ff73     ..S..Z.......Xs.
    e140:	74cd 007a e6bf 00c1 64b4 010b 25d9 ff60     .tz......d...%`.
    e150:	4e9a 009c eaeb ff1f b2ce ffb2 c095 00fb     .N..............
    e160:	fab6 0087 16f6 0069 c17c ff6d d202 ff95     ......i.|.m.....
    e170:	11a9 00aa 6000 ff6e 0975 0108 7b32 ff28     .....`n.u...2{(.
    e180:	bdc1 0063 e322 00a0 5030 fe46 33d3 00ec     ..c."...0PF..3..
    e190:	7a2d fef5 ae2c 0008 25ad ffe9 419e 00ab     -z..,....%...A..
    e1a0:	457a ffd7 505a ff02 6a83 fe60 72e3 0087     zE..ZP...j`..r..
    e1b0:	31cd fe77 3eb0 ff40 3352 ff11 14f1 fff3     .1w..>@.R3......
    e1c0:	0d82 fe08 d980 fff3 1ba2 fe01 765a 00f1     ............Zv..
    e1d0:	c6f6 fff6 1037 ff76 9fc8 009d 11a3 0001     ....7.v.........
    e1e0:	6b8c 0079 a155 ff76 0026 0095 2f9c 00ee     .ky.U.v.&..../..
    e1f0:	a609 01a6 624b ffb5 4a32 0019 0f42 002f     ....Kb..2J..B./.
    e200:	e18b 009f 034c ff8e ee0e 00b8 cf0b ff35     ....L.........5.
    e210:	c0b7 01ba 20ab ffae 4cbf 01dd aaf7 00db     ..... ...L......
    e220:	ac19 fe32 09d9 00e9 7ecb ff44 5cb7 0030     ..2......~D..\0.
    e230:	a77f 01b7 3141 00fe 3f10 017f 15fe ffaa     ....A1...?......
    e240:	e03b fe7f 3016 ff3f 4e1b fe82 c328 001d     ;....0?..N..(...
    e250:	84fa fe70 cb23 0090 a968 00a8 fdcf ff1e     ..p.#...h.......
    e260:	2868 fe26 e45e 0058 10ce ff80 37d4 ff7a     h(&.^.X......7z.
    e270:	16df 00ea c5df 007f b5fd 01b5 6691 0076     .............fv.
    e280:	99ec ff24 d9d4 ff48 2614 fe18 3e8a 003e     ..$...H..&...>>.
    e290:	8c98 0004 dce6 ff63 1501 ffd4 c994 00e7     ......c.........
    e2a0:	7bf4 fe09 ab00 00d2 3a33 ff25 ff01 ff0e     .{......3:%.....
    e2b0:	b7f4 fe91 f200 00a6 4a16 0084 d879 0029     .........J..y.).
    e2c0:	c35f fe72 1885 ff97 e29c ffe7 05f7 ff4d     _.r...........M.
    e2d0:	94f6 fe73 5ce1 ff51 50de fef6 7baa ff59     ..s..\Q..P...{Y.
    e2e0:	c74a 008d 141d ff08 888a ff46 4b5d 005c     J.........F.]K\.
    e2f0:	93dd fe31 7e34 00e2 7ce5 0017 092e 00b5     ..1.4~...|......
    e300:	40cd 0134 fe83 001c 9e97 00d4 4083 004e     .@4..........@N.
    e310:	19ce 00ab e600 008b fdbf fe6e f767 00a7     ..........n.g...
    e320:	2840 0128 a52a fff1 4b3b fee4 f37c ffbd     @((.*...;K..|...
    e330:	5cc4 ffb2 8c82 ff56 598d 0138 c693 ff05     .\....V..Y8.....
    e340:	f8cb fe9e a290 008d ac0b 00e2 2a82 ff15     .............*..
    e350:	a701 ff8f 2490 ff24 5830 fea4 aaa8 00dc     .....$$.0X......
    e360:	4762 00d6 d05b 004f 4c9f 01c9 2aa6 ffd6     bG..[.O..L...*..
    e370:	ff45 ff00 8006 ff7d 01be 008c 5392 ffda     E.....}......S..
    e380:	eed7 0148 7f7a 0035 74bd ffa5 0854 ff42     ..H.z.5..t..T.B.
    e390:	03d6 ffd0 6ed5 0085 a8c3 012c e79e 0045     .....n....,...E.
    e3a0:	40a2 fec8 3a5b 0068 3ab6 febb e4f9 0088     .@..[:h..:......
    e3b0:	86cb fe4c dd63 00e9 fe4b fed6 4550 009a     ..L.c...K...PE..
    e3c0:	9840 fef8 88ec ffca 699d fe99 af95 0014     @........i......
    e3d0:	2316 ff13 797c 00e9 faba fec6 e584 008b     .#..|y..........
    e3e0:	5089 ffae 7da5 0044 ca90 fe94 efeb 00f8     .P...}D.........
    e3f0:	b887 0076 5e65 ff11 487a fe46 8245 0092     ..v.e^..zHF.E...
    e400:	de7f 01f8 7f45 ff76 521e fed7 4abc ff13     ....E.v..R...J..
    e410:	a7e5 fec2 1975 ff42 ea41 fe38 16d5 009c     ....u.B.A.8.....
    e420:	3b97 fe5d 1c2d ff1b 7eba ffa4 0620 00ef     .;].-....~.. ...
    e430:	727f 0163 34db ff02 6063 fea6 be3e ff7e     .rc..4..c`..>.~.
    e440:	de6c 01a8 e24b 00ae e2e6 00c7 753c ffda     l...K.......<u..
    e450:	f8fc 0114 bcd6 00cc c21f fe86 457b ffc0     ............{E..
    e460:	ada9 fe24 6237 005b 2adf fe66 0189 0066     ..$.7b[..*f...f.
    e470:	5a9d 0019 7aef ff40 06fc 00e9 3607 ff14     .Z...z@......6..
    e480:	7452 00ae 2587 ff36 ba0f 007d 70e3 ffaf     Rt...%6...}..p..
    e490:	b464 ffe1 ed2a fff4 adf4 fee2 12f8 0021     d...*.........!.
    e4a0:	63ab ff96 eb4a ff32 5275 fe20 a86a 00ed     .c..J.2.uR .j...
    e4b0:	6dcf 01d0 09e4 00ba 3c87 fea9 5cb3 008f     .m.......<...\..
    e4c0:	aaf4 ff68 2deb ff7c 6346 00ba 8975 00b7     ..h..-|.Fc..u...
    e4d0:	1fe0 00d7 0928 0064 101a 015f d944 0057     ....(.d..._.D.W.
    e4e0:	9708 ff14 641a ff3a a5b0 01cb 7634 0046     .....d:.....4vF.
    e4f0:	2007 fefe fef4 fff5 90a7 ffc2 717d ff17     . ..........}q..
    e500:	79b0 00b5 5488 00d1 068a ff1e 3059 001c     .y...T......Y0..
    e510:	9b21 ff0e f019 009a cd8d 016d 7346 ff3e     !.........m.Fs>.
    e520:	2814 fe6b 9a8a ffc7 df5e ffe2 ab9d 0026     .(k.....^.....&.
    e530:	b1a3 fe19 762d ff03 de0e 0117 bed1 ff51     ....-v........Q.
    e540:	7b76 01e8 d50d ff65 377b fe7b f61b 00a5     v{....e.{7{.....
    e550:	6332 ff4c d68c ff20 4161 ff43 0c18 001c     2cL... .aAC.....
    e560:	56ae 014e f740 0060 87a0 0043 3742 fff3     .VN.@.`...C.B7..
    e570:	cc93 ff60 061a ff21 3362 0153 d599 ffd0     ..`...!.b3S.....
    e580:	b802 ff36 da19 000b 4331 fef6 9512 ff48     ..6.....1C....H.
    e590:	190d 0048 4f2a 00d6 042a 0126 8b1b ff90     ..H.*O..*.&.....
    e5a0:	bb95 0017 a412 0084 54f5 feb8 c678 ff68     .........T..x.h.
    e5b0:	da7e 0060 7538 ffea 1d0d fed6 2f44 ff0a     ~.`.8u......D/..
    e5c0:	9aa7 fe84 2698 00c6 b242 ff59 2ec8 ffab     .....&..B.Y.....
    e5d0:	630d ff53 bbd2 fffd 2daa 012a d18a 007c     .cS......-*...|.
    e5e0:	a2d6 008d e60c 009c 2466 fe70 9303 0043     ........f$p...C.
    e5f0:	d734 ff7b abe9 ff36 8962 003e daf7 ff27     4.{...6.b.>...'.
    e600:	dae7 00ec bff7 007f 92c3 0054 b0a5 ff5c     ..........T...\.
    e610:	d413 ff5e 4a11 00e3 2858 0199 93c6 ff01     ..^..J..X(......
    e620:	43ce fef5 03f0 ffda 8d3d ffd5 b761 006a     .C......=...a.j.
    e630:	e8c3 feeb 565f 009a 30d1 fecd d176 fff1     ...._V...0..v...
    e640:	78f0 01df 1dd5 009f 7fa3 ff93 da0d 005d     .x............].
    e650:	1855 fe44 1446 ff50 05bd 018c 6152 fffe     U.D.F.P.....Ra..
    e660:	6363 ffbf 5484 ff85 da6b ff74 7a70 002e     cc...T..k.t.pz..
    e670:	1169 0020 a0c2 ff3f de44 0127 fdd8 005c     i. ...?.D.'...\.
    e680:	69b1 ffcd c995 00c3 e12a ff0b a228 0073     .i......*...(.s.
    e690:	0709 0051 daa5 00db 16b4 fe00 921d fffc     ..Q.............
    e6a0:	cf92 01e1 87b4 0060 a31f 0070 0bb1 ffdb     ......`...p.....
    e6b0:	0c85 fec1 4e2b 0032 7141 0179 d93b ff06     ....+N2.Aqy.;...
    e6c0:	5e6e 0118 ac70 006f 0f07 0060 5524 007b     n^..p.o...`.$U{.
    e6d0:	9647 ff15 49d0 00bc 0bc0 01a7 f5d5 0022     G....I........".
    e6e0:	e609 005c 8ea2 ff27 5ad7 001b 6162 0059     ..\...'..Z..baY.
    e6f0:	4f5e 00d3 9d5a 00f0 dc5f 017e b066 00e2     ^O..Z..._.~.f...
    e700:	1e24 fee0 1f23 007f e8e7 0173 5355 0082     $...#.....s.US..
    e710:	49d2 fff5 8f2f ff72 4144 00c5 483b ff3e     .I../.r.DA..;H>.
    e720:	85b7 fead 795d ff76 b13b ff51 45ea ffad     ....]yv.;.Q..E..
    e730:	80cd 00b1 f4dc 0033 f41a 01d1 de49 ff4d     ......3.....I.M.
    e740:	08a3 fe60 9596 00d3 fe9e 01cb 7f36 008b     ..`.........6...
    e750:	e0a1 003b 6d04 ff16 2ade ff2d 92d0 ff66     ..;..m...*-...f.
    e760:	8eec 00bb cd32 fff5 4a0a fe59 4f30 008e     ....2....JY.0O..
    e770:	4cde ff82 a61e 003f 0cec ff0d b831 00f4     .L....?.....1...
    e780:	71bb 0066 65da 00fd 3999 feb6 9620 002a     .qf..e...9.. .*.
    e790:	c619 0192 f1ed 0038 448c 0005 a45b ffac     ......8..D..[...
    e7a0:	914e feba 3443 00cd cfdb 0181 736d 0011     N...C4......ms..
    e7b0:	8f36 013a f815 ff78 ffb3 001e ecc1 ff42     6.:...x.......B.
    e7c0:	ff01 ff07 c0fd ff30 4513 01d9 d603 ff00     ......0..E......
    e7d0:	6540 0192 7ddf ff23 49eb ffb3 a7f9 00e2     @e...}#..I......
    e7e0:	afe1 010a a261 003a 706a 01ab ac54 ff05     ....a.:.jp..T...
    e7f0:	8c85 ffb2 f586 008e 5a61 ff7d cbba ffb9     ........aZ}.....
    e800:	4ddf ff17 5cc0 006a c60f ff73 98d9 00f8     .M...\j...s.....
    e810:	b2ab ff78 86e4 0035 36b0 01c1 fbfa 0035     ..x...5..6....5.
    e820:	0ad5 0164 c722 006a 1f97 fef4 e0ac ff57     ..d.".j.......W.
    e830:	ed0e ff17 55fd ff1a 277f ff74 68ac 0064     .....U...'t..hd.
    e840:	0efb ff46 d0d4 ff8a d3fd 00fa 31b0 00a5     ..F..........1..
    e850:	4c0f ff7b da25 ffa0 875c 0110 7e0a ff72     .L{.%...\....~r.
    e860:	0546 ffe0 f9f7 008d 1444 013c d2f1 ffbd     F.......D.<.....
    e870:	d9c3 01bb 0397 0071 5c97 00ae 3ee7 ffb2     ......q..\...>..
    e880:	b7db 00e1 1717 ff21 b5cd 0050 b839 fff8     ......!...P.9...
    e890:	b443 ff01 7b5a ff5d 0027 ffa2 f860 ff34     C...Z{].'...`.4.
    e8a0:	4254 008c 7f22 ffe4 8ac2 0107 6ea6 00bc     TB.."........n..
    e8b0:	1115 019b be9a ffc6 50d6 ff3b 0712 008f     .........P;.....
    e8c0:	1d48 01e2 d9c7 00f9 a1e8 0147 be95 00c9     H.........G.....
    e8d0:	afd9 fe5f 9371 ff43 8f8a ffc7 cc7f 0001     .._.q.C.........
    e8e0:	b61d 0153 e6ce ff9b ccba 003c 7d0a ff55     ..S.......<..}U.
    e8f0:	60e8 ff19 59ff fff7 fed5 01af c1e8 0051     .`...Y........Q.
    e900:	2b1c fe9c 450c 0008 1893 00f8 c612 0031     .+...E........1.
    e910:	3c86 0023 f676 ff12 5831 fefe 15e4 ffba     .<#.v...1X......
    e920:	41b6 0170 16db ff01 7e16 ff34 35bd ff31     .Ap......~4..51.
    e930:	1970 008f 7f26 ff37 65e2 fea3 85d0 ff3d     p...&.7..e....=.
    e940:	4589 01ae 76be ff91 623c ffdb 0dd9 fff5     .E...v..<b......
    e950:	88fa 000a fe54 00e2 1fc9 017d 33f0 fffb     ....T.....}..3..
    e960:	831f ff82 8a02 ff32 d7d7 01b1 0cdf ffee     ......2.........
    e970:	95fc ff38 5b7c ff44 7e48 feaa ff77 0064     ..8.|[D.H~..w.d.
    e980:	8782 ffe8 4f0e 00b2 83fa 00c5 c68a 00d0     .....O..........
    e990:	d879 fe8b 1277 ff24 c11d 007a 2a10 ff2d     y...w.$...z..*-.
    e9a0:	f0d5 01eb bee6 ffa9 23c6 fee4 ad6e 0048     .........#..n.H.
    e9b0:	ddd6 fff1 9438 0087 75c0 fe4e 5d8d ffcf     ....8....uN..]..
    e9c0:	418f 0095 1215 ff62 2c5f 01f4 bf6a 004d     .A....b._,..j.M.
    e9d0:	55fe fe08 6ed6 ffb0 ad49 fe13 c4a0 ffc7     .U...n..I.......
    e9e0:	5aed 0090 acc1 ff71 9bc8 fe88 5ae4 00dd     .Z....q......Z..
    e9f0:	3189 014a dda4 ffd7 bdd1 ff05 ec69 ff37     .1J.........i.7.
    ea00:	1f2a 0181 ffc1 00ec d92e 003c 588a ffbb     *.........<..X..
    ea10:	52e2 ffec 4551 ff97 be8e 0110 860d 0008     .R..QE..........
    ea20:	7a7f ff30 4051 009c f3ab 008b 23ed 00f6     .z0.Q@.......#..
    ea30:	8f7a fec1 7ad4 0092 295f 01ff 8457 004d     z....z.._)..W.M.
    ea40:	d404 001f 1f11 004e 2d27 fead 8e18 ffd9     ......N.'-......
    ea50:	095f ff06 53e3 0006 3b62 fe82 1e3e 0021     _....S..b;..>.!.
    ea60:	7308 01d3 61a2 ff80 b807 fe17 1c74 ffa8     .s...a......t...
    ea70:	8af8 ff97 f462 00f0 76ba 0082 f872 ffeb     ....b....v..r...
    ea80:	ad69 01c8 7ca0 ff47 245e 01a4 41af ff92     i....|G.^$...A..
    ea90:	f1ee feaa c6ca 00c5 47e4 fe8a f62d ff6d     .........G..-.m.
    eaa0:	34c2 009e bb85 00b0 fc53 fe9a bd59 ffdd     .4......S...Y...
    eab0:	49aa 00fc 3a94 007d 4424 fe33 452a ffb1     .I...:}.$D3.*E..
    eac0:	4ca8 ff56 6426 ffcc 3526 0023 13af 0061     .LV.&d..&5#...a.
    ead0:	eee1 fffd 5151 0087 1bd2 feff 49eb 006b     ....QQ.......Ik.
    eae0:	cf08 0073 7f52 0088 6354 fe15 13cf 0088     ..s.R...Tc......
    eaf0:	a464 0065 d050 ff4d cf84 ffed 030f ff0f     d.e.P.M.........
    eb00:	a621 006e 5f9c ff55 b925 016f 6a96 ff23     !.n.._U.%.o..j#.
    eb10:	97a6 004c 5772 ff87 c29f 0040 7a0c ff1f     ..L.rW....@..z..
    eb20:	07e8 fe65 77ad 0062 479a fedc 39bf ff35     ..e..wb..G...95.
    eb30:	e8a8 ffa0 20e0 ff63 9cda 00a5 9997 00a3     ..... c.........
    eb40:	0dd9 0194 71c5 0059 1c95 fea1 17cf 001e     .....qY.........
    eb50:	8469 ffe3 e636 ff5e ad85 ffcc b75c ff9d     i...6.^.....\...
    eb60:	9058 fefc 2166 005a 619f 0003 dab5 ff9b     X...f!Z..a......
    eb70:	72f0 0077 d66a ff35 bea5 0173 5b98 ffe1     .rw.j.5...s..[..
    eb80:	6a58 ff2c 3dd0 0071 3497 007c 1bbf ff9c     Xj,..=q..4|.....
    eb90:	366e 01ec 1e0e ffa6 7f27 01cf c7e5 001c     n6......'.......
    eba0:	e4bc febc 9d64 00eb daf6 01b7 166b ffc1     ....d.......k...
    ebb0:	a0ce 005f ef4c 0093 a1cf 0075 a633 ff02     .._.L.....u.3...
    ebc0:	7534 fe0a 3849 ffe3 c198 00e1 5e84 ff88     4u..I8.......^..
    ebd0:	bf65 00d1 6b20 ffe5 2bc6 01b4 d264 0076     e... k...+..d.v.
    ebe0:	4372 ff99 5817 ff1a 9a59 015c 78dc ff8c     rC...X..Y.\..x..
    ebf0:	7290 ffcf 73fc fffa ce22 0048 858a ff7f     .r...s..".H.....
    ec00:	b208 017c 4b57 0061 e50f fe5c 43f0 ff83     ..|.WKa...\..C..
    ec10:	7b76 fee3 7892 ff68 d591 01ff bb81 ff46     v{...xh.......F.
    ec20:	77db 0036 1301 00ad 962d 0194 53f8 0048     .w6.....-....SH.
    ec30:	e9cb 01a9 6b8e 0038 f9f7 0126 f22d ff50     .....k8...&.-.P.
    ec40:	e91e 0067 5260 0046 c917 006f 2751 ff1e     ..g.`RF...o.Q'..
    ec50:	b7a1 ff4e eac2 ff21 e344 fe8c ced8 0074     ..N...!.D.....t.
    ec60:	1b46 ffeb 9068 004f e6a4 fe5d 87d6 009c     F...h.O...].....
    ec70:	bb9a fef2 14bc ff83 6d24 00ae 709f 00f1     ........$m...p..
    ec80:	6e05 0195 a524 00da 1da6 0113 2eb2 0049     .n..$.........I.
    ec90:	2b5d fe20 bdf8 00ed 9b66 008d 5dc9 ffc3     ]+ .....f....]..
    eca0:	8bf1 fffd 6f0f ff62 416c fea3 4f9b ffbe     .....ob.lA...O..
    ecb0:	ae49 fec1 28f6 ff30 586b fe0b 61ca ff55     I....(0.kX...aU.
    ecc0:	ccfd ff12 f271 0042 a06e fec2 12d0 00ba     ....q.B.n.......
    ecd0:	1551 003c 68bc ffa7 a67c fe61 85d2 008e     Q.<..h..|.a.....
    ece0:	f238 fe89 6f29 0082 976f 013a d56f ff8d     8...)o..o.:.o...
    ecf0:	acb7 fff1 0626 ffc4 07b9 ff7b 0b2e 00f6     ....&.....{.....
    ed00:	69f5 0177 020f ffa1 ce08 ff2d ca12 ff4a     .iw.......-...J.
    ed10:	7c53 0173 8dd4 009d 0853 fed1 0f8b ffe8     S|s.....S.......
    ed20:	36ac fead f732 0084 bdd6 00d5 b890 0069     .6..2.........i.
    ed30:	fedf 00f8 93ff fff0 bc17 0048 3307 0036     ..........H..36.
    ed40:	19bc feb4 b4dc ff00 a053 0014 bda3 fff3     ........S.......
    ed50:	d13a ffc2 4957 003c 186a 0031 f9f5 00dc     :...WI<.j.1.....
    ed60:	ad16 00a7 0b76 ffc3 7e13 00ed 9f6e ff25     ....v....~..n.%.
    ed70:	523b 002f bbb4 0056 94bc 01d0 2564 ff85     ;R/...V.....d%..
    ed80:	7007 00c1 bc81 ff9c 6a54 ff81 e185 00ca     .p......Tj......
    ed90:	ec0e ff6f 1428 0065 acac fe31 3633 ff4a     ..o.(.e...1.36J.
    eda0:	b9fb ffb8 9b5d ffe0 f9b4 01e0 b2e6 0092     ....]...........
    edb0:	3948 fe36 3eb2 00b8 cd77 0048 efb9 fffd     H96..>..w.H.....
    edc0:	0f3d 00da 43c4 ff38 20ea 01ab db2e 00e4     =....C8.. ......
    edd0:	6cd0 ffea 3f14 ffe8 35a5 01c7 e485 ff05     .l...?...5......
    ede0:	cd34 006b ee4a ff8c 9c96 fedb acef ffb2     4.k.J...........
    edf0:	bdfb fedf 8e20 ffd3 0fda 018a c4f1 0050     .... .........P.
    ee00:	241c fe62 ea16 00c7 ed3d ffdc 39f6 0025     .$b.....=....9%.
    ee10:	118e ff8e 3e9d 001a ee2b fe5f d903 ff06     .....>..+._.....
    ee20:	19d5 01f0 dc27 ffae cd9a fe30 0d13 ffc0     ....'.....0.....
    ee30:	22f4 fe36 108c 009b b5f0 fe05 c19b 003c     ."6...........<.
    ee40:	80a6 ff04 9124 ff38 f096 00db 3378 0091     ....$.8.....x3..
    ee50:	9952 012a ec8c 0092 5c6b 01f8 0abd 0003     R.*.....k\......
    ee60:	883f 00f2 27d3 0018 ca13 01a1 1bad ffba     ?....'..........
    ee70:	ccd2 feef d129 ffa2 feb6 ff9f 74ac 0034     ....)........t4.
    ee80:	67c3 fede 45cd 003b 1635 0129 30da 00c2     .g...E;.5.)..0..
    ee90:	d250 00f2 bcd2 00cf a1bb fea1 11d8 0001     P...............
    eea0:	e188 0071 b8fa 003f 1edf fe62 a84d 00a2     ..q...?...b.M...
    eeb0:	353b 00af c913 ff0a e08b 00c2 c193 ff9a     ;5..............
    eec0:	bdd4 fe0c c801 ffae 8532 0171 b35e 005a     ........2.q.^.Z.
    eed0:	b6ad 0087 b15e 0071 592b ffd7 fc88 ff6a     ....^.q.+Y....j.
    eee0:	867b fe53 f505 ff42 3152 0127 02dc 00e0     {.S...B.R1'.....
    eef0:	8161 00b1 3b4d 0059 1d3d 019b abcb ffdc     a...M;Y.=.......
    ef00:	4e5c 008b 2191 ffb5 18a9 018d 9637 00b3     \N...!......7...
    ef10:	3c8b ff50 27da 0061 9302 ff6b f83c 0048     .<P..'a...k.<.H.
    ef20:	e6ad 012f 5306 ffb6 6910 fea2 d489 ff51     ../..S...i....Q.
    ef30:	b8b4 0186 de27 ffa4 69dd 01fb 70ef 007d     ....'....i...p}.
    ef40:	073f 0061 683f ffe3 3a94 000c 3c5a ffe0     ?.a.?h...:..Z<..
    ef50:	d454 00fc d74f 00a8 ddf8 01c7 7973 0001     T...O.......sy..
    ef60:	ac24 0078 a220 ffbb 6b39 ff31 2a93 0015     $.x. ...9k1..*..
    ef70:	c66a 012b 4a39 0057 cb7e ff51 8781 00c3     j.+.9JW.~.Q.....
    ef80:	1f8c 00b1 8bdd 00c2 de03 00d7 4483 00e7     .............D..
    ef90:	56b1 feb2 977c 00b4 7cb8 0126 a346 0011     .V..|....|&.F...
    efa0:	fbf9 01b5 372a 00e3 a1e2 002c ec17 006e     ....*7....,...n.
    efb0:	9533 018e 055d 00ec b7da fe6a 1843 004d     3...].....j.C.M.
    efc0:	f528 ffd1 79de 0099 39a5 001e 7d53 003c     (....y...9..S}<.
    efd0:	2646 0152 06e5 00bc de6d ff9d 7637 ff3f     F&R.....m...7v?.
    efe0:	97cd 00ba 21e3 ff95 b0fe 01f6 b1e3 00e3     .....!..........
    eff0:	6a22 fea3 2bb0 004f 5f6a 014e f1b9 ff7a     "j...+O.j_N...z.
    f000:	0eb9 003d 0124 00ca b20d ffa2 0bf7 0084     ..=.$...........
    f010:	e6a1 015c 0141 ffb9 32d4 01a5 928d ff40     ..\.A....2....@.
    f020:	f29e 00da a415 007d 8bd5 017a 4743 0057     ......}...z.CGW.
    f030:	9ecb 01b2 5c97 002b 6f98 ff05 0327 ffef     .....\+..o..'...
    f040:	ffd9 fffa 3fb0 ff47 f54a 014d aefa ff12     .....?G.J.M.....
    f050:	3122 ffe3 2ef6 fffb 239a 0130 9d7d ff3d     "1.......#0.}.=.
    f060:	246a ff4e ec61 0099 bb88 ff78 8671 ffab     j$N.a.....x.q...
    f070:	d513 fed9 5ed8 ffd1 05fc 003d 035e 00ca     .....^....=.^...
    f080:	1a03 ffb7 bf40 ff2b 171e 0015 8d81 ff4d     ....@.+.......M.
    f090:	7866 0107 4cc2 008c afbc ff34 5111 0094     fx...L....4..Q..
    f0a0:	56e8 0137 30e1 00ac 2a86 ff2a 32ee 002f     .V7..0...**..2/.
    f0b0:	12a9 00fe 9314 ff57 c30e ffef f745 0017     ......W.....E...
    f0c0:	e5ee ff80 31b1 0070 62a8 fffb 4779 00f8     .....1p..b..yG..
    f0d0:	08f3 fe91 e3f6 ff99 a9db feb1 8bfb ffa5     ................
    f0e0:	a30c ffb9 28a4 ffab 9f99 fe1b 6df3 ff5b     .....(.......m[.
    f0f0:	18de 0170 d612 00e7 9d6b feb5 93c3 ff00     ..p.....k.......
    f100:	63c2 ff68 8c59 ffbe 42b1 fe7e b96a 0042     .ch.Y....B~.j.B.
    f110:	da31 001f aefc 009e 4fbc 01e6 29ee 00e0     1........O...)..
    f120:	ead4 0108 0b88 00b5 75a6 ff53 c344 005e     .........uS.D.^.
    f130:	842e 00c9 98f0 0058 39a4 fe45 e0a0 ff2a     ......X..9E...*.
    f140:	d73b ff43 c377 ff8d b424 fe79 2fcf ff08     ;.C.w...$.y../..
    f150:	d2ae 00df c565 ff44 52ff 018d 89fa 00e9     ....e.D..R......
    f160:	5661 0185 5010 0045 8384 009f 5d74 0064     aV...PE.....t]d.
    f170:	8d2d 008b ac98 ff9d 2b5a 005b 9947 002e     -.......Z+[.G...
    f180:	1027 ff70 88d9 ff61 c6dc fe19 35b1 0031     '.p...a......51.
    f190:	58de ff86 0f80 003c c0cf ffa9 74c0 ffd1     .X....<......t..
    f1a0:	4e6a 01d3 d5c8 ffb7 0c07 fe7a cbde ff3c     jN........z...<.
    f1b0:	6e21 fec7 6afb 0075 e1e4 0104 3a78 ff07     !n...ju.....x:..
    f1c0:	c1dd fe54 8570 001b c8bd ffc9 878b 0096     ..T.p...........
    f1d0:	37ea ffb0 323d 0041 6c98 ffa9 55dc ff01     .7..=2A..l...U..
    f1e0:	8770 00e3 1aa2 00ba 60cf feb9 88f4 006b     p........`....k.
    f1f0:	995d 0132 61c6 0097 0b6e ff56 758f ffae     ].2..a..n.V..u..
    f200:	d473 00c8 ca05 00b7 a4ed fe0a efb9 003e     s.............>.
    f210:	78ec fe12 7b62 ff63 c9a8 fec2 ea2e 00d6     .x..b{c.........
    f220:	85bf ff31 a963 0077 bbbe 0123 1573 ff2d     ..1.c.w...#.s.-.
    f230:	83f9 0048 0670 ff7b 31d6 feb5 e9a6 0022     ..H.p.{..1....".
    f240:	c55c fe66 e4fd ffcd 3b03 01c9 622a 002e     \.f......;..*b..
    f250:	25db ff23 c3a9 0026 7c5e 01c1 2b9c 00df     .%#...&.^|...+..
    f260:	485f fe85 ce78 00bf c57a ffef bbb1 ff4f     _H..x...z.....O.
    f270:	2efe 0102 a7fa 00be 8154 0013 71cb ffa6     ........T....q..
    f280:	1ff9 febd 9d48 ffca 47d0 ff49 18cf 0048     ....H....GI...H.
    f290:	100a 0112 51d2 ff4c d058 ffc0 f37e ff6b     .....QL.X...~.k.
    f2a0:	8dee ff78 79c7 ffea 0c89 ff3b dc24 ff7b     ..x..y....;.$.{.
    f2b0:	b394 fe3c 0cf0 001d 0042 0161 1e24 ff26     ..<.....B.a.$.&.
    f2c0:	0173 ff5d 6760 ffe7 9ec5 013b a4c0 00f0     s.].`g....;.....
    f2d0:	caca ff39 ae18 0030 4d59 019b 4c2a 00d7     ..9...0.YM..*L..
    f2e0:	97f4 00e9 3017 0051 7fef fe34 82e3 ff25     .....0Q...4...%.
    f2f0:	74f8 015d 847c 0076 fead 01c0 eb06 ff53     .t].|.v.......S.
    f300:	af6e 01e7 1cfb 00b6 f981 fe5d b854 0080     n.........].T...
    f310:	b54c 003e 80af 00ba 3564 fe88 1d6d 00e2     L.>.....d5..m...
    f320:	e9dd 013a 6314 004a 1600 00a0 0d86 0015     ..:..cJ.........
    f330:	3409 ff37 5911 008c 22af 003b a554 ff77     .47..Y...";.T.w.
    f340:	e2e0 ffea 4807 ffa6 737b 01ff d612 00f6     .....H..{s......
    f350:	07fa 0147 dcd9 00b9 23d4 ff4c 7d26 00af     ..G......#L.&}..
    f360:	61bd 00d2 ee72 ff2c bc29 fea9 ba2d 009a     .a..r.,.)...-...
    f370:	5c51 0016 a084 00c1 d079 ff62 510d ff2c     Q\......y.b..Q,.
    f380:	9ccb 0052 3a47 ff15 72d0 febf 2632 0093     ..R.G:...r..2&..
    f390:	d89a 00c3 1965 0012 fa3c ffd7 84e9 ffeb     ....e...<.......
    f3a0:	af67 018e 0e10 005c 1f8d fe6e f1ee ff2d     g.....\...n...-.
    f3b0:	d999 01ef a861 ff2f 55f9 0110 af1c ff3e     ....a./..U....>.
    f3c0:	fe39 0036 e7de 007e 2da6 fe75 bd12 ff60     9.6...~..-u...`.
    f3d0:	4ce4 0032 f4c8 005e 98c6 0178 2244 ff45     .L2...^...x.D"E.
    f3e0:	410c fea0 1365 005a c5a7 ff78 3644 ffb9     .A..e.Z...x.D6..
    f3f0:	da29 00bc a871 0030 6958 01bd 521a ff20     )...q.0.Xi...R .
    f400:	5db9 01a4 f0e4 ffed b642 0035 c5ab ff5c     .]......B.5...\.
    f410:	096b 01e9 78c7 ff90 314e ff0a aa6d ff69     k....x..N1..m.i.
    f420:	045a ff1f f41c ff71 3a4a 000b dc3e fff6     Z.....q.J:..>...
    f430:	9a79 fec8 d290 ffb2 397e 0181 fa2b ff0e     y.......~9..+...
    f440:	6f65 011c 562f fff1 463d ff96 4935 ff05     eo../V..=F..5I..
    f450:	1a1e 009e 1ad1 0056 ed8a 004a 5fa4 00bc     ......V...J.._..
    f460:	3c8e fe1d 74a2 fff8 afbb 00a0 1297 0010     .<...t..........
    f470:	6fd1 fe41 86cb ff27 6c58 ff31 1a83 ff47     .oA...'.Xl1...G.
    f480:	1bdd fed7 6968 ff5d ec1f fe1f 0087 ffd3     ....hi].........
    f490:	7f8f 016e 49d4 00e5 43e9 fea7 01c3 ffd0     ..n..I...C......
    f4a0:	1184 ffdd d933 005a eb43 ff32 d2df 008f     ....3.Z.C.2.....
    f4b0:	35b3 0182 6ae9 00c6 add9 ffdc e570 ff18     .5...j......p...
    f4c0:	9aaf fe5d cb47 fff6 4230 ff85 8803 ffe6     ..].G...0B......
    f4d0:	dd17 fe71 6feb 00d5 78aa fe5f ddfb 0002     ..q..o...x_.....
    f4e0:	822d fe9e 5e69 ffd9 34f2 feb4 44d5 ff2d     -...i^...4...D-.
    f4f0:	2668 001c 9ef4 004c c8a1 ff60 35cf ff0d     h&....L...`..5..
    f500:	43bb 0094 36aa 00f8 a277 ffb2 1453 000b     .C...6..w...S...
    f510:	2a2a 01c0 9f92 ffa3 e8b7 006f e54d ff15     **........o.M...
    f520:	3547 008f 4c1b 0022 88f6 ff2f 27db ffb6     G5...L".../..'..
    f530:	e05c 01c9 8e13 ff0e b645 fff1 76a3 00f5     \.......E....v..
    f540:	6d09 016a b5aa fff7 2f4e ffee d254 ffb0     .mj.....N/..T...
    f550:	6bd5 008b 2627 000b 1548 0096 8248 0045     .k..'&..H...H.E.
    f560:	4dcd fe9b 858e 0015 6f47 feac 2ae2 ff3b     .M......Go...*;.
    f570:	00b3 01d7 8021 00f1 fcea 010d 4fb8 0008     ....!........O..
    f580:	1e6e ff49 8df6 00bd cfaa 01da 9a4a ff45     n.I.........J.E.
    f590:	f68a ff31 209b 0064 4a7d ff69 555a ff3d     ..1.. d.}Ji.ZU=.
    f5a0:	e523 ffb1 7d3e ffc1 5699 01bc 7849 00d4     #...>}...V..Ix..
    f5b0:	7bd1 fef6 d187 ff26 3a97 012c 455c ffd6     .{....&..:,.\E..
    f5c0:	0c0e ff58 99fc ffa6 cffd ff70 4e3c ff53     ..X.......p.<NS.
    f5d0:	7ce3 006e 60b4 fffc 7535 fe21 dca4 ff52     .|n..`..5u!...R.
    f5e0:	0129 ff1b a426 ffa6 63a4 fea9 903d ff46     )...&....c..=.F.
    f5f0:	a6c0 0012 fa6b 0042 41c5 0032 b301 ff12     ....k.B..A2.....
    f600:	68ff ff01 992b ff23 6f50 00a8 af6e 00a8     .h..+.#.Po..n...
    f610:	6929 ff2d 0edb ffcd e9a4 fe8c 012b 0076     )i-.........+.v.
    f620:	43e9 00c3 52b2 ff9f 578a ff7a eed4 ff5a     .C...R...Wz...Z.
    f630:	2390 fe7c 8c19 00a4 d7fb fe2c 4685 ff6b     .#|.......,..Fk.
    f640:	e365 fe50 a95c 0037 2ad7 0031 b472 ff55     e.P.\.7..*1.r.U.
    f650:	e821 011b d5ac 0019 b03e fe7b 8520 ff18     !.......>.{. ...
    f660:	bfe1 003e 465d 0099 2ab5 0168 bf16 ffe0     ..>.]F...*h.....
    f670:	c8c8 ff8c eaf9 0025 3995 008d 38c3 ffd0     ......%..9...8..
    f680:	82fe ff46 ad20 fff0 dc1d 00c7 646e ff73     ..F. .......nds.
    f690:	e584 00f9 e9e4 ffdf d825 fed1 b1b2 ffd1     ........%.......
    f6a0:	2db7 fea5 61e0 0072 6189 ffa8 dee1 00ac     .-...ar..a......
    f6b0:	0da5 0131 ebd2 ffcc 04fc fe1c a046 0097     ..1.........F...
    f6c0:	bee8 fe34 f853 ff5d d73e 014d afaf ffb3     ..4.S.].>.M.....
    f6d0:	32a0 0042 3079 00d0 a93f ffd1 d200 00c8     .2B.y0..?.......
    f6e0:	bbe0 012c a249 0052 b009 ff8f 4c13 ffc1     ..,.I.R......L..
    f6f0:	3b1d 01a7 2b18 009a be1c 00be bc8d 0081     .;...+..........
    f700:	ebe8 ffcb 00ea ff6d 4136 009f 583c ffe8     ......m.6A..<X..
    f710:	fd79 fe96 e9fc ff83 6ec6 0129 4d53 ff47     y........n).SMG.
    f720:	16c8 fe3b fd6a fff2 0c15 ffcf 42ed 00bd     ..;.j........B..
    f730:	c65a 01ca ace1 007f 1635 00ca e638 0084     Z.......5...8...
    f740:	5601 00b7 be6d 002a 44f3 01ae e46d 009a     .V..m.*..D..m...
    f750:	b1c8 017a a023 ffb7 30b1 ff55 da5a ffa9     ..z.#....0U.Z...
    f760:	98f8 004e feca 006e 3406 002b 628e ff41     ..N...n..4+..bA.
    f770:	913f 0016 6a46 005d 8ae8 016b b36e ff3d     ?...Fj]...k.n.=.
    f780:	81d3 01da d1f2 005c 5a23 01d9 8fb6 ff6a     ......\.#Z....j.
    f790:	6574 ffd9 fa72 ffdd ccad 0006 963c 00a3     te..r.......<...
    f7a0:	ac49 ff2c 6eef ff50 4ced fe99 8ca1 00f9     I.,..nP..L......
    f7b0:	e895 00e5 1f85 ff28 a4ae 0077 3371 00d6     ......(...w.q3..
    f7c0:	e481 fe02 2240 00f3 e36b fff4 6aae ffc8     ....@"..k....j..
    f7d0:	9954 0146 2332 0010 4afa fed8 bdec ff42     T.F.2#...J....B.
    f7e0:	f999 000d b2e6 ff04 29dd 00ee e376 ff79     .........)..v.y.
    f7f0:	575e fe8c 77fe 005c ef49 fef6 5775 0080     ^W...w\.I...uW..
    f800:	d313 ff91 2eb1 00fc 5be5 01f6 8045 fff7     .........[..E...
    f810:	4dca 0136 0b08 ff09 6099 00a6 d6d9 ffad     .M6......`......
    f820:	c086 0102 cf00 0000 aebd 016b 868c 0064     ..........k...d.
    f830:	c19e 01f3 66b6 00ab 9aeb 0033 058e ff7b     .....f....3...{.
    f840:	a83c 0159 0ed9 ff5c d613 0105 a7d3 00fe     <.Y...\.........
    f850:	062c feca 1278 ffec 710f ffb8 dfb8 008b     ,...x....q......
    f860:	b128 fe77 7bb6 ff5a a5b0 00b0 4df7 00c2     (.w..{Z......M..
    f870:	ea1b 0078 00e7 ffd6 273b 001e 637d ff91     ..x.....;'..}c..
    f880:	4496 0144 de8d 00f8 7b99 ffd2 7f6e ff98     .DD......{..n...
    f890:	21e5 01d6 dd87 00c5 6189 0002 8f0c ffcc     .!.......a......
    f8a0:	2951 00bc 4f73 ff82 035e 0084 af98 ffbb     Q)..sO..^.......
    f8b0:	8d7c ff0a c07e ffb3 670b 00c6 0695 002d     |...~....g....-.
    f8c0:	55db 01bb 12e6 ffb2 b648 0098 c603 ffb8     .U......H.......
    f8d0:	7080 01e0 a161 00e6 63fe ff26 9f3a 00c5     .p..a....c&.:...
    f8e0:	4297 00db 453b ff8f 70b9 00f9 8877 ff2f     .B..;E...p..w./.
    f8f0:	827b 0084 47a8 ff5f b071 0128 b9e8 00ad     {....G_.q.(.....
    f900:	5dcf 0175 9d44 ff6c 0566 fe93 6131 0021     .]u.D.l.f...1a!.
    f910:	4159 fe6f 1ef7 ffa3 d97c 01dd fa66 00d8     YAo.....|...f...
    f920:	aec6 fe4b 3739 0012 05e3 01ec d5e5 00ad     ..K.97..........
    f930:	6dc9 01da e931 00ef 371e 019e b219 006a     .m..1....7....j.
    f940:	6f9b 01bc 7e5e 008c 1fd7 01ee f04d 0010     .o..^~......M...
    f950:	f2d5 0119 4726 00a8 bacd fe5d d331 ff8c     ....&G....].1...
    f960:	00db ffb4 7686 00a5 93a0 ff86 ba6e ff23     .....v......n.#.
    f970:	f3c6 002a 92f3 0077 eb86 01a3 f104 ff87     ..*...w.........
    f980:	2ec1 fec1 b467 ff4f 04e1 feb8 76f2 0082     ....g.O......v..
    f990:	8792 01b0 6fea 001e 4245 fed5 6029 007b     .....o..EB..)`{.
    f9a0:	5e79 ff2a bfb2 ffc3 822e 002a 5475 ff08     y^*.......*.uT..
    f9b0:	31e9 fed6 7aee 006d 4706 0159 d3ec 007b     .1...zm..GY...{.
    f9c0:	0df4 fe30 9477 000e 1c72 ff56 ed4b ff19     ..0.w...r.V.K...
    f9d0:	e591 fe10 6481 ff35 9686 fe78 9da8 0032     .....d5...x...2.
    f9e0:	4817 ff68 31e0 000e 7bff ff16 b997 ff97     .Hh..1...{......
    f9f0:	50aa 01b8 b686 0014 6429 0165 2199 0010     .P......)de..!..
    fa00:	9a4c 016f ce56 ffea a0c0 fea4 7ba5 ff5d     L.o.V........{].
    fa10:	d801 fea4 1143 ffaf 0ba9 ff3b 299e ff3d     ....C.....;..)=.
    fa20:	bc49 ff0e 06c3 ff89 9316 ff1d 6714 ff03     I............g..
    fa30:	82f6 ffe3 287a 0080 2fe2 fe18 2423 0020     ....z(.../..#$ .
    fa40:	ba98 ffb7 ca45 0014 85c3 00c3 33de 00f7     ....E........3..
    fa50:	aba9 015e 00b7 ffa0 cd40 0112 539c ff0f     ..^.....@....S..
    fa60:	3ac5 fef9 59fb ff6e 0a32 fe58 2b33 00d8     .:...Yn.2.X.3+..
    fa70:	f262 01c6 97f5 0071 ecab 01c2 1fc5 ffc7     b.....q.........
    fa80:	51e5 0126 3b29 0014 68fd 00e6 5d98 ff0e     .Q&.);...h...]..
    fa90:	f2f6 fe92 a9d6 fff0 66f0 fe6c a7a0 00ec     .........fl.....
    faa0:	da9a 00bc e996 ffca 131b 01fa 4702 ff85     .............G..
    fab0:	0caf 013f b791 00c6 7868 ff73 fb82 00f7     ..?.....hxs.....
    fac0:	d411 ffa7 7b3e ff84 64f7 00bd df9b 0098     ....>{...d......
    fad0:	c58f 0021 3b9b ff2c 5d96 01f0 037f ff57     ..!..;,..]....W.
    fae0:	475f 01cf 55a7 ff01 98bc ff74 170a 0017     _G...U....t.....
    faf0:	c389 015d 6236 0061 00f0 ffa8 bc94 007f     ..].6ba.........
    fb00:	6b86 0097 fd4c 00ab 845a 00c0 1692 0036     .k..L...Z.....6.
    fb10:	42e0 fe36 bae6 ffe5 b627 00c4 fb94 ff82     .B6.....'.......
    fb20:	8341 fe6c 0180 00a0 31a9 fea7 fec7 ff94     A.l......1......
    fb30:	06fb 0083 febb ff81 5255 003e 17b2 ff3a     ........UR>...:.
    fb40:	84fe 0005 d5a4 0027 fc86 fe92 3525 ff51     ......'.....%5Q.
    fb50:	869b 0052 a7cd ffee 2d5e ffb4 2884 00a1     ..R.....^-...(..
    fb60:	6ffe 0170 4b36 00d9 e6b3 01dd 5eeb ffbf     .op.6K.......^..
    fb70:	f317 0130 91ca ffcb 7627 ff2a 8d75 00fd     ..0.....'v*.u...
    fb80:	00fe 00de fb2b 0032 a936 01ea 4450 00d0     ....+.2.6...PD..
    fb90:	cb94 fef3 0791 0087 fe06 0000 b9fc 007f     ................
    fba0:	0862 ff81 2326 ff48 24d3 01dc 1a28 0059     b...&#H..$..(.Y.
    fbb0:	40a8 fec5 de03 ffef 5302 fed7 9fb4 0069     .@.......S....i.
    fbc0:	733a 00c2 74ba ff6a f7e5 ffdb 7681 00c1     :s...tj......v..
    fbd0:	aeca 01b7 a1a6 0048 6bc9 fe93 88ed 004a     ......H..k....J.
    fbe0:	e6e9 016a 6f69 00a8 e040 011e e501 0003     ..j.io..@.......
    fbf0:	9766 ffaf eec2 ffe4 fafe 00d4 edbb 0079     f.............y.
    fc00:	fb43 0160 1ec5 000b 5fb7 00cc 59cd 008a     C.`......_...Y..
    fc10:	dd40 0125 dfff ff1e 30b2 ffd3 c8f1 ff5a     @.%......0....Z.
    fc20:	d1a7 ff60 8239 00dd 722e ffc8 b83d 0042     ..`.9....r..=.B.
    fc30:	b637 fe18 b66e 0021 beab ffe8 5e72 001f     7...n.!.....r^..
    fc40:	dd12 0008 e72f 00fe 70ff 0053 0f76 ffd7     ..../....pS.v...
    fc50:	19ad fe28 c1c0 ff1f 15ee ff92 c1ab ff76     ..(...........v.
    fc60:	ea65 fe35 d483 0070 c059 016b d008 001b     e.5...p.Y.k.....
    fc70:	d9b5 ff0f 95e7 00e8 ec8c 007e 0990 ffc7     ..........~.....
    fc80:	4f0c feb5 b693 ffca 6d13 ffb6 d431 00e1     .O.......m..1...
    fc90:	a34a 00cb e9af 0094 701a 0033 c1c1 ff09     J........p3.....
    fca0:	870f 00f9 e396 0082 00cc 01db f218 00cd     ................
    fcb0:	d0ee ff75 f416 0070 e51a 0022 5025 ffbc     ..u...p...".%P..
    fcc0:	2d26 fece 5af0 ffe1 031d ff2f e02a 004c     &-...Z..../.*.L.
    fcd0:	f3ba 00a7 8420 ff0f 3305 007d 878b 0018     .... ....3}.....
    fce0:	f106 00db e5ac ff85 d6f6 0032 0be7 ffcf     ..........2.....
    fcf0:	7ebf 0153 a3b4 ffaa 38f5 0118 a4b2 ffd3     .~S......8......
    fd00:	1003 01ca 3962 ff76 838d fe59 3321 0018     ....b9v...Y.!3..
    fd10:	95f3 ff5b 34fd 000e a923 fe43 1e31 ff58     ..[..4..#.C.1.X.
    fd20:	1bb3 ff24 8ca5 00b7 bd3a 0097 1f58 0000     ..$.....:...X...
    fd30:	a94b 0042 6542 ffc7 d818 01c7 c479 ff1a     K.B.Be......y...
    fd40:	4f0e fecb e2f0 ff51 1c5e ff0a c153 fff0     .O....Q.^...S...
    fd50:	c1cc ff83 0f5e 0056 28da 009d c133 00d1     ....^.V..(..3...
    fd60:	f200 00b1 b966 00f7 6d9e 0074 8726 005b     ....f....mt.&.[.
    fd70:	afdf 0095 42dc ff01 3c56 00e8 6019 ff25     .....B..V<...`%.
    fd80:	7ae1 01a2 bbd7 ffa8 9d9e 002e ab38 00a2     .z..........8...
    fd90:	f0e8 0165 167a 0009 0933 ff15 1935 ffee     ..e.z...3...5...
    fda0:	1ed9 fee8 a97d 0094 e80d 0066 0994 0025     ....}.....f...%.
    fdb0:	61a5 018d 83e4 0029 0fde fff3 12fe 0011     .a....).........
    fdc0:	3c06 01ed 036a 0071 843b 00bd 705c 001e     .<..j.q.;...\p..
    fdd0:	d069 00d5 5430 ffb3 79bb fee7 d81b ff6d     i...0T...y....m.
    fde0:	dda2 fe6b ef49 ffc3 1ffa ff39 8795 ff59     ..k.I.....9...Y.
    fdf0:	17b9 0173 a303 ff9d 7012 00fa 3919 ffbb     ..s......p...9..
    fe00:	60a1 00a4 102f 00f3 8d0c fefb ea43 ffb8     .`../.......C...
    fe10:	1229 00a1 06af ff60 aca0 fe34 b018 ffb7     ).....`...4.....
    fe20:	c1c6 0155 797c ff89 3297 ff72 cbdc ff3c     ..U.|y...2r...<.
    fe30:	efcf 0105 2600 ff6b ee37 fe5e 9846 005e     .....&k.7.^.F.^.
    fe40:	dcd5 014d 1178 ff45 a455 ffbe eacb 0051     ..M.x.E.U.....Q.
    fe50:	3126 fe25 903d 007c 4e89 fe31 f7a8 0030     &1%.=.|..N1...0.
    fe60:	a45f 00fc a969 0087 e4fd 0086 a640 004b     _...i.......@.K.
    fe70:	4951 ff14 d2cf 000a 6aea ff96 225e ff5a     QI.......j..^"Z.
    fe80:	9ffe fe39 85dc 0063 938b feb4 1718 00b9     ..9...c.........
    fe90:	3929 ff1e 61bd 004c bb41 ffdf ace0 ff25     )9...aL.A.....%.
    fea0:	3e22 015f 90e7 00f0 6a4d fe7e 9840 005b     ">_.....Mj~.@.[.
    feb0:	621d 009b fbe2 ff35 d3ea ff05 cb90 ffde     .b....5.........
    fec0:	b0a4 fedd e705 0018 7ab3 00cd 0124 ff86     .........z..$...
    fed0:	467d fe97 e461 00fc 81ac fe17 5a30 ffd1     }F..a.......0Z..
    fee0:	e096 0152 8654 001e c4f1 002e 7167 ffea     ..R.T.......gq..
    fef0:	652e fe79 7c28 fffa 2d87 fef2 f909 ffa8     .ey.(|...-......
    ff00:	6c8c ff83 a38f 00ab ad32 ffc7 de58 ff8e     .l......2...X...
    ff10:	5fc8 009e c08e ffa3 7507 0087 7c6f 0016     ._.......u..o|..
    ff20:	0cec fe41 2644 ff41 aee3 00fe f5f4 0026     ..A.D&A.......&.
    ff30:	32f0 ffd0 3fa1 00fa d13c 00ef 237a 0013     .2...?..<...z#..
    ff40:	210e fee6 9f02 0071 146a ff7f cde4 0060     .!....q.j.....`.
    ff50:	d289 feae d4b4 ff90 6259 019a 5822 008b     ........Yb.."X..
    ff60:	a2a7 0170 6e41 00c5 25f1 00a9 3842 ff83     ..p.An...%..B8..
    ff70:	c90a fe53 fd85 ffbb 70b1 fe2d fbc4 0000     ..S......p-.....
    ff80:	fac4 ff97 e8ee ffd6 d196 00cd f01c 0076     ..............v.
    ff90:	4c47 0153 63ec 005b fa2a 0183 1260 ff40     GLS..c[.*...`.@.
    ffa0:	de76 0023 d671 ffcb 777a ffb8 1342 0024     v.#.q...zw..B.$.
    ffb0:	40cc 00f9 5992 008b 3e86 0187 e968 0065     .@...Y...>..h.e.
    ffc0:	54bc 001a f931 0081 d6d0 ff4b 82cf ff4d     .T..1.....K...M.
    ffd0:	af73 00eb 02ab ff89 91af 01ba f537 ff87     s...........7...
    ffe0:	569a 01b5 3a64 fff6 c76d ff3c cc52 ff86     .V..d:..m.<.R...
    fff0:	31d7 01e6 e58c ffc0 c1de fffb 8851 ff0f     .1..........Q...
   10000:	95b3 ffa2 2717 ff1d 5f07 fe4b 51bf 00de     .....'..._K..Q..
   10010:	51f1 ff5a 316b ffc9 d3f4 009d 8cde ff95     .QZ.k1..........
   10020:	db41 fe38 f6bd ff5a 3bb2 019d db30 0034     A.8...Z..;..0.4.
   10030:	2262 00d7 111c ffbb a9af 0018 4f5c ffa1     b"..........\O..
   10040:	c8ec 01c2 8f93 00ea e1e5 0107 a8c5 000e     ................
   10050:	33eb 0135 78fd 00ae 06c5 ffa8 75ca 00ab     .35..x.......u..
   10060:	15a3 00ce 5572 ff5a 290f ff0a 13c2 0063     ....rUZ..)....c.
   10070:	3741 fed8 92a2 0074 ce32 ffd4 9240 ff1d     A7....t.2...@...
   10080:	9e9e 0183 a564 ff82 17ac ff81 357d ff09     ....d.......}5..
   10090:	c10f 0112 311a ff0b aeb5 01c9 c987 ff0e     .....1..........
   100a0:	1364 0095 62db 004f 632a fe8f 0060 ff30     d....bO.*c..`.0.
   100b0:	f9c5 fe53 9568 ff4f 6eeb fe88 8052 ff2c     ..S.h.O..n..R.,.
   100c0:	2941 fe24 d358 000a 79bb 00bb 8662 00c7     A)$.X....y..b...
   100d0:	bcab feb3 0bd2 ffee 7b42 fe82 ea34 003d     ........B{..4.=.
   100e0:	7130 fe17 5606 ff78 b277 00f5 8157 00c9     0q...Vx.w...W...
   100f0:	8df2 00d1 72ca 0055 1694 00a1 c367 0030     .....rU.....g.0.
   10100:	3119 ffab 438a 0082 49b6 fe7a 1894 0082     .1...C...Iz.....
   10110:	e5d3 009a 9b20 009e 6954 003d c2b1 ff09     .... ...Ti=.....
   10120:	59a6 0156 5336 00bb 28f9 ff75 036d ffd7     .YV.6S...(u.m...
   10130:	9235 012c 2f3f 00b3 d8c2 fe03 540e 0088     5.,.?/.......T..
   10140:	b188 ff0d f348 ffba 1175 ff7d 3ad3 ffd3     ....H...u.}..:..
   10150:	4f5d 00df 585a fff5 d18b ff6f de46 002f     ]O..ZX....o.F./.
   10160:	f60a ff4f d9c6 00b2 e1e3 010b 7e4e ffb3     ..O.........N~..
   10170:	2b3e 007e 9467 0023 0881 fea5 f0f5 0094     >+~.g.#.........
   10180:	333d 008e d051 0086 890f ff73 77d3 ffec     =3..Q.....s..w..
   10190:	f59f fff8 8602 ff88 8be6 013a a4a0 00fe     ..........:.....
   101a0:	5572 ff8d a631 ffb6 4690 0154 b655 0007     rU..1....FT.U...
   101b0:	352e 005d a609 ffa1 a237 ffb2 b82d 00bc     .5].....7...-...
   101c0:	1c92 fe2c 5aa9 0031 b278 01f1 7b0e ff7f     ..,..Z1.x....{..
   101d0:	f107 01c7 42bd ff32 8fc6 fe65 f3bd ff87     .....B2...e.....
   101e0:	188d fe18 614b 0057 fb76 019a 36ed 009c     ....KaW.v....6..
   101f0:	92ab ffcf c483 fff6 4088 0171 e897 0039     .........@q...9.
   10200:	daf0 0073 3d31 ff1b 8140 0149 a9fc ff1b     ..s.1=..@.I.....
   10210:	8428 010a c95a ffc1 79fc 01f0 ceba 0029     (...Z....y....).
   10220:	c62b 0061 6491 00b7 d8cc fe50 96ac 0041     +.a..d....P...A.
   10230:	e5f9 fec4 7b68 ff49 684d fe60 b482 0008     ....h{I.Mh`.....
   10240:	7b68 0039 cadc ffe5 f966 00d3 0e56 ffe8     h{9.....f...V...
   10250:	4eb6 00d1 e1ef 00a4 0d6a ff20 4978 ff11     .N......j. .xI..
   10260:	4386 00e9 fe53 00b5 ecb7 0170 4030 ff83     .C..S.....p.0@..
   10270:	d8f1 fff3 c141 00e2 f1ce fe64 8664 ffa6     ....A.....d.d...
   10280:	caed 00c5 0d37 0051 7c20 ff66 e428 00b1     ....7.Q. |f.(...
   10290:	b576 011f a0e7 ff86 bb77 00ca 8e00 ff3c     v.......w.....<.
   102a0:	2680 ffbd c9a6 0096 78cf 011a b836 00ac     .&.......x..6...
   102b0:	f20c fecc 4285 00e6 2622 011f 70b8 0050     .....B.."&...pP.
   102c0:	3320 fea5 f3bf 0037 493a fe92 a79b ffcd      3....7.:I......
   102d0:	6864 ff98 fec5 ffcf 13ad 00f7 0aee 00ca     dh..............
   102e0:	97ef 00f2 3b5e ff27 1df0 ff66 5c0a ff9a     ....^;'...f..\..
   102f0:	54e5 ffdb 81a1 0050 5ad0 01cc dbf0 ffae     .T....P..Z......
   10300:	669e 0191 b235 ff4c 6c34 01a8 de53 006b     .f..5.L.4l..S.k.
   10310:	24d3 006d 3a76 0038 1d08 0016 a0ed 00c7     .$m.v:8.........
   10320:	d1aa 009d 4789 002f 568f 0020 f2c6 0002     .....G/..V .....
   10330:	30d4 0188 ac5c 00ba 97e6 0169 bf60 00e5     .0..\.....i.`...
   10340:	508a febf d8f0 ff82 2b62 fe06 c4a8 0031     .P......b+....1.
   10350:	12fd 015b 4990 0079 923d 0127 683f ff18     ..[..Iy.=.'.?h..
   10360:	a5b8 fe70 eb7e 0062 d550 ff62 3c7b ff57     ..p.~.b.P.b.{<W.
   10370:	8c52 01f5 78df ffad c60f 0186 3cce 00ef     R....x.......<..
   10380:	eae7 ff5c ee21 ff13 71a5 018e 77b0 0026     ..\.!....q...w&.
   10390:	2ba0 fea6 5bef 0069 3d6b 01c2 0419 0044     .+...[i.k=....D.
   103a0:	8b0f 0033 84a4 ff6a 7422 fe2e 5fa8 00c5     ..3...j."t..._..
   103b0:	d489 0017 9c48 003a 7089 fe45 6996 ff9a     ....H.:..pE..i..
   103c0:	c9ec 009d d417 ff9a 5288 fee3 3be2 ffdd     .........R...;..
   103d0:	955f 00c0 7651 ff34 2b21 01d7 930e ff4b     _...Qv4.!+....K.
   103e0:	9c59 fe79 120e 004f d093 018b da97 ff3e     Y.y...O.......>.
   103f0:	589c 0108 b8d2 ff62 af14 ff7b 5366 00e5     .X....b...{.fS..
   10400:	41dc 0174 fa96 ff04 8e5c ffdc f722 ff42     .At.....\...".B.
   10410:	e1cc feb3 5197 0097 2847 ffec 3f8a 003e     .....Q..G(...?>.
   10420:	4f06 fff0 b9b7 00b5 3276 001b e33f 00c0     .O......v2..?...
   10430:	637b 013a e032 ff9b e111 fedf e0dc ff4d     {c:.2.........M.
   10440:	2c0e 017b 808d 00af d4f8 00c8 3b96 ffb7     .,{..........;..
   10450:	6193 001d cc96 00b5 25fd 0047 5591 0077     .a.......%G..Uw.
   10460:	c89a 00ba 8002 fff9 1853 007c 570e 008f     ........S.|..W..
   10470:	33a8 01f5 977c ffe7 f0d0 01c5 be7c 00b9     .3..|.......|...
   10480:	3a30 00f6 e914 00e8 127d ff62 fe0d ff1f     0:......}.b.....
   10490:	b1f5 ff82 8e6c 0023 7dab fef2 0c8c ff22     ....l.#..}....".
   104a0:	a1a5 00a2 cdce 0065 19f7 0122 9164 0039     ......e...".d.9.
   104b0:	4627 0039 cc76 ffcb 00f2 00a2 f4a5 001e     'F9.v...........
   104c0:	74c6 00e2 6f80 ff99 368c 01b6 7a3c ff0f     .t...o...6..<z..
   104d0:	3a9b 0139 3236 00c6 d3ab ff1d 8a6b ffa7     .:9.62......k...
   104e0:	6bad ffc7 a16d 00c1 4859 fff2 73ce ff59     .k..m...YH...sY.
   104f0:	fefa fe8e cab1 ff5e 5951 0032 6907 ff42     ......^.QY2..iB.
   10500:	fe19 feff 40cb ff17 de4f ff6c f927 004b     .....@..O.l.'.K.
   10510:	7cf1 0032 98ef 0085 f1dd 0069 9793 0062     .|2.......i...b.
   10520:	a1d5 fe79 31f2 0089 25e9 fef9 b72a 001b     ..y..1...%..*...
   10530:	77b8 ffe6 20d9 ffa3 fbd0 01e4 3e89 ff83     .w... .......>..
   10540:	404f fe09 305e 0071 8a11 fe32 ffc1 0016     O@..^0q...2.....
   10550:	12f7 01c5 3743 0068 cd10 ff5f 2530 0042     ....C7h..._.0%B.
   10560:	9c37 013f 5240 ff4a 35c8 fe47 43ef 007d     7.?.@RJ..5G..C}.
   10570:	e01a 00de 89df ff5d e01e ffca dc09 0084     ......].........
   10580:	26c6 01eb 8d66 0056 2b3c 0151 1c88 001a     .&..f.V.<+Q.....
   10590:	24e9 fe08 f2cf 0094 a2a4 003f 2e33 ffe0     .$........?.3...
   105a0:	3072 ff4f af09 00e2 03de ffc1 a02f ffe8     r0O........./...
   105b0:	5dff fe69 2a0e 00e6 8a1a 0152 2bd0 00f4     .]i..*....R..+..
   105c0:	271b ff26 d062 ff7f 9540 ffb6 fa05 00d1     .'&.b...@.......
   105d0:	3cbb fe1c 1931 ffda 74a9 ffcd 1277 0078     .<..1....t..w.x.
   105e0:	749c ff93 3584 ff6d 0a0d 00ca 536e 00a7     .t...5m.....nS..
   105f0:	db9d ff89 0306 ff82 a732 ff1e 9f3c ff2f     ........2...<./.
   10600:	8081 fe9d 035e 00bd a603 0044 df53 00d7     ....^.....D.S...
   10610:	5a96 01c2 a80f 0041 53e3 ff33 abcd ff42     .Z....A..S3...B.
   10620:	bb36 013c 6698 ff2d 9a77 00e1 f7f0 0088     6.<..f-.w.......
   10630:	c564 ffb2 478b ffdf 52cc 0110 ce29 ff2a     d....G...R..).*.
   10640:	c09c ffdd 7bd8 fff4 dada ffb9 babb ffef     .....{..........
   10650:	acfc ffa0 34c3 0016 ae90 feb5 64bb ff73     .....4.......ds.
   10660:	4ed3 ffb0 071b 00c1 d593 ff68 c95a ff0a     .N........h.Z...
   10670:	7b50 0142 2116 00ba 0701 fe63 ce1e 000a     P{B..!....c.....
   10680:	eae5 0005 1e35 00d2 088a fedc 3747 00a7     ....5.......G7..
   10690:	e148 0156 be76 00bc c1fe 0165 f9ab ffac     H.V.v.....e.....
   106a0:	9e5e feb7 025d ff6c 5db0 ff4c 6349 ff4f     ^...].l..]L.IcO.
   106b0:	404a fe81 2ef6 0041 f163 fe7f 97f6 ff66     J@....A.c.....f.
   106c0:	352c fed0 663b 00ea af9a ffa4 f258 0020     ,5..;f......X. .
   106d0:	266f 0001 b6ff ffbe b073 fe0f 3ca9 0081     o&......s....<..
   106e0:	ed7a 00f1 4c5a 003f 4a3e ff78 c37a 006e     z...ZL?.>Jx.z.n.
   106f0:	0477 00b2 f2de 00d2 2182 fe2e 289c 0029     w........!...().
   10700:	92a7 0170 a331 ff6f b079 00eb cf4c ff0e     ..p.1.o.y...L...
   10710:	1903 01c6 eb29 00d5 2455 01d6 5c31 ff6d     ....)...U$..1\m.
   10720:	18c8 fe1e eca8 00c3 2791 017c c3ec 0095     .........'|.....
   10730:	245a ffb8 5543 ffaa 2326 fe1a 7c83 ff44     Z$..CU..&#...|D.
   10740:	9bef ff23 c936 00a4 16c4 ff75 0f31 00cd     ..#.6.....u.1...
   10750:	e018 011d 717e 0090 1575 00b6 9fcb 008d     ....~q..u.......
   10760:	87df 004d e6b0 ffb0 e5be ffd7 2563 ffb5     ..M.........c%..
   10770:	1533 ff8a bd19 ff59 3031 fea5 2d98 00f7     3.....Y.10...-..
   10780:	6caa 00de ca50 0005 451b fe67 16cc ff81     .l..P....Eg.....
   10790:	fcb4 fe3e 01d2 ff5b 6e92 fffe a2db 001c     ..>...[..n......
   107a0:	fcdf 01d5 083b 0021 10ce 00f4 d381 0030     ....;.!.......0.
   107b0:	a06b 00d0 3b70 00d1 4d6d fed8 1522 ffb9     k...p;..mM.."...
   107c0:	63f6 ff38 8bb3 ff13 1db9 ff32 5954 0013     .c8.......2.TY..
   107d0:	fa4a ff62 2ae1 ffc8 d9c0 ffcd 10d2 00a7     J.b..*..........
   107e0:	8463 015f e62b 0039 0bfe ffcb bc63 ff3f     c._.+.9.....c.?.
   107f0:	c177 fefb 6950 0036 b5e8 01bd 45b7 ff70     w...Pi6......Ep.
   10800:	abd0 ffa5 6d2f ffb4 537b 00a5 a292 ff34     ..../m..{S....4.
   10810:	0b9a ff04 e397 ff5a 8992 fe61 e93d ff29     ......Z...a.=.).
   10820:	2a5e ff37 a46c 00ec 4498 00fe 8c0a ff83     ^*7.l....D......
   10830:	6a0a fe4f 9ef3 0089 b243 fe42 7bb1 ffc6     .jO.....C.B..{..
   10840:	3e0f 0022 58c5 ff2a 5f95 ffb1 0098 ffc6     .>"..X*.._......
   10850:	fe95 ff71 5ae1 ffa3 d97d 00f7 1112 00e0     ..q..Z..}.......
   10860:	4280 fe78 19c0 ff09 dd32 00cd d431 0046     .Bx.....2...1.F.
   10870:	ffe9 00a4 d102 0009 34dd fedb e0ac fff4     .........4......
   10880:	385e 01ce b3f2 ff02 5b1f 01a4 2ee6 ff8a     ^8.......[......
   10890:	e6bd 00dc 2f39 ff3d 0b6f 009d 5bb1 0098     ....9/=.o....[..
   108a0:	e61c 0062 5761 007e 59c6 ff91 4fa7 006b     ..b.aW~..Y...Ok.
   108b0:	4df9 01a0 e91d ffe6 1596 fe56 0b3c 00c1     .M........V.<...
   108c0:	2597 fe24 96b9 fff3 d4e4 0153 97ac 00b4     .%$.......S.....
   108d0:	a9c9 009b 3cf4 00ea eb8e 0104 da43 003c     .....<......C.<.
   108e0:	71c0 014b f374 ffcf ac41 009b 1e51 ff9c     .qK.t...A...Q...
   108f0:	4850 fe21 e712 ff6d 6b8e fe15 1a7d ff84     PH!...m..k..}...
   10900:	10b0 ff3b c996 003a a9ce 00c9 79d0 00e2     ..;...:......y..
   10910:	ac28 ff0e 3d96 ff5e 3938 ff9c 3c8d ff91     (....=^.89...<..
   10920:	6c2d ff95 91ee ff9b 55d1 fe1f 0cc0 00d2     -l.......U......
   10930:	6263 fe5d 1098 0097 b9e1 00dc eb8d ff2c     cb]...........,.
   10940:	aca0 fe15 1a47 ff1f 400d fe5d 381c 00c6     ....G....@]..8..
   10950:	3eb1 01f8 08b6 00f1 65a6 ff94 514e ff85     .>.......e..NQ..
   10960:	de81 01d7 a9bc ff81 07e8 0061 7031 ff3c     ..........a.1p<.
   10970:	e5d9 00fb 6c77 008a 1327 fe7b 3183 00eb     ....wl..'.{..1..
   10980:	5484 0091 e682 ff94 4a19 00bb f505 ff36     .T.......J....6.
   10990:	dbb9 01f1 c212 ffe4 caf1 0066 7169 00ca     ..........f.iq..
   109a0:	eb9b 004f 0915 ffb2 019c 00ef 94c8 003d     ..O...........=.
   109b0:	f773 ffd2 dd31 0087 bd3a 0108 2e23 0009     s...1...:...#...
   109c0:	4151 ff05 9e34 ffb9 747d ff2e 8c4a ff0d     QA..4...}t..J...
   109d0:	5cd2 feac 1793 0047 e0d9 fefd 6c73 ffb4     .\....G.....sl..
   109e0:	3a91 fe30 b1db ff18 ff9c 013c 939a 00f2     .:0.......<.....
   109f0:	86fd 0057 4b35 00e5 c330 ffde af1f ff32     ..W.5K..0.....2.
   10a00:	d29c ff78 23d0 ffde f812 01b3 0a02 ff65     ..x..#........e.
   10a10:	c29d fff8 cc9e ff65 fe68 ffc5 3e4f 0004     ......e.h...O>..
   10a20:	acb2 0165 9260 fffb 0a41 009c 8902 ffa5     ..e.`...A.......
   10a30:	0474 00e7 d7f2 0001 2313 ff1d a12b 004f     t........#..+.O.
   10a40:	953b 01f6 42fb 00b0 21c8 ff03 6e50 ff8e     ;....B...!..Pn..
   10a50:	a1c3 0111 38e4 ff42 2f7b fe91 0484 00a4     .....8B.{/......
   10a60:	ae43 00ac fd19 0072 6157 0157 dcfa 0054     C.....r.WaW...T.
   10a70:	5b60 ffc8 7d25 003b 4113 0076 34a1 fff1     `[..%};..Av..4..
   10a80:	aced ff06 bfb0 ffff 4101 fe82 bedf 00e6     .........A......
   10a90:	fd65 ffe7 2392 006d 1dfa 014d 0031 0013     e....#m...M.1...
   10aa0:	5a7b 019b 5616 ff20 d5da 0041 5d6f 007f     {Z...V ...A.o]..
   10ab0:	5d3c ffa9 7f08 00b6 ba11 fe0e 89fd fff6     <]..............
   10ac0:	19d5 fe30 ee4c ff00 5cf8 ff46 e063 008b     ..0.L....\F.c...
   10ad0:	09b8 01ff a407 00d0 83cd 01c6 d657 00c7     ............W...
   10ae0:	d682 005f 95dd 00de 2617 feab 6ec5 00d5     .._......&...n..
   10af0:	732b fe8c b1d7 0076 3460 0142 9e75 00ed     +s....v.`4B.u...
   10b00:	400e ffb6 3f2e ffae 5f9e ffbe cde1 ffb1     .@...?..._......
   10b10:	052b ff8e 63ac ffd4 bbf4 0093 331d ff99     +....c.......3..
   10b20:	74e4 fe18 651e 00cf f613 ff96 e786 0005     .t...e..........
   10b30:	867d 01e2 414d 0062 82ec ff21 6e05 003e     }...MAb...!..n>.
   10b40:	6c45 ff7f 7107 0016 1491 fe53 a1c2 ffe7     El...q....S.....
   10b50:	b583 003c d1d9 ffb1 94e5 fed4 8303 00b8     ..<.............
   10b60:	b175 01bb 0e1c ff1f 66b0 0050 5432 ff97     u........fP.2T..
   10b70:	1f7d ff36 9d15 ff85 b313 018b e8e0 001a     }.6.............
   10b80:	7522 ffaa fca7 ffab 8d49 fece fa81 0023     "u......I.....#.
   10b90:	4f48 01ec e5dc ff14 ca29 ffad 4c63 ffee     HO......)...cL..
   10ba0:	16c6 ffe0 c66c ffc3 8d24 0160 9eec ff3b     ....l...$.`...;.
   10bb0:	646a 0057 e26e 0002 eae3 00de 5d9a ff77     jdW.n........]w.
   10bc0:	704a ffa4 5b43 ff02 9115 ff21 d666 ff89     Jp..C[....!.f...
   10bd0:	e6af fe67 f6a3 00a6 f75d fe74 e0a7 ff1c     ..g.....].t.....
   10be0:	02dc 0139 ceab 0054 e47b ff11 781b 0077     ..9...T.{....xw.
   10bf0:	0b77 0193 2fb4 ffe1 c868 feb9 02a5 0072     w..../..h.....r.
   10c00:	4e4d 00d4 9a2d ffb1 c418 fe79 9d52 00b6     MN..-.....y.R...
   10c10:	105a 01be 930c 00c5 ef5f ff98 eb0b 0047     Z......._.....G.
   10c20:	9256 ff77 86ac 00d6 833c 00c4 e1a1 0081     V.w.....<.......
   10c30:	821f fe78 c85f 0033 e769 ffd2 093a ff94     ..x._.3.i...:...
   10c40:	a82b ffdd ed7c 008e d3c6 fe32 f52e 0067     +...|.....2...g.
   10c50:	f8a4 0054 4698 ffd0 75b4 00b1 4f46 00b9     ..T..F...u..FO..
   10c60:	4af3 0020 9c95 00cf c4c5 01a1 35f5 00ef     .J ..........5..
   10c70:	5d0f fef6 f08b ff31 58c4 ff24 26a2 007b     .]....1..X$..&{.
   10c80:	c880 019d 4cae ff67 a9ad fe22 01d8 ffab     .....Lg...".....
   10c90:	3372 0011 e488 00c2 966e fe38 f66a 009f     r3......n.8.j...
   10ca0:	b813 ff4f 4d96 fff0 509b 00a2 3500 ffa9     ..O..M...P...5..
   10cb0:	971d 0056 5e44 0010 075c fe6e 7562 ff95     ..V.D^..\.n.bu..
   10cc0:	4df9 ffe6 0afd 008c 7cd6 fe5c 7623 00eb     .M.......|\.#v..
   10cd0:	3059 0139 3516 00a6 90b8 ff3d ffb3 00c2     Y09..5....=.....
   10ce0:	f8d6 fe3d 6e3b 00f6 1579 fe51 03a6 00e4     ..=.;n..y.Q.....
   10cf0:	406a ff1a e845 ff86 dcf2 fe35 dc2e 0055     j@..E.....5...U.
   10d00:	9571 fff7 b361 ff67 7fbe 000b d187 00b6     q...a.g.........
   10d10:	345f 0181 90aa ffce c87a ffcc 64a8 0092     _4......z....d..
   10d20:	903c fe95 3c46 0028 347a ffb1 d3f6 ff65     <...F<(.z4....e.
   10d30:	edae 0008 3307 0078 1f13 00ad ef7e ff9c     .....3x.....~...
   10d40:	bd8f 00cb 80c4 ff58 85e9 ffe2 7d1e ffad     ......X......}..
   10d50:	6cc9 0032 647b ff3b a3fe 0103 94dd ffb5     .l2.{d;.........
   10d60:	88d6 fe39 b4de ff89 58cf ff36 211c fffb     ..9......X6..!..
   10d70:	d643 0134 d0d2 0064 aa51 005e 2891 0035     C.4...d.Q.^..(5.
   10d80:	6fe0 fee7 1c23 fff4 c7e2 fec3 11ee 00e6     .o..#...........
   10d90:	d9d9 fea4 9da9 00dd 2eda 01a2 cfc7 ffa3     ................
   10da0:	736c 01a2 600e ffbb 3c76 004c 9fb8 0098     ls...`..v<L.....
   10db0:	e7d1 fe47 a42a ffba 99ba fe33 abdd ffb6     ..G.*.....3.....
   10dc0:	8ea2 00ad 2feb 00c1 8b07 0110 a45f ff40     ...../......_.@.
   10dd0:	dd10 00a6 c5db 0010 1d84 ff2c 4564 ff75     ..........,.dEu.
   10de0:	eb3c fe58 5128 00ad be47 ff3d 58bb 009d     <.X.(Q..G.=..X..
   10df0:	0be7 0017 75ed 00a4 a8e1 ffdf 729a ff74     .....u.......rt.
   10e00:	98a3 01f2 2018 00aa 627d fe71 13a8 004c     ..... ..}bq...L.
   10e10:	9d11 fedc 349b 0005 6f13 ffa1 5a47 fffc     .....4...o..GZ..
   10e20:	6ead 00f0 c60a ff79 fffd fff0 7b42 00d2     .n....y.....B{..
   10e30:	c2dd fed7 a379 ff11 07e1 0063 31be 00b6     ....y.....c..1..
   10e40:	0973 0185 1ae8 ff8a 44d5 0084 772c ff7a     s........D..,wz.
   10e50:	62b3 0033 5a95 006a 3247 ffe6 990a ff76     .b3..Zj.G2....v.
   10e60:	46b1 0019 57a5 00cd 8a37 00ea 1eee 0061     .F...W..7.....a.
   10e70:	9b71 00cf 9962 007f 6b22 fedb 7275 ffac     q...b..."k..ur..
   10e80:	b44c feff 39f2 ffb3 22dd feac a238 ff31     L....9..."..8.1.
   10e90:	0353 ffff dd71 ffbd 19bc fee4 5810 ff59     S...q........XY.
   10ea0:	1c47 fec6 1116 ff95 79f3 fffe ca6b ff63     G........y..k.c.
   10eb0:	ce09 010e 2fdc 0099 896b 0127 3161 ffc2     ...../..k.'.a1..
   10ec0:	3395 fec5 3aba ff0b 2b6b 01e8 06c8 ff0e     .3...:..k+......
   10ed0:	85b5 fe41 e4dd ffab 3e7b 01e7 eae3 ffb3     ..A.....{>......
   10ee0:	bd22 fed4 bbf4 00f9 0dbe 0150 5982 0001     ".........P..Y..
   10ef0:	85df 00ad de09 ffc6 7f42 004a d8a7 ff5d     ........B.J...].
   10f00:	a89b 01c6 9142 0000 6644 012e 5aac 009a     ....B...Df...Z..
   10f10:	80d8 ff4b 28a0 0033 119e 011b f07c 0031     ..K..(3.....|.1.
   10f20:	caec ffb0 7c97 ffc0 c126 00be b65f 003d     .....|..&..._.=.
   10f30:	93a3 ff7c a5ff ff33 281c fe11 60d7 004e     ..|...3..(...`N.
   10f40:	9156 feda 241f ffca 0956 0005 296f ffc8     V....$..V...o)..
   10f50:	6ced 0061 3e39 002c b875 010f f12d 0074     .la.9>,.u...-.t.
   10f60:	0198 ffdc a59d 00bc 0ffa 0183 2c3c ff7d     ............<,}.
   10f70:	dc41 fffb 324b 00b8 5a35 ff80 50e7 ffc2     A...K2..5Z...P..
   10f80:	8188 017f 1215 ffbb 3a2d ffa1 9347 0022     ........-:..G.".
   10f90:	f9ae fe0b 8d23 001d 44ef ffb1 6e73 003a     ....#....D..sn:.
   10fa0:	beee 01b1 f557 ffa6 31be fff7 5392 ffb8     ....W....1...S..
   10fb0:	0ead ff27 d792 0068 df8e 0078 c895 ff9b     ..'...h...x.....
   10fc0:	cfd4 0191 b510 00d9 20ad ff57 23ff 00b5     ......... W..#..
   10fd0:	df77 01a1 dfc8 ff5e 0646 ffba 43c0 ff55     w.....^.F....CU.
   10fe0:	a932 0098 1a90 ff7b f338 feb3 4414 0088     2.....{.8....D..
   10ff0:	8c27 febc d0fd ff05 73c8 0187 ac2b ffe5     '........s..+...
   11000:	689c 00bb fb97 00a7 8734 0017 9997 0048     .h......4.....H.
   11010:	c593 fe6b 9e94 ff05 8fee 00ce 997e ff89     ..k.........~...
   11020:	9858 fec5 4407 00a7 9ffc ffa5 4eef ff36     X....D.......N6.
   11030:	3f18 ff37 de26 005e b7ed ff0c ccce 00d2     .?7.&.^.........
   11040:	2713 fef6 4a1e 00e7 6c87 011d 73b3 0000     .'...J...l...s..
   11050:	7675 0174 0684 fffc 8191 01a1 4369 008d     uvt.........iC..
   11060:	2552 ffe2 e2ee ffe4 d6cc fe81 7ba2 ff64     R%...........{d.
   11070:	79b9 00ea 6c2d 00e7 0842 ff38 8884 0080     .y..-l..B.8.....
   11080:	e0ac fe42 9daf 00bc dfe6 fee2 dbf2 0045     ..B...........E.
   11090:	0eb8 0177 a252 0038 7b72 0014 67a2 ff55     ..w.R.8.r{...gU.
   110a0:	ef31 fe63 879c 00d7 ff6f fea7 c427 00d6     1.c.....o...'...
   110b0:	2690 014f a8f9 007d 619b ff9c 3417 ffdb     .&O...}..a...4..
   110c0:	1696 0090 952c ffa5 7f28 00b7 4dc4 ffe9     ....,...(....M..
   110d0:	8176 ffd2 87aa ffe6 77d6 00c6 f0e9 0023     v........w....#.
   110e0:	34fd ff07 6675 ff30 cc15 ff9a 88b3 ffb1     .4..uf0.........
   110f0:	0217 0103 8295 ff59 11fc 019f 3c46 001a     ......Y.....F<..
   11100:	6b90 0011 beb4 ff3c b638 ff3b 476e ff36     .k....<.8.;.nG6.
   11110:	12c6 ff81 e095 ff57 15df ff98 168a ffb6     ......W.........
   11120:	9cfa 00cd 2dec ffd0 944f 01f2 4665 00d1     .....-..O...eF..
   11130:	4e67 00ae 9065 ffac 8898 01ed c2bf 0088     gN..e...........
   11140:	5071 017d 0498 008d 969b ff35 74c4 00f5     qP}.......5..t..
   11150:	72ef fe49 5213 ff11 7d7c ffea 3428 00bf     .rI..R..|}..(4..
   11160:	d22a ff9e 849b 00a5 05b2 012a 5c40 ff28     *.........*.@\(.
   11170:	5524 ff4d e4b2 0076 4289 fe60 e273 0042     $UM...v..B`.s.B.
   11180:	f06e fe45 6f97 0050 aea7 ffec 6ce3 ff6b     n.E..oP......lk.
   11190:	f2bc ff41 51b7 00ff ce39 ffb5 222f ffb5     ..A..Q..9.../"..
   111a0:	f0d5 019e 4b47 005f 289c ff18 d266 0051     ....GK_..(..f.Q.
   111b0:	c7ab ffe4 229a 0029 afe3 004b ef15 00c3     .....")...K.....
   111c0:	e58a 015f c04c 0031 7b75 0157 e1e3 0082     .._.L.1.u{W.....
   111d0:	3e7d ff3f c602 00ab 24fe fe0d ba91 00ce     }>?......$......
   111e0:	ff94 fff4 0023 00a6 961e 01db e45c 00d4     ....#.......\...
   111f0:	c65c fe3c 853e ffc8 29c9 003b ee7d ff6d     \.<.>....);.}.m.
   11200:	a3b4 01ee 7a8c 0052 1609 ff58 9dc5 ff2f     .....zR...X.../.
   11210:	5e99 0039 1e58 00b6 a154 0055 92b2 007c     .^9.X...T.U...|.
   11220:	a6a6 ff07 d015 00df b69c 00f2 799b 00b9     .............y..
   11230:	9c53 feae 109a ff76 53ba 01e8 3adf ff79     S.....v..S...:y.
   11240:	171d 0058 7d23 ff7f 05aa fe95 0ca4 ff82     ..X.#}..........
   11250:	c49b 001d 60a1 0088 2307 011d 25a2 00fb     .....`...#...%..
   11260:	2e03 fff2 d900 00bc ae39 01e2 e9ce 0002     ........9.......
   11270:	bb39 fe88 bd7b ff09 75c9 ff7f 24ba 00cc     9...{....u...$..
   11280:	19e7 00d8 4e50 0069 8613 ff81 cb94 0044     ....PNi.......D.
   11290:	518d fe7d a5f8 ffc8 90d6 0087 3797 ffa6     .Q}..........7..
   112a0:	eb26 005b 2e15 009a fedf ff96 9923 ffb4     &.[.........#...
   112b0:	b07d 011d 622b ff1e 7ad8 ffe6 a0e9 000c     }...+b...z......
   112c0:	b939 fe0c 71f0 ff07 0905 fe10 5b1a 006c     9....q.......[l.
   112d0:	c66d 00cb 9308 0028 8681 ffe4 ba7c ff28     m.....(.....|.(.
   112e0:	6272 fe84 84a6 0017 4563 002c f209 ffee     rb......cE,.....
   112f0:	35b8 003b 8184 ff66 2034 fef3 df93 ffc8     .5;...f.4 ......
   11300:	537b feb3 9087 ffc9 258d 0138 3c97 ffe3     {S.......%8..<..
   11310:	495a 019c accb 00bb 9750 ff2f 895e ffe7     ZI......P./.^...
   11320:	bf24 ff3b d1e1 ffb5 d74a fed5 7606 ffb3     $.;.....J....v..
   11330:	3699 01c1 0032 00e7 9d68 0148 e38c ff9a     .6..2...h.H.....
   11340:	e2b6 fe10 e160 ff5c 1473 feaa fa06 004e     ....`.\.s.....N.
   11350:	4bf8 ffad 5935 ff06 b400 0076 ad48 0001     .K..5Y....v.H...
   11360:	0840 01ce 85ae 00df 3eb9 ff85 0bd6 0062     @........>....b.
   11370:	1fc5 00d0 a7ab fff4 e716 01b5 da96 00b9     ................
   11380:	a9f7 0161 8ba5 fff7 782f 0195 f867 0033     ..a...../x..g.3.
   11390:	453c fe1c b319 00c4 077c feda 6b3a 0051     <E......|...:kQ.
   113a0:	e9b8 ff9c 4afc 0024 bc76 0043 5f8d ff35     .....J$.v.C.._5.
   113b0:	5ede fea5 3d2e 0035 3bce ff73 ec2f fffa     .^...=5..;s./...
   113c0:	054a 0120 9a81 ffee 206a 00e2 bb79 ff3d     J. .....j ..y.=.
   113d0:	a603 fef1 aa43 ffac d81d ffb2 c917 00fc     ....C...........
   113e0:	6efd 00f3 7dc8 0039 c06d ff60 7334 00ee     .n...}9.m.`.4s..
   113f0:	7926 fff3 38c9 0021 76c2 0082 604b ff19     &y...8!..v..K`..
   11400:	1eaa fee6 3f27 00fd 2d24 fffa 01fb 00ef     ....'?..$-......
   11410:	d4a0 015c d12d 00ed 21f3 fe57 54ed ffc9     ..\.-....!W..T..
   11420:	12d4 fe9d 63d4 ff7f 62d9 fe10 ac8b 00ef     .....c...b......
   11430:	c9a8 ff82 c18f ffa9 97ee 01c1 68d7 0029     .............h).
   11440:	3def fea5 0302 00f2 cb16 feb1 ccb1 0016     .=..............
   11450:	8195 fed5 0b1f ff29 9f00 fe79 19a0 ff72     ......)...y...r.
   11460:	50a2 00c8 979d 000b 869a 014e 36d8 00fc     .P........N..6..
   11470:	6730 0085 dc69 00c5 a8fd fe4d b335 0017     0g..i.....M.5...
   11480:	7918 01f0 2eff ff60 3c6b fe87 cd62 fff9     .y....`.k<..b...
   11490:	f93f ff77 3b78 ffd3 b472 fe37 555b 00ed     ?.w.x;..r.7.[U..
   114a0:	d495 014d 4938 0031 c656 0096 d15d 00a0     ..M.8I1.V...]...
   114b0:	cd45 ffb6 5af4 002b 2414 00b0 747a 00dd     E....Z+..$..zt..
   114c0:	a733 0127 01e7 ff3f c50d 0086 d103 ff22     3.'...?.......".
   114d0:	3b87 00ca 64a7 004e df2f 004c 3cb9 003e     .;...dN./.L..<>.
   114e0:	a6b2 017b 0c84 ffa1 ae3d 002b 45c3 0090     ..{.....=.+..E..
   114f0:	2f7f 01bf 2c22 004e ea39 0134 16ff ff28     ./..",N.9.4...(.
   11500:	5ef6 0092 e453 0080 4e3c ffe0 6000 ffd2     .^..S...<N...`..
   11510:	af99 00ec 159f 0049 73b4 fec4 e183 006a     ......I..s....j.
   11520:	a7ff 0086 089f ff70 4478 ffc2 c4b0 ffc6     ......p.xD......
   11530:	3076 ffa8 a95d 0001 c870 0166 184a 00fe     v0..]...p.f.J...
   11540:	8d13 fe04 3e8e 003f b383 ffbb 9c4d ff9b     .....>?.....M...
   11550:	5677 00a4 d0aa ff92 85d0 ff9a 9b94 ff3a     wV............:.
   11560:	78a2 fee8 d5fc 009b 0df1 002a 325e 0083     .x........*.^2..
   11570:	aab3 0070 538c ff97 7737 0154 238c ffef     ..p..S..7wT..#..
   11580:	2d99 0143 afec 0027 9736 ff67 2a9e ff41     .-C...'.6.g..*A.
   11590:	efc4 fe87 3556 00cb 6195 fe2f 23d8 ff11     ....V5...a/..#..
   115a0:	0346 0146 2467 ff5a 1a28 00ad 30b8 000d     F.F.g$Z.(....0..
   115b0:	dba3 ffd9 0651 ff01 aadd fe6c d0e9 005d     ....Q.....l...].
   115c0:	c964 fef9 2456 ff23 9ad1 011e c9e3 fffb     d...V$#.........
   115d0:	bd02 fea7 3964 0003 800d 0029 64c5 004b     ....d9....)..dK.
   115e0:	cc96 ffeb ae91 003b f878 ff95 3755 00e1     ......;.x...U7..
   115f0:	d272 fe35 ccc7 0077 f70e 014a fb3f 0081     r.5...w...J.?...
   11600:	6843 0197 8287 0050 594f ff37 e675 ff9d     Ch....P.OY7.u...
   11610:	6019 008f 91d5 0005 f145 0178 f395 ff5f     .`......E.x..._.
   11620:	2a72 0014 4883 0002 359a ff14 3e49 006d     r*...H...5..I>m.
   11630:	66c4 0098 0c29 ffcc 267a 010b 0afa 0091     .f..)...z&......
   11640:	7dcf 0094 f4f6 ffde 2029 0155 d570 007e     .}......) U.p.~.
   11650:	f9a2 0156 c647 ff7f 0951 0115 2762 ff04     ..V.G...Q...b'..
   11660:	47cc 012d 6f4b 0089 3bea 00e7 3020 ff5f     .G-.Ko...;.. 0_.
   11670:	1fcc 0172 c41d ffb5 f133 fea7 6d5d 008e     ..r.....3...]m..
   11680:	9068 002d 0ceb ffb5 7034 00a4 fe4c ffca     h.-.....4p..L...
   11690:	0eae 00a2 eb3d ff93 402b feb9 7de9 00d9     ....=...+@...}..
   116a0:	58f3 fea7 314a 0008 cc9c 0042 d67c 007b     .X..J1....B.|.{.
   116b0:	dd26 0176 7092 00ec 6272 00b1 5997 00c7     &.v..p..rb...Y..
   116c0:	c557 0070 95b9 00a1 602c 00a5 b3f8 ff14     W.p.....,`......
   116d0:	dbbc fed8 3e28 000d 8ef3 008d e3e5 ffce     ....(>..........
   116e0:	caac ff23 b075 ffe1 6e52 0126 f52a ff0e     ..#.u...Rn&.*...
   116f0:	5314 0061 ab31 000a 77f2 0078 e819 003d     .Sa.1....wx...=.
   11700:	f0d4 ff93 7304 ff38 1191 feef 11ca fffb     .....s8.........
   11710:	12f9 fff5 7563 00ef 04b8 ffb3 edf6 ff33     ....cu........3.
   11720:	ef25 ff89 70a6 ffa6 bc51 ff21 fab9 ff8e     %....p..Q.!.....
   11730:	bb36 00ad 70d0 00c9 2bf6 01e4 b868 ff58     6....p...+..h.X.
   11740:	34d4 ffc4 7533 ff6c 75fe 009b 5b2e ff0f     .4..3ul..u...[..
   11750:	0e57 ff90 e357 00cc 1a53 0153 4c9f 00e3     W...W...S.S..L..
   11760:	1b9f 01d5 9718 006c 9075 feb3 d189 0052     ......l.u.....R.
   11770:	9f26 000a 8573 00c9 b6df 019c c46e ff5d     &...s.......n.].
   11780:	3c39 00e9 a705 ff69 c59a 00a4 2260 ffba     9<....i.....`"..
   11790:	8593 0125 63dc 00be a701 ff54 9114 00ab     ..%..c....T.....
   117a0:	c5c2 fefb 4e5f ff85 f8fc fff3 5de1 ff83     ...._N.......]..
   117b0:	86bb ffc4 99d8 00aa 7614 fe9e 018c 0076     .........v....v.
   117c0:	9e56 010f d32d ff29 0193 fe64 7471 ff4c     V...-.)...d.qtL.
   117d0:	7fd3 016c 0f67 0030 10c1 0166 3345 ff5f     ..l.g.0...f.E3_.
   117e0:	806b 009d ab89 00e9 7c5a 0190 a16a 00b6     k.......Z|..j...
   117f0:	4caf 01ec 8dc8 ffac 3aa3 0068 b4e9 ff34     .L.......:h...4.
   11800:	fdf0 ff0e 71a2 fffe ef26 fe8a 2e34 00a6     .....q..&...4...
   11810:	65f1 fe21 ba83 009c d06f ff3e 5e7c ffa0     .e!.....o.>.|^..
   11820:	ac1f 00fe ae70 ff38 63bc ff1b 8a43 00fb     ....p.8..c..C...
   11830:	3a7d 0180 989c ffae 0cb2 fff7 54fc 009e     }:...........T..
   11840:	c552 fe0e c8ac ff53 2725 012e cf6a 00a7     R.....S.%'..j...
   11850:	bd18 0022 b283 0090 d5ce 0004 e2a1 00d2     ..".............
   11860:	3348 ff69 2d61 ffbb b84e ffdf 1db0 00fb     H3i.a-..N.......
   11870:	a04f ff56 2574 00b2 4d52 01d5 5452 ff8d     O.V.t%..RM..RT..
   11880:	65e2 01d4 58af ffc7 5ef5 01f7 76ac ff6d     .e...X...^...vm.
   11890:	b9a6 00be b583 0078 fe57 ff5d f086 ff49     ......x.W.]...I.
   118a0:	f520 ff8f a28b ff67 62b3 fe12 ccd9 0070      .....g..b....p.
   118b0:	df93 ff78 0a35 00f3 8ca6 0096 507d ffc8     ..x.5.......}P..
   118c0:	6d0e ffdb da5b ff01 fcfc fe2f 9c6d ff74     .m..[...../.m.t.
   118d0:	3173 017f 57cc ffd3 ca94 ffd9 551a fff9     s1...W.......U..
   118e0:	f50e 0186 594c ffa9 2df2 00e6 623b ffac     ....LY...-..;b..
   118f0:	4972 fe84 9b4e ff31 7e9e 0054 af31 ff2b     rI..N.1..~T.1.+.
   11900:	b610 ff54 679d 0023 c168 ff6d dd43 009a     ..T..g#.h.m.C...
   11910:	acc9 fe01 a208 0058 01a5 ff1d 9b7d ffe5     ......X.....}...
   11920:	9a1e 01dc ef67 005c 01dc ff6d c6ca 0001     ....g.\...m.....
   11930:	025e 018e 3624 002c e2eb ff9e fbaa ffd6     ^...$6,.........
   11940:	4db9 0009 4a61 00f2 a3db ff95 23f0 ff76     .M..aJ.......#v.
   11950:	72df fe58 c7c0 0003 256a ff18 a1c9 ff76     .rX.....j%....v.
   11960:	5961 0163 3ae0 ff67 c765 fe93 3cde 0063     aYc..:g.e....<c.
   11970:	19ea 013b 8734 001b 0366 fe5b d8a8 00eb     ..;.4...f.[.....
   11980:	e8e5 0088 3c68 0081 a82e 00ee bf27 0043     ....h<......'.C.
   11990:	a34b 002f 618f ff62 d838 01a8 e9a8 fffc     K./..ab.8.......
   119a0:	6f23 ff16 545c 002b c81a 0157 fd5b 0098     #o..\T+...W.[...
   119b0:	38ca 0046 088e 004d 0a50 01af c7fc 004c     .8F...M.P.....L.
   119c0:	6e16 ff52 0181 00c2 800b 013d 0e57 ff91     .nR.......=.W...
   119d0:	defd 01be 480f 00ae a355 fe56 633a ff2c     .....H..U.V.:c,.
   119e0:	182d febc cd1a 000f e513 fed2 43f8 00c3     -............C..
   119f0:	4763 00b8 c79a ff25 f397 ff79 3326 ff4b     cG....%...y.&3K.
   11a00:	55c9 fe82 412c 00fa 9339 fef3 2b92 ff3b     .U..,A..9....+;.
   11a10:	1c59 0035 5421 ff18 33b3 fe12 46bd 0053     Y.5.!T...3...FS.
   11a20:	9c0b 01b3 8662 0077 6f9e 006f 9a77 ff49     ....b.w..oo.w.I.
   11a30:	3fc8 fe8c 0d2d ff0d c09a fe02 4851 002a     .?..-.......QH*.
   11a40:	a02e feb9 702c 0006 d792 0195 b01a 0068     ....,p........h.
   11a50:	1c44 0157 32ec ff99 80b3 fefa c1ce ffbf     D.W..2..........
   11a60:	5ca6 fe89 2835 00ef 01d2 fecc ada8 0023     .\..5(........#.
   11a70:	f38d 012d 3224 ff6d f20f ffc2 9fe3 ff7a     ..-.$2m.......z.
   11a80:	afb0 feca 3946 0048 df28 0038 a2d0 ff3a     ....F9H.(.8...:.
   11a90:	62b7 005d 6f0f 000c 081e ff4c 7f84 fff6     .b]..o....L.....
   11aa0:	f22d 0067 b545 ff0f d10a 001e b303 0079     -.g.E.........y.
   11ab0:	e8f1 01da c77b ff58 d202 01ca 82bc ff51     ....{.X.......Q.
   11ac0:	655e 01d0 2467 002d c14c 0118 1a5f fff1     ^e..g$-.L..._...
   11ad0:	a2a5 00bb 7224 008c 42ca ff05 3825 0093     ....$r...B..%8..
   11ae0:	0b98 01f3 557f ffe8 87fa 01d4 b1b9 0071     .....U........q.
   11af0:	dc5a ff4b f845 0092 6f32 0032 165c 0050     Z.K.E...2o2.\.P.
   11b00:	24f4 fe73 64a3 ff52 c119 0106 3d7f 0024     .$s..dR......=$.
   11b10:	43fd fe1e ec41 ffaa 11a1 fed7 af3f 008c     .C..A.......?...
   11b20:	7f37 0004 704f 00e9 a06d 0028 538f ff07     7...Op..m.(..S..
   11b30:	1a41 ffee a9d9 ff8c 5e4e ffbd 9300 ffbe     A.......N^......
   11b40:	4793 feba 4d6a ff7f 9de9 01e9 5787 ffed     .G..jM.......W..
   11b50:	0dd0 01ec 6d9b ff24 64b4 00da a3b4 0012     .....m$..d......
   11b60:	6ebe 0109 3f11 ff7b 88b3 ffb4 7ba5 ff7b     .n...?{......{{.
   11b70:	bc90 fe51 f047 ff6c 7019 ff0b dae3 ff33     ..Q.G.l..p....3.
   11b80:	32a7 ffea 4f72 ff6c 131f ff73 f0b7 0063     .2..rOl...s...c.
   11b90:	57e3 ff8f d948 fff8 a966 015f 9581 0095     .W..H...f._.....
   11ba0:	85ee 010c cce3 0023 73d0 011a 0866 00ea     ......#..s..f...
   11bb0:	5870 018f f990 000e 9ef0 feac 7064 0077     pX..........dpw.
   11bc0:	8dc2 fe99 3828 ff53 b079 002e 352a ff4c     ....(8S.y...*5L.
   11bd0:	bf9e 009a d15b 005c 0dad 0110 4805 ffe2     ....[.\......H..
   11be0:	fecc 0095 b850 00cf 0964 fe7a 6576 ffab     ....P...d.z.ve..
   11bf0:	cbfc fe00 cfa0 0036 4838 01f9 8c38 ff0d     ......6.8H..8...
   11c00:	400a fe6b 655b ff34 b5e1 01f8 ff8b 0084     .@k.[e4.........
   11c10:	91e6 0011 38e9 0017 0177 fff1 a9d5 ff97     .....8..w.......
   11c20:	6363 fe09 0fb9 ffbf 67ad 016d 0dae fffb     cc.......gm.....
   11c30:	58b2 fe07 3b1b ff44 210a ff02 61f8 003b     .X...;D..!...a;.
   11c40:	1e1a 0192 93b0 000a 795f 01cf 58bc 0018     ........_y...X..
   11c50:	5eb9 fefe 3773 00c9 3218 0046 3578 0006     .^..s7...2F.x5..
   11c60:	428e 0092 e2e4 fff9 c068 01de 44ad 00db     .B......h....D..
   11c70:	b8a2 ff24 668f ff89 0b9d 0017 2d7d 0062     ..$..f......}-b.
   11c80:	5deb fee1 7038 ffa0 7446 01f3 f999 ff37     .]..8p..Ft....7.
   11c90:	2781 0111 50f1 00f4 4557 0115 e45e ff49     .'...P..WE..^.I.
   11ca0:	424e ff41 e3c2 00e7 923d ff57 9bad ff17     NBA.....=.W.....
   11cb0:	7470 fedb 26d8 ff0b ba83 0085 d45e 00bb     pt...&......^...
   11cc0:	2f64 005b fecc ffaf 12de fed7 44ad ff6c     d/[..........Dl.
   11cd0:	e4e3 ff4f dd26 00d5 e3a3 fe96 be1f 0012     ..O.&...........
   11ce0:	b3a0 010b 5a0a ff5e aedc 0058 d3a3 ffe5     .....Z^...X.....
   11cf0:	88c7 0034 5f82 ffdd bc8c fee7 718b ff80     ..4.._.......q..
   11d00:	ab75 feec dc31 ff14 143b ffab 6de4 00bc     u...1...;....m..
   11d10:	e114 fe20 10c3 00ae fee3 0188 2787 0069     .. ..........'i.
   11d20:	4d96 ffce eed2 00e2 d437 fe84 39ef 007c     .M......7....9|.
   11d30:	c2aa ff5d 10f9 fff7 9718 ff3e 970a 000a     ..].......>.....
   11d40:	8b4f ffb2 f278 00ca db1a 00d5 7d3e ff23     O...x.......>}#.
   11d50:	0290 ff6c 21e6 ff53 2d51 01d8 3ee0 0011     ..l..!S.Q-...>..
   11d60:	d9d6 007d 9962 ff99 b0b3 fe6a 5d83 ff8a     ..}.b.....j..]..
   11d70:	3e6d ff24 79b2 ff20 fc78 0046 f8dc 0025     m>$..y .x.F...%.
   11d80:	58cc 0167 dc80 fffb e3ec 0107 316a ffc6     .Xg.........j1..
   11d90:	383c 006b 7263 00ee ccdc 015e bb49 0001     <8k.cr....^.I...
   11da0:	9a59 0022 d94e ffa5 c30e fff9 e609 fffd     Y.".N...........
   11db0:	87cd 00f5 fc1a ff07 cd54 011b 0286 0070     ........T.....p.
   11dc0:	9e25 0020 5be7 ffed aabf ffcc 0798 00de     %. ..[..........
   11dd0:	c06d 0031 a6c1 ff92 13e8 ffb5 8e69 ff34     m.1.........i.4.
   11de0:	1067 011b c8fd 00a5 d9c3 ff04 bd34 ff90     g...........4...
   11df0:	9b7b fea0 8257 ff36 784e ff3d 380e 0029     {...W.6.Nx=..8).
   11e00:	2919 ff7d a857 00f5 a5d6 0046 a9d4 ff06     .)}.W.....F.....
   11e10:	d3db fec2 5d48 ffa4 21c5 ff67 8e2b 008d     ....H]...!g.+...
   11e20:	e183 00ac 69f4 001c 4444 00e1 5488 ff0d     .....i..DD...T..
   11e30:	3982 fe28 4d8b 0038 9654 0035 5f36 009d     .9(..M8.T.5.6_..
   11e40:	0d90 feb1 735f 00ba 1775 ff76 a6f4 fff1     ...._s..u.v.....
   11e50:	ba0b 0087 6ab2 ffcb da61 005d fd2b 002d     .....j..a.].+.-.
   11e60:	98a4 0004 768b 00ef 0160 fe18 99eb ffd3     .....v..`.......
   11e70:	6ea8 ff14 ef32 00b0 2972 00e8 fac1 0035     .n..2...r)....5.
   11e80:	a0fe fe6f 7a88 ff29 6c61 0043 98d7 ff17     ..o..z).alC.....
   11e90:	d18c 00d4 bd2a 00a3 2aca ff32 6a6a ffbd     ....*....*2.jj..
   11ea0:	44be ffd9 3ae9 0075 dce5 01f3 03c5 0004     .D...:u.........
   11eb0:	7825 fe36 9c04 ff86 3d24 feab 88a5 ff64     %x6.....$=....d.
   11ec0:	e8d4 000e ae5a 000a c6d8 ff41 030c 0040     ....Z.....A...@.
   11ed0:	7174 ff73 67f8 0008 7de7 ff12 1ca0 00c5     tqs..g...}......
   11ee0:	b81e 0123 49df fff9 147b fe2e 3887 ff25     ..#..I..{....8%.
   11ef0:	0dad 01e5 a177 ff22 3df5 0049 7dcd 0070     ....w."..=I..}p.
   11f00:	6889 0086 f6d9 ff1e 8eed 008f 9f41 ff66     .h..........A.f.
   11f10:	a46c 00be 75db ffad 2522 fe78 45c8 0050     l....u.."%x..EP.
   11f20:	7c1f feda 1b4a ffa0 9aba ffc7 c747 00fc     .|..J.......G...
   11f30:	5168 019f c811 0027 3dd3 01c0 ee1a 005b     hQ....'..=....[.
   11f40:	d994 000c 5b3b ffd5 510b ffb7 e681 ff7a     ....;[...Q....z.
   11f50:	cb72 0191 b477 ff42 8a48 00b4 95e0 006a     r...w.B.H.....j.
   11f60:	5277 ff68 8cd0 002b 0962 ffb6 65cd ff86     wRh...+.b....e..
   11f70:	6512 0026 c55f ffa6 f1cb 0093 d03e ff91     .e&._.......>...
   11f80:	f685 00fb a902 000e f70d 00b8 078e 00fe     ................
   11f90:	c824 ff17 cd58 00df 815b ff34 ba15 001e     $...X...[.4.....
   11fa0:	e48f 01d2 eaf7 fff8 45e6 fe1f bab0 ff87     .........E......
   11fb0:	cdee 0134 4f8b 002b b011 fed9 f320 0043     ..4..O+..... .C.
   11fc0:	6ff2 00e9 232c ff09 72e3 0151 4704 ff0c     .o..,#...rQ..G..
   11fd0:	6926 00bf 7507 ff32 4f51 0010 443f ff41     &i...u2.QO..?DA.
   11fe0:	249d ff6e f14d ff03 2de2 01fb 198e 00ce     .$n.M....-......
   11ff0:	7b78 01d1 fe1c ffee 8005 ff7e de5b ffd7     x{........~.[...
   12000:	0fa2 00bf f056 0049 b987 fe51 f12c 00a3     ....V.I...Q.,...
   12010:	dbd4 ffd2 a270 009b 65cf 0076 48a8 ff38     ....p....ev..H8.
   12020:	05c4 0034 ac48 fff2 167e ff9d 6092 ff3b     ..4.H...~....`;.
   12030:	79a2 fe98 108c 005f fec3 fec8 9652 00a2     .y...._.....R...
   12040:	2b77 fe91 accc ff4e e0a6 009f 1368 ffed     w+....N.....h...
   12050:	7ef5 ffd0 3be2 00d5 d975 00c5 4898 00ed     .~...;..u....H..
   12060:	1fdc fe17 5a0e ffe7 d4bc 0140 653c fff6     .....Z....@.<e..
   12070:	1855 0056 b101 006d 5392 0120 b64b 00c0     U.V...m..S .K...
   12080:	f177 00e0 edb9 ff1b 65b8 0152 25eb ff4d     w........eR..%M.
   12090:	86fd 0013 f6e8 007a 6a3c 00b3 0bc3 000c     ......z.<j......
   120a0:	426d 01eb 717d 003b 283d 00a4 68af 00f0     mB..}q;.=(...h..
   120b0:	2f02 ffbb 0c32 008d 8bc2 ffb5 fa87 0068     ./..2.........h.
   120c0:	5c61 ffde 95d9 ffc9 f1cb ff76 974f 0043     a\........v.O.C.
   120d0:	8e7a ffda f595 00ef 2a8a fec8 2550 ff61     z........*..P%a.
   120e0:	707c ffa7 8a24 ff57 1d82 ff93 57f1 ff4e     |p..$.W......WN.
   120f0:	61cc 0113 d1b1 ff16 e3f7 fe7f 7763 ff53     .a..........cwS.
   12100:	19d4 01c6 b310 00b3 4d91 feac 9959 ff0e     .........M..Y...
   12110:	bdda 00a7 e96b ff3b 2123 fef3 702c ff70     ....k.;.#!..,pp.
   12120:	7fa1 014f afcc 000a 1528 fe8a 7468 00e4     ..O.....(...ht..
   12130:	5fc7 ff89 be85 ffa8 a592 01ea 63b7 0027     ._...........c'.
   12140:	dcb7 fe36 deff 0085 dba2 fe79 ef3f 0006     ..6.......y.?...
   12150:	66e1 ff36 12fb 00f6 2204 0181 2487 0083     .f6......"...$..
   12160:	32ce 013b 610f 00b7 d8ab ff87 9865 ff2b     .2;..a......e.+.
   12170:	fb96 005b 9126 005f cc22 fe26 8cb2 ff53     ..[.&._.".&...S.
   12180:	8119 fff3 904c 0025 246a fe1a 9076 ffac     ....L.%.j$..v...
   12190:	ba44 ffe5 a16b ffd5 a32e ff44 aa95 00fd     D...k.....D.....
   121a0:	11bb 000f a0da ffa5 23ab 01f6 0d60 0013     .........#..`...
   121b0:	cba5 0075 6bd6 ffc0 7bf4 01b1 0364 0068     ..u..k...{..d.h.
   121c0:	f2b2 ff61 4cfb ff82 4dd3 012a 4ffa ff46     ..a..L...M*..OF.
   121d0:	f43f 0150 6569 00f6 883d 013a 5bee 00d5     ?.P.ie..=.:..[..
   121e0:	3b0e ff62 54a7 004d 8411 fe2e af39 ffc5     .;b..TM.....9...
   121f0:	3eb9 00b8 404c 00cf afac fed0 4aaf 0025     .>..L@.......J%.
   12200:	1b8a fed3 7d94 00c2 590a 0051 cba8 ff65     .....}...YQ...e.
   12210:	d52b 01d1 f5eb 0036 231e ffe2 7e09 0046     +.....6..#...~F.
   12220:	7de2 fe5e 759c ff14 f839 0170 30e6 ff40     .}^..u..9.p..0@.
   12230:	5ca4 01a6 d6e0 ffe6 7824 008f 0837 ff2b     .\......$x..7.+.
   12240:	01fb 01f5 626a 00a5 6b4a fe6a 0435 ff36     ....jb..Jkj.5.6.
   12250:	b25a 0196 7803 ff7b 05f4 0159 fa72 ff3d     Z....x{...Y.r.=.
   12260:	99fe 0152 0f4d 0011 ee39 015a df5f 00e6     ..R.M...9.Z._...
   12270:	34ec fe2f 9467 ffa4 cf79 0124 1012 ffb9     .4/.g...y.$.....
   12280:	144b 004a 0bbb 0065 302e ff81 ef16 ffd2     K.J...e..0......
   12290:	ec4d ff81 4d6f ffcc 483d ff61 d9c7 fffb     M...oM..=Ha.....
   122a0:	d72a 00cc 9185 ffc9 e639 0192 64eb 00c6     *.......9....d..
   122b0:	4992 fe23 c66c ff14 4fb6 ffd2 6752 0088     .I#.l....O..Rg..
   122c0:	6cf6 00b0 1122 ff3c 4a13 fe72 aaa8 ff4e     .l..".<..Jr...N.
   122d0:	ef9d ff14 2995 00a8 793a 001c b34f ff86     .....)..:y..O...
   122e0:	79e7 ff87 d1ae ff62 7af3 00be a6ab 00cd     .y....b..z......
   122f0:	74d4 0030 6c1d ff42 dea2 01b6 770e 0015     .t0..lB......w..
   12300:	27d5 fff9 dffe ffe4 a5b7 00c6 be85 0030     .'............0.
   12310:	d07c ff6d af77 ff55 d109 0179 ab30 ffbd     |.m.w.U...y.0...
   12320:	47c3 0186 db88 ff33 5bb6 fe8d 9f31 0048     .G....3..[..1.H.
   12330:	7623 fff5 ba70 ffe3 893b 001f 2c89 00a3     #v..p...;....,..
   12340:	6772 fe3c d508 0096 0aa2 ff71 68c2 0048     rg<.......q..hH.
   12350:	83dc ff74 4fb2 005c facb fed5 c15d ffbd     ..t..O\.....]...
   12360:	ff82 fe22 bcd4 0097 1188 ff14 6514 ff53     .."..........eS.
   12370:	ced4 00a6 eee5 ff49 4a97 ff03 57a8 00d7     ......I..J...W..
   12380:	bc9b ff85 81a6 0049 4ff0 ff85 d3b2 ff51     ......I..O....Q.
   12390:	48cb fea3 a8c1 00a5 a40e fec7 ff1e 00cc     .H..............
   123a0:	4841 015b 4aa6 ff66 2ac8 ff00 71c2 ffe3     AH[..Jf..*...q..
   123b0:	1742 00d0 d8e5 ff64 ef18 001a e90a ff3e     B.....d.......>.
   123c0:	0a7b 01b2 241a ffae db77 01c7 a32d 00be     {....$..w...-...
   123d0:	a810 002a 39a6 ffc6 1a1c 001a a57e 00e7     ..*..9......~...
   123e0:	6cfb ff64 e53d ff79 763a 008a cf4c 0011     .ld.=.y.:v..L...
   123f0:	220d fe70 1059 00a8 d025 ff69 c923 ffd7     ."p.Y...%.i.#...
   12400:	6a28 fe65 ef06 0072 6728 fee2 7ff6 ff6e     (je...r.(g....n.
   12410:	a73f 003a f084 008e 9e05 ff58 4981 ff9e     ?.:.......X..I..
   12420:	595e 0092 36e6 0092 2d08 00ad a94f 0001     ^Y...6...-..O...
   12430:	ba73 00f7 4054 0083 e043 fffd bdcf 0040     s...T@..C.....@.
   12440:	1c9a 0151 b82d ff36 d457 ffe0 6000 ff49     ..Q.-.6.W....`I.
   12450:	2181 01eb 4234 ff50 aefb ff9b b304 0025     .!..4BP.......%.
   12460:	a4ea fe5d af5d 00fd 45c6 ff57 6ae0 002e     ..].]....EW..j..
   12470:	1d63 00d2 bc3e ff72 ea2c 0008 afa9 fff7     c...>.r.,.......
   12480:	6d17 ff89 b6e5 0027 a5c0 fe5e 65f5 00d9     .m....'...^..e..
   12490:	58bf 0060 5ec4 ff63 ee6a fe0b 7e35 00f3     .X`..^c.j...5~..
   124a0:	015e ff65 932e 0002 7cc9 ff7c 0c8d 00da     ^.e......||.....
   124b0:	a60d 019d fb30 ffed fa9b ff7c 946a ff92     ....0.....|.j...
   124c0:	0db6 00ca 3d1c 00a7 98d9 fe08 82dc ff2d     .....=........-.
   124d0:	e6c8 01ff 4137 ff57 bf5d fe61 fb72 000e     ....7AW.].a.r...
   124e0:	6920 015c cf1a 008d cf18 fe0d 3215 ff30      i\..........20.
   124f0:	94ba ff74 2bd3 00e1 2225 fea2 d2a4 ff2a     ..t..+..%"....*.
   12500:	1744 ff60 d6b6 ff08 75f5 ff89 c342 0032     D.`......u..B.2.
   12510:	0c4b fe53 8c50 00a4 a509 0124 6ee4 00e3     K.S.P.....$..n..
   12520:	11f1 015a 3419 00d4 df06 ff0c f38b 0039     ..Z..4........9.
   12530:	710c 014b b7f6 ffbf bfd5 ff45 0fe6 008e     .qK.......E.....
   12540:	c301 ffc4 ab8a ff2f 3f40 016a a910 ffd6     ....../.@?j.....
   12550:	aecf 0138 4958 ff85 85b6 008c 0eb1 ff19     ..8.XI..........
   12560:	b893 ff35 e30a ffa1 d878 fff4 4d49 00e9     ..5.....x...IM..
   12570:	ee9d 018b 413b 00e9 fb46 01d8 b829 ff99     ....;A..F...)...
   12580:	cb20 0070 9392 00fd 6557 016d 522c ff85      .p.....Wem.,R..
   12590:	96f4 ff35 985e ffe8 5d3b ff27 9358 ffdc     ..5.^...;]'.X...
   125a0:	514e 010d 2f20 fffc 13a0 ff72 6b5d ff27     NQ.. /....r.]k'.
   125b0:	1076 01d3 77b9 ffd1 dbe3 fe7f 6958 ffec     v....w......Xi..
   125c0:	6ea2 ff17 a624 ff6e ec5b ffdd ea42 0074     .n..$.n.[...B.t.
   125d0:	136f fef4 e90a 001a b720 fe06 bf02 00f2     o....... .......
   125e0:	9cda fe35 3c29 ff46 eca8 006f b979 ff7e     ..5.)<F...o.y.~.
   125f0:	8eee ffcf 7e37 0034 81dc fed0 cc50 ffa4     ....7~4.....P...
   12600:	1743 fe90 28da ff6c ca7f 00a4 21cb ff03     C....(l......!..
   12610:	9e02 0000 6025 ffbc 31c0 004a 046d 0000     ....%`...1J.m...
   12620:	a76f fe0a da5b ff87 42cb ffad c296 00e2     o...[....B......
   12630:	fdc9 ff06 66ae 0079 bfcd 006e c235 0004     .....fy...n.5...
   12640:	2851 fe2d 6623 ff8f 6c0c ffc6 1b10 ffe8     Q(-.#f...l......
   12650:	47fc 01ba 6eb0 0072 038e 0175 4d71 008e     .G...nr...u.qM..
   12660:	9c13 01c5 2f5c 00fc e835 0116 1236 00eb     ....\/..5...6...
   12670:	232e ffbd d4ec 0081 6002 fed0 eec8 ffc7     .#.......`......
   12680:	af3b ffa4 2b92 00e7 d9c2 ff34 df03 000c     ;....+....4.....
   12690:	368a feb2 eb55 00cf cfe8 0022 3431 ff32     .6..U.....".142.
   126a0:	71a6 ff59 2d0a ffd8 ad3e 001c a56f 00f6     .qY..-..>...o...
   126b0:	7376 ff5b 5480 003c 90a7 00cb 0d57 00f3     vs[..T<.....W...
   126c0:	1e16 01e4 71b1 ff92 aa81 fee6 99fc ff81     .....q..........
   126d0:	e191 002b e746 ff05 697a fe7e f656 ff94     ..+.F...zi~.V...
   126e0:	256e fe9a 03d1 005b 9144 003e 10e4 ffa5     n%....[.D.>.....
   126f0:	dd37 fef9 d2b2 005b 9253 fee2 9245 00ba     7.....[.S...E...
   12700:	d25d fe68 1910 00ad bae7 0026 7abd ff8c     ].h.......&..z..
   12710:	0dfb ff70 6e69 005d 48fb 00aa 17c0 ffdf     ..p.in]..H......
   12720:	0318 01ca 5de1 00e4 9399 fec7 aa6d 0016     .....]......m...
   12730:	65f8 fff6 7cb2 ff0c feb2 fe66 0437 0041     .e...|....f.7.A.
   12740:	d67d 00b4 60b7 0093 752d fe17 bf84 00f9     }....`..-u......
   12750:	b08f fecb b788 ff36 ea92 00b1 6592 ff56     ......6......eV.
   12760:	7b2c 018f d121 0098 5ac0 fe29 0f53 ff7d     ,{..!....Z).S.}.
   12770:	acd5 0052 a9d7 0090 0d10 0022 d120 ff64     ..R.......". .d.
   12780:	1254 01f9 11c5 ffec bad9 00e6 a031 ffb0     T...........1...
   12790:	766f ff61 68ed 00eb 3b4f fe5c f945 ff0b     ova..h..O;\.E...
   127a0:	ac23 014a 7613 0044 7cde ffa5 42b4 ff23     #.J..vD..|...B#.
   127b0:	ae56 00f6 4a2b ff6f 907e ff56 eae4 005b     V...+Jo.~.V...[.
   127c0:	d5f2 fe18 2c45 ffeb b4dc 0023 f808 ff07     ....E,....#.....
   127d0:	2f66 ff5c cdf0 ff66 e671 01ab b91f ffc9     f/\...f.q.......
   127e0:	f6c2 ff46 117a 00bb 4686 ffc7 0395 ff96     ..F.z....F......
   127f0:	3f75 0067 6841 ff7b 36d4 0113 8d06 0058     u?g.Ah{..6....X.
   12800:	8653 fff3 3588 0067 1ba9 00b4 31b1 0018     S....5g......1..
   12810:	366f 00a7 3dc3 ffd7 011f 016c 2a3c 0046     o6...=....l.<*F.
   12820:	03b9 ffa2 95c2 ff28 7ff6 fe26 77be ff26     ......(...&..w&.
   12830:	773d 0108 a160 ffdb cb2a 01dd f2b1 ffa4     =w..`...*.......
   12840:	9ff5 000a c474 0000 5d05 fecd 7f80 00b3     ....t....]......
   12850:	ed7d fff6 a295 ffd9 2557 fe14 ee8c 00c0     }.......W%......
   12860:	0909 00c1 0161 00e2 261d 000a 8800 ff3f     ....a....&....?.
   12870:	48e5 fed2 8626 ff5c da4e 01d0 2468 ff54     .H..&.\.N...h$T.
   12880:	050c ffc1 aff2 ff3d a9bf 012e 93b3 ff93     ......=.........
   12890:	be71 fe8b ac7d 001f 4b03 fefc 24d7 000f     q...}....K...$..
   128a0:	1bc1 0118 45ff ff95 816e 0076 5dcb 00f9     .....E..n.v..]..
   128b0:	898a fe40 4626 0006 7499 00de 4aa1 007b     ..@.&F...t...J{.
   128c0:	63c1 ff4f 3b76 ff5e 0c3d 012b b192 009d     .cO.v;^.=.+.....
   128d0:	932e 00bf ff10 0026 330b 011f 3a3c ff62     ......&..3..<:b.
   128e0:	c26f 014d 5b9a 00f4 288c 0190 0aad 00fb     o.M..[...(......
   128f0:	d1cb fe32 826c 004e b4e4 005a 07ae 00fa     ..2.l.N...Z.....
   12900:	ae1f 003c ab29 001e 6374 ff52 c176 ff8b     ..<.)...tcR.v...
   12910:	adbb fec6 6fda 0038 7bb9 00d8 9ef9 0034     .....o8..{....4.
   12920:	b434 ff5d 09c9 ff5b 2d38 fea6 9b84 ffcb     4.]...[.8-......
   12930:	e83a 006e d334 ff59 00fd 01a2 5709 00b7     :.n.4.Y......W..
   12940:	8891 012c 7a5e 00f5 bc55 01ab 5c93 00c6     ..,.^z..U....\..
   12950:	0800 0068 5f1e 00ae e6dd 0134 f7f7 ffeb     ..h.._....4.....
   12960:	ae89 ff35 1523 ffcc e347 01d6 52e8 00c2     ..5.#...G....R..
   12970:	300b ffe3 49aa ffb8 fbc6 fefc 702c 0022     .0...I......,p".
   12980:	6583 ff83 a848 00bb 8784 ff7d 688a ff61     .e..H.....}..ha.
   12990:	b8ee ffa8 68f3 ff54 d887 ffe2 908b 00ed     .....hT.........
   129a0:	89bc 0196 3850 ff8c a956 ffa7 4ec2 ff19     ....P8..V....N..
   129b0:	11dc ffb4 0d11 00c1 8975 ffd4 e08d 0097     ........u.......
   129c0:	f431 00af 63c1 ffaf 6313 019a 41ff ff3e     1....c...c...A>.
   129d0:	d29c ff37 f4f2 ff03 0efa 0095 589e ffd9     ..7..........X..
   129e0:	cf9d fe86 e8fb 001c 9c2e fffb 38ab ffb8     .............8..
   129f0:	33ef 00ea 8a8e ff83 fe19 01f3 c90a 00c2     .3..............
   12a00:	613f 004b efd2 00a2 c8c0 011f d675 00f3     ?aK.........u...
   12a10:	4718 fede 2836 ffe8 b74c fe6f 0e90 ff57     .G..6(..L.o...W.
   12a20:	4fd6 ff88 c4d8 00d4 1b84 fe8c 0583 00fd     .O..............
   12a30:	6c7c ff13 d71c 004b de4c fe37 b6e9 003f     |l....K.L.7...?.
   12a40:	ab44 febf 6f34 ffde 690a ff4d aa50 00eb     D...4o...iM.P...
   12a50:	188f ff58 e72d 0079 8194 01e0 f63d 0054     ..X.-.y.....=.T.
   12a60:	2efd ffdb 4cef 0021 9431 fe12 25e6 0045     .....L!.1....%E.
   12a70:	8643 fe16 9b8e 005e 9d1f fed3 2ad5 ff1e     C.....^......*..
   12a80:	e404 fef7 b0fc ff0d 0027 fe1f f4f1 ffff     ........'.......
   12a90:	2daa fe0a defd 00f9 72de 0084 2fff ff06     .-.......r.../..
   12aa0:	a3b4 01b3 5e54 ff97 d159 fe52 34e5 ffa9     ....T^..Y.R..4..
   12ab0:	ecd5 0100 38d6 ffe4 7787 ff97 c970 00c1     .....8...w..p...
   12ac0:	a053 fe35 9706 0042 a212 0011 61e9 005b     S.5...B......a[.
   12ad0:	0583 014e 78b5 ff35 5f75 ff3f 75ed 00b9     ..N..x5.u_?..u..
   12ae0:	7ebf ff88 7790 00e9 39b7 0161 c92f ffbb     .~...w...9a./...
   12af0:	a5a7 0177 642d 007e 6215 fe06 9691 ff5f     ..w.-d~..b...._.
   12b00:	3678 0098 62d1 0068 6f8f fe1e 94b8 00f9     x6...bh..o......
   12b10:	d8eb 002e caf8 ff94 5f39 0016 e1f2 00a3     ........9_......
   12b20:	f7e9 ffe8 ab47 ff13 f467 ff31 6754 ff5d     ....G...g.1.Tg].
   12b30:	7944 01f4 e052 000d 4f29 ff2b cef9 ffa7     Dy..R...)O+.....
   12b40:	34d7 fe15 20c0 ff16 6ff7 003c 4a65 ff26     .4... ...o<.eJ&.
   12b50:	5b16 fe54 1c1d ff0d e7c6 fed7 9af4 00c8     .[T.............
   12b60:	89df 00ed 84d3 000e 405f ffce 3e11 fff7     ........_@...>..
   12b70:	83e9 0179 175d 004d cccd fe34 bd51 0088     ..y.].M...4.Q...
   12b80:	dbb4 018a 128f 005e 2bcc fe8c afbc 00db     ......^..+......
   12b90:	626f ff8f 3f97 ffa2 32d3 fe47 9213 0035     ob...?...2G...5.
   12ba0:	2d92 fe53 52b2 ffee 8510 ff54 c6e2 ff5d     .-S..R....T...].
   12bb0:	61c9 ff14 7678 ff23 3272 ffe7 e5a2 ff9c     .a..xv#.r2......
   12bc0:	1ad3 000c 2772 ff73 d4ce 0086 d9c5 ffa0     ....r's.........
   12bd0:	8174 fe5e d7c7 ffdb df4b 01f9 74fd ffb5     t.^.....K....t..
   12be0:	d7e8 ff68 82e4 fff6 75b9 0056 050e 0008     ..h......uV.....
   12bf0:	1def 013d 57ed ff85 927d fe89 a8cc 00df     ..=..W..}.......
   12c00:	a82e 00f5 699a 0016 d4dc ffa1 456b ff18     .....i......kE..
   12c10:	da89 ffb5 54f1 ffc6 7a82 ffd3 088d ff99     .....T...z......
   12c20:	b1be 0076 5960 00b2 10ff fe30 607a ff69     ..v.`Y....0.z`i.
   12c30:	3675 ffe8 7e22 ff69 43cc 00a6 34e8 ff8a     u6.."~i..C...4..
   12c40:	93d3 000c 3619 0007 0f2c fed7 ec33 002d     .....6..,...3.-.
   12c50:	44be 0181 936a 00e1 5d1c fe2d 8dec ff0f     .D..j....]-.....
   12c60:	3d11 00a1 73dc 00c0 91ec fe18 a86f 00a9     .=...s......o...
   12c70:	3ae0 ff3f a47f 00bc ea52 014b 9ee0 0086     .:?.....R.K.....
   12c80:	44d1 016e a6d9 00d9 e146 01a6 c1bb ff8f     .Dn.....F.......
   12c90:	0710 ff58 cd0a 008c c075 019c 3811 0026     ..X.....u....8&.
   12ca0:	7c1b 016c d7ab ff37 fd5f 00d4 879b ffa8     .|l...7._.......
   12cb0:	b2f6 fe99 449a 004a 3de8 fe60 8469 003b     .....DJ..=`.i.;.
   12cc0:	4c21 01c7 b0bd ff82 6809 fe19 c64b ff66     !L.......h..K.f.
   12cd0:	01e9 0070 dc6c ff14 e672 0046 c28c ff85     ..p.l...r.F.....
   12ce0:	9e39 fea4 0692 ff50 c4a9 0161 b755 0082     9.....P...a.U...
   12cf0:	9e46 01de ed3b ffea 1960 ff1a afe8 ff61     F...;...`.....a.
   12d00:	790b fef8 2358 00c2 b4db fefc 084a 00e3     .y..X#......J...
   12d10:	e3c3 0149 6eb8 ffa1 e931 01a4 3580 002f     ..I..n..1....5/.
   12d20:	0e52 ff79 bec1 003a ae30 ff75 1784 0020     R.y...:.0.u... .
   12d30:	0a28 0186 3316 ff19 0bf0 ffb0 396e 0092     (....3......n9..
   12d40:	8f75 01ef 659d ff76 5436 004c b8cd ff12     u....ev.6TL.....
   12d50:	042f ff48 704e ff55 32c1 0142 105d ff34     /.H.NpU..2B.].4.
   12d60:	6908 0086 6d0c ff48 9c3a 00fb 2390 00cc     .i...mH.:....#..
   12d70:	a02c fe75 6b32 00c2 4401 ffa5 6e6f 00a2     ,.u.2k...D..on..
   12d80:	539e fe28 d64c 00ea d83a ffcd 60ab ff93     .S(.L...:....`..
   12d90:	e328 0172 e3b0 00f1 f946 01b7 5488 ff8b     (.r.....F....T..
   12da0:	7a3c fef7 098f ff75 aeb1 fe89 f749 008f     <z....u.....I...
   12db0:	b9ec ff7e 193e fff7 402d ff38 f4a1 0006     ..~.>...-@8.....
   12dc0:	3922 0138 ca69 0053 9380 00d0 6706 ff0a     "98.i.S......g..
   12dd0:	8a4a ff41 5061 ff64 aed6 ff21 8632 ff4a     J.A.aPd...!.2.J.
   12de0:	976e fe82 546f 00ac c754 fe4b 3bf8 ff70     n...oT..T.K..;p.
   12df0:	d808 01b2 b709 005f 1bee fe08 cdaa 00dc     ......_.........
   12e00:	e5c3 0087 4c62 ffed 5be2 011a db52 ff27     ....bL...[..R.'.
   12e10:	bee1 01c7 c8d9 ff79 b351 ff08 418c 00ce     ......y.Q....A..
   12e20:	cfb2 fe57 fcfa ff2e 5968 016e bdfd ff9e     ..W.....hYn.....
   12e30:	d690 ff9e f5a0 ff36 b735 015c c815 ffc2     ......6.5.\.....
   12e40:	2192 0171 01d1 00ff 6aeb ff2b 34a7 00e8     .!q......j+..4..
   12e50:	e59d 00dd 1e33 0019 ddfa 011b 9341 ff57     ....3.......A.W.
   12e60:	7b4f 00c4 c441 ffdf 2c4c 0111 f155 0044     O{..A...L,..U.D.
   12e70:	b7ca fff9 d441 ffd4 2109 019a 3b47 0050     ....A....!..G;P.
   12e80:	c2af ff3b 488d 0009 a064 00f4 d0e6 0038     ..;..H..d.....8.
   12e90:	193b fe4b c250 00c2 0312 fec8 9fa0 0073     ;.K.P.........s.
   12ea0:	8f84 01f7 5d6f ff39 ed3a 010b de86 ff87     ....o]9.:.......
   12eb0:	a37a 016c 2b7b ffbe bdfb fece b650 ff48     z.l.{+......P.H.
   12ec0:	f6d0 01e0 3c11 0009 cfa1 0026 6d8d 005b     .....<....&..m[.
   12ed0:	0fd8 ffd3 4e88 006e a362 ff68 5015 ff79     .....Nn.b.h..Py.
   12ee0:	b2ad 01b7 8f7f 0004 3c68 fe52 10d6 ff0d     ........h<R.....
   12ef0:	ee60 0121 949e ffe6 817f ff3e ff33 ffd2     `.!.......>.3...
   12f00:	8d3e feec 379d ffe0 2772 00f4 bcc0 fffa     >....7..r'......
   12f10:	4ce4 0035 5462 ff51 cbad fe3d 3293 ff37     .L5.bTQ...=..27.
   12f20:	ebcc 00bf c534 00f4 2b58 fed3 bf1b 0077     ....4...X+....w.
   12f30:	e7bc 009a 5142 00a1 c15c 01a0 e3fa 0078     ....BQ..\.....x.
   12f40:	377b 00e2 11b8 0048 a885 fe0a 8716 ff9c     {7....H.........
   12f50:	1929 ff67 ca30 003a 95ba ff51 86bc 00ef     ).g.0.:...Q.....
   12f60:	b5eb febd 8bd9 ffbc 304a 0052 da2e 00e5     ........J0R.....
   12f70:	fdbd 00fb e532 ff0c 8dd3 01bf f480 ff19     ....2...........
   12f80:	e7a9 fe7a 2f56 ffbd b784 ff17 b225 ff96     ..z.V/......%...
   12f90:	8933 00fd 4ec8 001f 6916 0032 3c82 0000     3....N...i2..<..
   12fa0:	a384 fe5b e717 00bb 4fc0 00ef 669d ffa4     ..[......O...f..
   12fb0:	52c0 0114 b518 ff67 09f0 00ea 7b01 ffa4     .R....g......{..
   12fc0:	e985 ff00 f2ca 00f2 ba3c 00f5 10f1 ffc7     ........<.......
   12fd0:	74e0 fe9e 7dbf ff5b 56e0 00cf 2579 ffe7     .t...}[..V..y%..
   12fe0:	09e3 ffc6 990f ffef e879 fed9 704b 0052     ........y...KpR.
   12ff0:	0c5f fe39 d633 ff69 dc94 0161 62c7 0024     _.9.3.i...a..b$.
   13000:	d19c fe0c d40a 0034 b4d9 fe37 aad4 ffe8     ......4...7.....
   13010:	14d8 ff54 fa9d 0087 639d fe7f ce01 0029     ..T......c....).
   13020:	2495 0146 c436 ffc9 7457 fe00 abeb 0096     .$F.6...Wt......
   13030:	a31b 00ea 87ca 00b4 5fd0 fe00 9c7b 005d     ........._..{.].
   13040:	3eb7 004b eb89 00b6 e1cc ffff 8bd6 ffd2     .>K.............
   13050:	7302 ff08 0c1d 006f 9c34 0001 15fd fffb     .s....o.4.......
   13060:	a525 fe1f 820c 00d3 126a fe35 632a 009a     %.......j.5.*c..
   13070:	d90e fe3d 0bd8 ff5c c5c8 fe70 2693 00c7     ..=...\...p..&..
   13080:	fc24 fe78 a96b 004d 7b01 ff9f 4bcf 0066     $.x.k.M..{...Kf.
   13090:	afa3 00c4 012c 00f0 ba78 feb0 620d ff4c     ....,...x....bL.
   130a0:	7ced fff1 92e8 ffbc 60c8 00e0 1fcc 0029     .|.......`....).
   130b0:	c8d0 000d e115 ff60 9caf 00c4 d0f7 007e     ......`.......~.
   130c0:	b83e fef4 ab02 0051 7355 009e 4036 ff2d     >.....Q.Us..6@-.
   130d0:	8a13 0072 4787 00cd 2fe3 0193 e7da 0042     ..r..G.../....B.
   130e0:	d1fd 001c 0ff4 ffad 0f06 fe76 9610 ffd0     ..........v.....
   130f0:	16b9 ff32 7056 ffcf 714b 01d7 923f ff2b     ..2.Vp..Kq..?.+.
   13100:	e104 fe13 17e3 ff3e ff0e fed6 082d ffcd     ......>.....-...
   13110:	c557 fe97 52d2 ffd7 f8f5 fff7 f880 0046     W....R........F.
   13120:	f7e1 0057 785a 0046 f5d5 005c 850d 00e2     ..W.ZxF...\.....
   13130:	b52f 0105 a35c ff69 1e06 fe85 b2e8 ff3d     /...\.i.......=.
   13140:	95e6 ff18 3112 009e 64e4 fe3d f374 fffb     .....1...d=.t...
   13150:	4b4d 015c db51 ff93 a34c fefe d58d 00f6     MK\.Q...L.......
   13160:	25e8 fe98 2c61 0064 25c9 0132 f4d4 0039     .%..a,d..%2...9.
   13170:	abae ffb7 4af9 0070 9ca6 001e ddde ff61     .....Jp.......a.
   13180:	5df3 fe49 65fb ff64 d9d8 ff5d 8afe ffbb     .]I..ed...].....
   13190:	be8e ff34 cb3b ffb1 5ec8 0034 7273 ff9e     ..4.;....^4.sr..
   131a0:	98a5 0168 637e ffe2 9d76 01f4 c86b 0010     ..h.~c..v...k...
   131b0:	5ac1 00e5 0679 0058 209c fe5d f17d ffd3     .Z..y.X.. ].}...
   131c0:	ed0e ff9d 9aa5 ff15 e0b8 ff16 18fa ff98     ................
   131d0:	4d71 001f abf7 ff17 b1ed ffcc 8934 ff91     qM..........4...
   131e0:	b6c2 0072 eae0 0095 6f0a 0167 81c9 0004     ..r......og.....
   131f0:	8eee 004e 0634 ff28 d56e fea5 cf3c 00fd     ..N.4.(.n...<...
   13200:	d73e 0045 6160 ff00 2d31 00ca 7978 ff16     >.E.`a..1-..xy..
   13210:	8beb 0130 2dc6 ff22 32b6 011b d283 ff5b     ..0..-"..2....[.
   13220:	362e 0080 7baf ff69 8dc6 fe4e f443 ffef     .6...{i...N.C...
   13230:	36f5 fe67 264e fff2 5c02 fef9 aefb ff57     .6g.N&...\....W.
   13240:	3f8b 0090 6c18 ff1b 6622 0112 1622 0098     .?...l.."f.."...
   13250:	e542 fe76 8f32 0063 a990 0195 1e76 0098     B.v.2.c.....v...
   13260:	08b2 0179 9f08 0012 655a ffe6 1d81 0077     ..y.....Ze....w.
   13270:	2444 010b b7e8 0037 ff17 ff60 29a1 ffc1     D$....7...`..)..
   13280:	8b3f 00de b30f 00f3 64ff ff0f 3552 0087     ?........d..R5..
   13290:	3989 0195 f063 ffaa e616 fee4 b431 ff52     .9..c.......1.R.
   132a0:	523d 002b f56e 00d9 7dc7 003d fd2e 0034     =R+.n....}=...4.
   132b0:	c58d 00db 9fd3 00c1 7937 fe69 14b7 0081     ........7yi.....
   132c0:	77a9 ffaa b2cb ff8b 2887 ffb6 0dac ffca     .w.......(......
   132d0:	b241 0094 cf08 002b 357a 017f a14a 0030     A.....+.z5..J.0.
   132e0:	d6e3 fe80 0b56 fff3 5664 0107 44f5 ff86     ....V...dV...D..
   132f0:	2b3d 0115 5498 ff5e 3cbe fefa 76ef ffe8     =+...T^..<...v..
   13300:	88d6 0125 4c71 ff6b 685d 0164 ce90 ff17     ..%.qLk.]hd.....
   13310:	966e 019a 67e4 00b9 31da fe32 4d87 ff8b     n....g...12..M..
   13320:	01b9 004e a100 ff94 1d61 ffe9 94cf ff95     ..N.....a.......
   13330:	a8a0 0000 805b ffab 1c06 fe13 6f0b 00f7     ....[........o..
   13340:	bb27 ff96 e88a 0095 3e75 ff44 d83f ffbc     '.......u>D.?...
   13350:	eaeb fe20 391d ffa0 0c19 01f1 3ca9 00bf     .. ..9.......<..
   13360:	8320 ff8d 9fed ff7b c55e fe5e fe74 ff03      .....{.^.^.t...
   13370:	b35c fe61 6179 ff5c 70aa 000e 9515 00f8     \.a.ya\..p......
   13380:	e3f8 0003 6050 006d c04b 014a 5a0c ffe2     ....P`m.K.J..Z..
   13390:	6aa1 0144 72d0 ff7f 2a72 feff 1a4a ff4a     .jD..r..r*..J.J.
   133a0:	b3f7 fe96 8c79 003c 4693 ffc8 28d6 ffa1     ....y.<..F...(..
   133b0:	bca1 ffc9 418d ff87 73f2 00fc 2f3e 00ca     .....A...s..>/..
   133c0:	95b4 feff 3782 00ed 11a5 ffba a90a 00c2     .....7..........
   133d0:	6d9c ffda 8c70 ff7b 8068 fedf 8eb1 ff6c     .m..p.{.h.....l.
   133e0:	2579 ffdb 4d80 ff12 6c6f 0117 c05b 004b     y%...M..ol..[.K.
   133f0:	f5ae ff16 ec04 ff3e 402b 0199 ade3 00fe     ......>.+@......
   13400:	7aed 0184 597f ffba 528e fe80 54fc 00ae     .z...Y...R...T..
   13410:	b35a 01b1 d6f3 ff57 3c67 ffa2 82d0 ff0e     Z.....W.g<......
   13420:	820b 008b 81ce ffdb d95e ff9d e6ef ffe6     ........^.......
   13430:	7374 fe9f 6ba4 005f da33 0102 7dd8 ffc6     ts...k_.3....}..
   13440:	ca8c fe80 5f0b ff44 0937 fe5d 99ae ff06     ....._D.7.].....
   13450:	accc 0060 a045 006e 26d5 fe31 501b 00d5     ..`.E.n..&1..P..
   13460:	7d76 0072 4646 ff43 8e0f ff49 7a83 ffb9     v}r.FFC...I..z..
   13470:	14f3 fe32 ed82 0028 9fd2 018c 97c5 ff41     ..2...(.......A.
   13480:	9954 0042 7ec3 005a ee10 01ec bb76 ff66     T.B..~Z.....v.f.
   13490:	1803 ff85 45bb 00e6 c538 015c 45d5 ff5e     .....E..8.\..E^.
   134a0:	8a50 01e5 07ce 00e6 6fde 01e6 e95b ff77     P........o..[.w.
   134b0:	5909 0107 6202 0001 4a94 ff85 f633 ffb4     .Y...b...J..3...
   134c0:	b1e4 0170 bd3a ff6c cbc2 feed d115 00c3     ..p.:.l.........
   134d0:	0a93 0123 9d56 00e2 a31f fe8b 0738 ff4b     ..#.V.......8.K.
   134e0:	5a3e 0074 3cb5 00a9 a28a fed4 a751 001f     >Zt..<......Q...
   134f0:	5acd ff70 7021 00e3 9753 0175 e0b1 ff49     .Zp.!p..S.u...I.
   13500:	90ae ffd9 cce6 ff4f 4d16 ffe8 4e72 00ea     ......O..M..rN..
   13510:	39e0 fe7e 3109 008d 93f2 01a5 b668 ff8c     .9~..1......h...
   13520:	84a7 010c 447b 007f 57e1 0127 6cfb 0008     ....{D...W'..l..
   13530:	c1c6 018f 8779 ffcf 16ac 0046 4432 ff74     ....y.....F.2Dt.
   13540:	af65 ff28 69f8 00e9 cba6 0007 c56e 00da     e.(..i......n...
   13550:	fed7 fe1a e2a8 00fd 8f1f 0060 670b 0029     ..........`..g).
   13560:	81b7 fecb f764 ff4a 7ed5 0084 93d2 002c     ....d.J..~....,.
   13570:	eac7 011b 2f94 00b5 5b9b 019e 6936 ffaf     ...../...[..6i..
   13580:	4e02 fe91 9a66 005f cf80 fe7f 7c34 ffec     .N..f._.....4|..
   13590:	5482 0047 f3dd 00d3 aa98 00cf 6ade 00c7     .TG..........j..
   135a0:	54b7 fe5e c85c ff38 b68a 0173 608e 0092     .T^.\.8...s..`..
   135b0:	8885 00e4 1261 0096 fb37 0042 668c 0004     ....a...7.B..f..
   135c0:	67ca 0097 131e fff8 b833 00cf c6ca 0059     .g......3.....Y.
   135d0:	c537 fee1 5fa9 fff9 4142 ff44 eabc 007e     7...._..BAD...~.
   135e0:	dfa6 0164 ef70 00f4 1790 00c2 273a 00b6     ..d.p.......:'..
   135f0:	2cf4 fe18 44af ffb3 7698 019a a2b0 0082     .,...D...v......
   13600:	72d9 fecc 7ead ff4e de21 ff1e 0224 ff5b     .r...~N.!...$.[.
   13610:	8f02 00f3 eb09 00d7 ab03 0197 d718 fff5     ................
   13620:	2fa8 fea4 92f1 00cf 8145 00b4 f344 0071     ./......E...D.q.
   13630:	3590 fe48 2dfb 000e 6e17 00a8 4444 ff4f     .5H..-...n..DDO.
   13640:	466e fe5f 5bae ff90 ce21 ff5f 2989 ff07     nF_..[..!._..)..
   13650:	bb13 fe99 ff23 ff70 9109 feb9 9d32 0025     ....#.p.....2.%.
   13660:	700b 0131 0866 ffbe f3ea 01a9 553c 0017     .p1.f.......<U..
   13670:	274a 00bd 3174 00ef d5ad 00d2 a12e ff6c     J'..t1........l.
   13680:	969f 0025 78c4 ffb9 6222 ff06 c399 ff3e     ..%..x.."b....>.
   13690:	e661 ff47 3d66 004c d41a ffec 61a4 0010     a.G.f=L......a..
   136a0:	3bc6 0092 17a3 00c4 1838 003d 62b5 00c1     .;......8.=..b..
   136b0:	93fb ffe5 bd62 ff18 362e ffce 52ea 00f6     ....b....6...R..
   136c0:	67b7 0126 3e6d 00cc f00a 00e0 1692 ff75     .g&.m>........u.
   136d0:	9a8e 0078 d445 0023 63d0 0176 ff79 ff03     ..x.E.#..cv.y...
   136e0:	0648 00c2 1175 ffc5 0f7d 0017 4f9a 0099     H...u...}....O..
   136f0:	5ed6 ffc5 37b9 ff93 fe3e fe4e 527f 0099     .^...7..>.N..R..
   13700:	666e ff3f 526c ffa1 bb69 01d4 8a50 0027     nf?.lR..i...P.'.
   13710:	ff3c ff5d 0c48 00ba fbd2 011f a7be ff90     <.].H...........
   13720:	2ce4 fe13 4380 00e8 f9d6 fe6b 9188 ff56     .,...C....k...V.
   13730:	2e84 00b0 bbbd ffe3 16d0 008c d3d9 0074     ..............t.
   13740:	5132 feba fa8b 001f 401e 01c6 9b87 0064     2Q.......@....d.
   13750:	cea0 fe17 a2bb ffd3 bc10 003f d0fe 0031     ..........?...1.
   13760:	5455 00bf c0f1 fff2 7e99 0191 a2ea ffa2     UT.......~......
   13770:	61e6 01d8 8740 007e 94be 01df 0034 ff2b     .a..@.~.....4.+.
   13780:	271c 01bd 8840 00ee c4af 00b9 e262 ffd5     .'..@.......b...
   13790:	9f7f 01f4 afe2 003c e9a0 018e f3b4 ffcf     ......<.........
   137a0:	9845 0159 651f 0015 1990 fea4 bf8b 00d1     E.Y..e..........
   137b0:	195b 0079 9320 0005 ba27 ff7b 733f ffe6     [.y. ...'.{.?s..
   137c0:	a75d ffc6 d58f ffdc 9cb3 ff13 4219 007a     ]............Bz.
   137d0:	a0d6 ffd9 2d02 ff3e 4f6a fe92 8933 ff63     .....->.jO..3.c.
   137e0:	6457 ffe7 91af ffe8 b865 ff01 09ae 007d     Wd......e.....}.
   137f0:	2552 01a1 7224 ff8d de30 ff8e baf5 009a     R%..$r..0.......
   13800:	ae05 fedd 723f ff9b 3787 01a0 1f50 0087     ....?r...7..P...
   13810:	fa7e 01b3 daec 002d 1c14 0191 9310 0049     ~.....-.......I.
   13820:	bdf9 0184 bd11 ffc0 8edf ffc6 1448 ff0f     ............H...
   13830:	35fa feed 0b0f 0012 d31b fe71 6bd5 ff38     .5........q..k8.
   13840:	93ae ff92 7e60 0030 c117 016d a225 005e     ....`~0...m.%.^.
   13850:	9dc7 fef9 8018 ffbb 31cd feb2 a45d ff2a     .........1..].*.
   13860:	772b 01eb b758 ffed d2da ff01 fe6b 002a     +w..X.......k.*.
   13870:	0ae6 ff63 00a2 00e2 eddb 005b b281 00cb     ..c.......[.....
   13880:	32d0 fe5f d0ce ff5f bff7 fe59 ea6e ff4f     .2_..._...Y.n.O.
   13890:	3da5 00f3 7a14 ff70 f6f6 feb9 0467 007b     .=...zp.....g.{.
   138a0:	63e9 01e6 5bdb fffc dec7 ff16 f5b3 ffe9     .c...[..........
   138b0:	f1d3 00ea fa6f ffc0 5455 0088 3a65 ff32     ....o...UT..e:2.
   138c0:	ad83 fe9c 2d77 ff33 e976 fe10 5af2 00d6     ....w-3.v....Z..
   138d0:	9f5e 01db 0303 ffea 4c62 fe5c 3650 00e6     ^.......bL\.P6..
   138e0:	e405 fee7 1835 ffdf 3871 0176 8414 ff01     ....5...q8v.....
   138f0:	d2ab 00ec f138 ff9e 73ba ff13 e508 00ae     ....8....s......
   13900:	2c30 0100 7272 ffa6 4906 ffe2 59cd 00f4     0,..rr...I...Y..
   13910:	e389 014b adf8 0038 784a fef6 0377 ff0b     ..K...8.Jx..w...
   13920:	7851 ffc6 7a88 ff62 f192 01dd c26d ff4e     Qx...zb.....m.N.
   13930:	f1df 0146 c8d6 ffa9 be61 ff2f 672f ffae     ..F.....a././g..
   13940:	5c63 fe48 e976 ffb4 23c1 fee9 e51a ff20     c\H.v....#.... .
   13950:	fcde 00c6 2bcc ff47 54c7 00ac 6686 00be     .....+G..T...f..
   13960:	ee6f fe61 28e6 00e6 cde3 fe40 0cc8 00e1     o.a..(....@.....
   13970:	19a6 00de 4571 ff33 9f8f 0018 b8a7 004a     ....qE3.......J.
   13980:	e01d fe74 d09e 00e9 74c1 ff7e 0bd4 ff85     ..t......t~.....
   13990:	3a16 018c 24cc ff33 1ee8 002b 46eb ffb5     .:...$3...+..F..
   139a0:	3840 fe92 12a9 ff54 01e2 ff0d 32c8 ffb0     @8....T......2..
   139b0:	d534 fef5 d1a8 0061 47bf 0037 4e22 009c     4.....a..G7."N..
   139c0:	90e8 013a 4ab9 00bd 8eba fe95 4540 ff7f     ..:..J......@E..
   139d0:	cba1 ff93 97b0 00bf e788 fecb b6a3 0089     ................
   139e0:	7ea1 fefb 20e9 0042 cf44 0042 1c1e 0025     .~... B.D.B...%.
   139f0:	725d 0160 5cfe fff7 ab2c 0045 77ca ff0b     ]r`..\..,.E..w..
   13a00:	76bc 0132 53ff ff88 5247 001a e346 0002     .v2..S..GR..F...
   13a10:	eb20 0179 29b5 009a 8647 fee5 ffca 0024      .y..)..G.....$.
   13a20:	9829 0005 3f9a ff49 b622 007c dd79 ff96     )....?I.".|.y...
   13a30:	cc1a 01d5 ac29 0057 9d5a ff92 826d 0014     ....).W.Z...m...
   13a40:	6b47 ffc8 66f3 00bd c301 fe91 582e 0075     Gk...f.......Xu.
   13a50:	ce08 00e3 6ebf fffd 806d fe14 5586 ff33     .....n..m....U3.
   13a60:	b189 0170 22d8 ff16 1083 ffd0 9579 00aa     ..p.."......y...
   13a70:	1372 0117 50a6 ff1f f071 007a b3e8 00fa     r....P..q.z.....
   13a80:	6e44 feb4 aad2 0077 6cdf ffa4 4fcf ffe9     Dn....w..l...O..
   13a90:	e51b fee2 62d1 ff51 444f 0007 b983 0064     .....bQ.OD....d.
   13aa0:	1daa ffa2 a211 ff6b 1539 010b c864 ffb5     ......k.9...d...
   13ab0:	417f 01a6 86a5 00cc a768 00a8 a401 004f     .A......h.....O.
   13ac0:	8792 013b 3246 ff80 7766 fe0d 06e3 0087     ..;.F2..fw......
   13ad0:	8ea2 ffb3 64a0 00de e01b 01db 5d9e ffc3     .....d.......]..
   13ae0:	8dea 0089 1810 ff7d ceee ff2f 1161 ff62     ......}.../.a.b.
   13af0:	6e74 ff0c 7360 004d e35b ffe8 fef8 ff4f     tn..`sM.[.....O.
   13b00:	e55c fe06 c658 008b 4bce 0081 4dfa ffce     \...X....K...M..
   13b10:	f48d 017b 458a 00dc 9720 0106 a783 ff16     ..{..E.. .......
   13b20:	44ed fea7 bdc7 0096 aba3 ff8a bc33 ff06     .D..........3...
   13b30:	1d5f fe89 e294 00b3 6bb5 ffd0 1f86 ff52     _........k....R.
   13b40:	6597 ff2d ca81 00e1 48e0 0093 8a30 ff97     .e-......H..0...
   13b50:	40c3 fece daed 009e 1d6a fe89 bdfd ffe9     .@......j.......
   13b60:	0f67 ff11 61c2 00ff 2db2 fea9 e1c6 009b     g....a...-......
   13b70:	3027 ff75 6a87 0073 2661 00b5 2f96 ff41     '0u..js.a&.../A.
   13b80:	8253 fee5 26f6 0081 ef5c fe9a 635b 007f     S....&..\...[c..
   13b90:	6fa1 ff21 d9ee fff2 b983 ffc3 bfd5 ff9e     .o!.............
   13ba0:	9629 00da a984 0083 5459 01fc 46ab ff80     ).......YT...F..
   13bb0:	f8a3 fecb 3201 ffb4 4c7c 0155 6ffb 0050     .....2..|LU..oP.
   13bc0:	4263 ffef ed9a ffb6 7edd fe85 cc4a ff63     cB.......~..J.c.
   13bd0:	9341 ff77 3863 ffa7 f84f ff95 9b74 ffe4     A.w.c8..O...t...
   13be0:	2bed fe0e 8945 ff0b fa16 01f1 7a5b ff8f     .+..E.......[z..
   13bf0:	f9cd 00f3 1ad4 ff3c b630 01b0 1730 ffbf     ......<.0...0...
   13c00:	79cb fe98 4a2d ffd5 5a3e fe12 a3f5 ffe6     .y..-J..>Z......
   13c10:	6ab9 ff74 2353 009f 210c ff02 2250 003e     .jt.S#...!..P">.
   13c20:	5710 ffae 65ad 0055 24ca fe51 45a0 ffcc     .W...eU..$Q..E..
   13c30:	e140 00bb ce3a 005e 9056 002f 56e5 00f5     @...:.^.V./..V..
   13c40:	913f 01be 0525 0027 fb6d 001a 9389 00ea     ?...%.'.m.......
   13c50:	79a2 ff91 7490 ffce e8c5 ffb9 beb7 ff8c     .y...t..........
   13c60:	0c49 fffe 148b fff2 5aaa ffef 4261 ffbb     I........Z..aB..
   13c70:	b5f5 fe87 88de 0034 05f5 fe33 2fcb 004e     ......4...3../N.
   13c80:	6598 00d8 1749 007d 60fe 0121 d2eb ff49     .e..I.}..`!...I.
   13c90:	d12b 0158 8107 006d 687a fee4 f2aa 00cb     +.X...m.zh......
   13ca0:	ccf2 ff87 1cca ffe9 0641 007f 909f 0047     ........A.....G.
   13cb0:	8c64 005f 964e 000d 6bfb 0176 3ab6 ff7d     d._.N....kv..:}.
   13cc0:	2601 ff6c bd8d ffd1 9b08 017d a371 ff5b     .&l.......}.q.[.
   13cd0:	4f79 ffbe ef86 ff6c 2f4c 00f8 e4a3 00ef     yO....l.L/......
   13ce0:	6f11 000a 9558 ff4b ebd7 00ef 9fa7 ff18     .o..X.K.........
   13cf0:	972f ff6c d16b 00bc e7e9 fe63 ca1c ff94     /.l.k.....c.....
   13d00:	23ae ff8a 186e ff44 4502 00b5 666b 0052     .#..n.D..E..kfR.
   13d10:	ed66 0007 245c ffed a2dd 0153 ca37 ff06     f...\$....S.7...
   13d20:	ea87 ff87 fa18 00de 5e41 fea8 f8f5 ffd2     ........A^......
   13d30:	6ca7 fec9 a1ff 006f 08cd 00fe 0d88 0074     .l....o.......t.
   13d40:	b064 ff84 d72b ff7e 85b1 ff82 4f9e 0094     d...+.~......O..
   13d50:	e043 0125 ce0c ff15 223e 016e 68ed ffaf     C.%.....>"n..h..
   13d60:	8450 ff6f ae8e 0048 e554 feb4 b369 008c     P.o...H.T...i...
   13d70:	f840 ff0f 8ae9 0010 43f5 fe7b 79da ffd4     @........C{..y..
   13d80:	5f3f 01da 85d5 ff89 b68f ff52 1c30 000b     ?_........R.0...
   13d90:	72f4 018d afd1 ff4c b59d ff96 e5ba ff03     .r....L.........
   13da0:	9da4 016f bde7 008b ca77 ffbe 6ada ff40     ..o.....w....j@.
   13db0:	eb44 fe3f 1a60 ffac 2fbb 010b 12d7 fffb     D.?.`..../......
   13dc0:	5451 0059 3a44 0080 715e 0105 815c ffd0     QTY.D:..^q..\...
   13dd0:	0f61 fe53 1c09 00bc 09ef 00a4 cd3c 0098     a.S.........<...
   13de0:	a3c0 ff62 12b8 003c b6d9 008b 3b6d ff78     ..b...<.....m;x.
   13df0:	c004 00fb d2a9 fff0 ac25 fe5c d394 fff5     ........%.\.....
   13e00:	41b3 0034 0dfd 0073 aeb9 01ce bc72 ff95     .A4...s.....r...
   13e10:	5aed 00ad c72b ffc0 6c58 0071 2334 004c     .Z..+...Xlq.4#L.
   13e20:	1942 ff94 04dd ff07 f197 ff72 d1be 00e8     B.........r.....
   13e30:	3262 00c7 9697 ffd5 4a12 0124 2835 0007     b2.......J$.5(..
   13e40:	8713 ff41 ac1a 0045 edae 0055 5f63 0029     ..A...E...U.c_).
   13e50:	3803 0010 a027 ffb1 6ac8 feda 44b9 ff54     .8..'....j...DT.
   13e60:	ba5b fe3d 8f43 ff8d f40d ffa6 7263 00c6     [.=.C.......cr..
   13e70:	6ec7 ffa3 12c1 00ba ef7c 01f6 446e 0016     .n......|...nD..
   13e80:	eb02 012e 3cd4 006b 2a69 0169 e60e 0098     .....<k.i*i.....
   13e90:	0507 0083 688d ff9a 03d5 0006 e483 ffa2     .....h..........
   13ea0:	64b3 011c 7be7 ff55 0ece 01df 60fd 00e6     .d...{U......`..
   13eb0:	9826 0195 8962 007a cdd6 ff03 98e2 ffb3     &...b.z.........
   13ec0:	8506 0089 459e ff8c a271 ff9a f3b4 ffac     .....E..q.......
   13ed0:	bd1b ff73 2e8f ffdc 86d5 ffe1 1d7e 0045     ..s.........~.E.
   13ee0:	2bbc 0189 46f2 0009 cc5a ffff aae7 0093     .+...F..Z.......
   13ef0:	3817 fe13 7d38 ff9d b330 ffda b64f fffd     .8..8}..0...O...
   13f00:	d426 01bf eb29 007c 9760 001c 9487 00be     &...).|.`.......
   13f10:	f9cd fe27 6034 ff88 2cd4 ff88 d143 ff83     ..'.4`...,..C...
   13f20:	82fc ff17 80db ff14 81c6 0076 656c 000b     ..........v.le..
   13f30:	05b2 0192 073e ff64 ecb5 fe5e 1a1c 00a4     ....>.d...^.....
   13f40:	164c ff70 6678 004f c0ca 01e5 b0c8 00d7     L.p.xfO.........
   13f50:	4029 fff4 b8ce 004e 2da7 013f 23a0 ff00     )@....N..-?..#..
   13f60:	0c3b ff8e 09cc ff90 5edb 01e5 1b7a 0070     ;........^..z.p.
   13f70:	69bd ff6d d040 ff4a 7ffb 0137 e202 00c6     .im.@.J...7.....
   13f80:	4c2c 00d1 9897 ff4d 17d2 012e abc9 ff45     ,L....M.......E.
   13f90:	d32c 00e7 25be ffe0 c4f5 ff3e b5a9 ffde     ,....%....>.....
   13fa0:	d322 0011 f177 ffc5 23e5 0198 4515 ff28     "...w....#...E(.
   13fb0:	e2b2 00a1 b394 00c1 c2db 01fe ce28 ff33     ............(.3.
   13fc0:	5ce7 01fa 9943 00aa 9415 00f1 45aa ff52     .\..C........ER.
   13fd0:	1279 ffe7 725c 0003 3eb8 00e6 c9e1 ff57     y...\r...>....W.
   13fe0:	6092 ffa2 f2b5 00dc bbad 01dd 3ee2 ffaa     .`...........>..
   13ff0:	7e38 01d9 0d75 ffe3 2cb3 00ef 8d9d ff9b     8~..u....,......
   14000:	dd90 0053 d1eb 00d0 112a 01a5 51fb 0085     ..S.....*....Q..
   14010:	f57c fec9 d361 ff18 d653 00a6 249a ff09     |...a...S....$..
   14020:	2ff8 007f db5a ff8c d9a1 fe26 93d4 ff3f     ./..Z.....&...?.
   14030:	5442 0194 03cf 0001 86e6 0159 4e7f ff7a     BT........Y..Nz.
   14040:	9be0 ff01 8852 004a 9cb2 ffd0 19ba ff31     ....R.J.......1.
   14050:	03de 01d2 96e5 ffbe a255 ff34 5429 ff8d     ........U.4.)T..
   14060:	7b49 fe54 115d 0096 1377 011c 1620 ffd7     I{T.]...w... ...
   14070:	171c ffcc f18e ff34 34e4 007d 4c1d 00cf     ......4..4}..L..
   14080:	a7d7 fefa a4af 00e6 cf37 0169 bb6d fff5     ........7.i.m...
   14090:	2ca1 01dc 6529 ff80 10a7 005e d65d ff6b     .,..)e....^.].k.
   140a0:	4876 fe00 3d50 ffea af79 007d a98b 00fb     vH..P=..y.}.....
   140b0:	2761 fe93 c4fa ff31 b3a5 fe6e 46df ffbb     a'....1...n..F..
   140c0:	8e16 017d b39a ff8a b076 012a ae0a 0099     ..}.....v.*.....
   140d0:	5c9c 0066 0da8 ffa1 108f 0020 c5fa ffb4     .\f....... .....
   140e0:	a3cb 012c 2057 0024 99a1 ff14 fc7b 000f     ..,.W $.....{...
   140f0:	e319 0050 583c 008e 1611 01c9 cd9a ff4d     ..P.<X........M.
   14100:	3f27 002f 7a08 008d 1780 feb6 27cc ff13     '?/..z.......'..
   14110:	7004 ff1d 2417 ff8c ead2 fe74 3235 ff3f     .p...$....t.52?.
   14120:	ab79 ff68 dba0 005e 5257 fe0e 2ae7 0005     y.h...^.WR...*..
   14130:	8ba5 fe7f 4e56 0026 3c82 fe42 1ecb ff2d     ....VN&..<B...-.
   14140:	c42e 017a 35f9 ffa2 8f88 fe67 d2d7 0072     ..z..5....g...r.
   14150:	07e7 fea0 98a9 ff2a 2d6f 00f6 838e ff87     ......*.o-......
   14160:	4783 ffcc e224 000b 1c00 fff2 8ae1 ffd5     .G..$...........
   14170:	2ef7 fed8 03f5 00b7 fc6c 014a 1ace ff30     ........l.J...0.
   14180:	36cd fff6 c6d3 ff24 2379 0032 d834 ffca     .6....$.y#2.4...
   14190:	8b26 fe81 49f2 0094 e743 ff8d 2f2a 00cc     &....I..C...*/..
   141a0:	744e 0119 e104 ffbf 9306 00e4 583a 00b1     Nt..........:X..
   141b0:	a57a ffe5 53fc ffc9 a7e0 0160 b8b1 ff9e     z....S....`.....
   141c0:	69f2 01b3 c6f8 00f0 4285 01cb 24fe 002f     .i.......B...$/.
   141d0:	182d ff73 3e77 00fe e1c4 feba 8d7b 00ac     -.s.w>......{...
   141e0:	551a ff29 6fe2 00b7 e7d5 0097 3b04 ff07     .U)..o.......;..
   141f0:	8aee 0094 9342 ff21 f61f ff8d 8dd1 ff74     ....B.!.......t.
   14200:	7068 001f a158 00ac d753 fee6 6f2f 0097     hp..X...S.../o..
   14210:	262d 0134 2d84 00cc 808a fe6d 75e9 ff86     -&4..-....m..u..
   14220:	bef3 fead ecf1 00f0 7f52 feec df28 ffa1     ........R...(...
   14230:	b66e ffe1 ae7b 00ef f287 0191 d133 009a     n...{.......3...
   14240:	0396 fe73 a4d9 fffc 9c37 0145 5e54 ffff     ..s.....7.E.T^..
   14250:	49e8 012d 1314 ffd4 c560 fe3b fb60 0021     .I-.....`.;.`.!.
   14260:	c726 0149 ac40 fff7 7475 ff38 11e4 0012     &.I.@...ut8.....
   14270:	8a3e 0167 e5f6 ffa4 76f4 fec9 2056 ff9f     >.g......v..V ..
   14280:	226d 0189 d355 00ba c10a fec1 c27a 00b1     m"..U.......z...
   14290:	ee7a ff66 daa2 00ab d96c 01a1 aa9e 0022     z.f.....l.....".
   142a0:	2fb0 019b e4b5 ff0b 9c08 0000 4b10 005d     ./...........K].
   142b0:	62ce 01ff 9a3a 0023 f30c feb8 7543 ff42     .b..:.#.....CuB.
   142c0:	e5e6 007b 2ac9 006e e486 feb2 6cba ff76     ..{..*n......lv.
   142d0:	133a ff9a a952 ff3e 8f72 0173 c4ef ff32     :...R.>.r.s...2.
   142e0:	30ad ffc1 0293 ff54 8696 fe93 e85f 0049     .0....T....._.I.
   142f0:	e36d fe34 89bf 000a cc28 fe1e 344c ff61     m.4.....(...L4a.
   14300:	eba4 007e 7cfe 00bc b64a 0115 1d79 ff23     ..~..|..J...y.#.
   14310:	1ef1 fe07 da55 ffd6 5407 fe96 1b51 ff75     ....U....T..Q.u.
   14320:	9fa0 fe98 1842 ffdd 0ae3 013c 878d 0066     ....B.....<...f.
   14330:	bdd0 0196 b375 005c 1684 ff88 c778 001c     ....u.\.....x...
   14340:	8115 fe4f 09b6 0041 a3da 00a9 93f6 ffc6     ..O...A.........
   14350:	266b 0190 af4e ffcd 05d6 fefa 582f ff1d     k&..N......./X..
   14360:	2fa4 ffcc 372b ff06 8683 fecf 6474 00d6     ./..+7......td..
   14370:	8c60 014b dc6a 0090 20c3 011c 51ac ff05     `.K.j.... ...Q..
   14380:	b3c7 ff34 5425 00cb 70aa 00ae 040b 005b     ..4.%T...p....[.
   14390:	f445 011b 8375 005c 9821 ffaf 998c ff6b     E...u.\.!.....k.
   143a0:	87fb fe2b 8a57 ff04 eac6 fe93 9879 ff54     ..+.W.......y.T.
   143b0:	65cd 019b 099d 0019 6a48 fe11 996c ff00     .e......Hj..l...
   143c0:	e5bd 00ba 08c1 ffb0 95ae 00d1 82ee 001d     ................
   143d0:	d6e9 017e e23d 0066 a339 0104 6fc6 ff33     ..~.=.f.9....o3.
   143e0:	4f2d 014e d273 ff0a 09da ff19 8b9e ffc6     -ON.s...........
   143f0:	52d3 febb 8550 0053 819d 01e6 85f3 ff86     .R..P.S.........
   14400:	8828 0010 6b4d ff4f 55b7 015c ccb1 00ca     (...MkO..U\.....
   14410:	47a3 ff93 4598 00be 33ac 01bc d2fa ffac     .G...E...3......
   14420:	f2d3 0171 5959 ff1a 4240 fe6f 9874 002a     ..q.YY..@Bo.t.*.
   14430:	27a1 ff1b 5036 00fe d16a 0173 7c67 0061     .'..6P..j.s.g|a.
   14440:	e6dd ff62 e71f 0006 c0b2 fe78 d90f ffcb     ..b.......x.....
   14450:	9e7c 004f 9170 00f7 fa5c 0130 b5a3 ffc1     |.O.p...\.0.....
   14460:	2f25 fe8e bd90 ffa5 922e 00f0 4b06 0080     %/...........K..
   14470:	9d29 fec8 7957 00d5 7101 00ec 2d05 00fa     )...Wy...q...-..
   14480:	0c90 0052 6c1f 00e7 efe1 ff77 07a7 ffbd     ..R..l....w.....
   14490:	e4bb ff84 bd6e 0022 2c5e 01cc 34a2 00c5     ....n.".^,...4..
   144a0:	bc4e fef1 1439 008d 92f4 012f 64ce 0033     N...9...../..d3.
   144b0:	6b7d fe94 c31b 004d fd98 015a 8f07 ff90     }k....M...Z.....
   144c0:	2533 001f 7722 ff26 c507 0076 bc99 00d3     3%.."w&...v.....
   144d0:	1497 fe74 41f5 ff34 fdb4 016e b12f 00d1     ..t..A4...n./...
   144e0:	63a1 ff11 de76 00ca b37d 01fc 367b ff7e     .c..v...}...{6~.
   144f0:	3991 00bf ba37 0079 f30a 008a d3cd ffe5     .9..7.y.........
   14500:	9c7d fef1 9c94 ffb9 13e3 ffbc 297c ff20     }...........|) .
   14510:	221f fece 3911 0053 16cc ff25 602a 0062     ."...9S...%.*`b.
   14520:	6677 01b8 be03 001c 526e ffda ccc8 ffc0     wf......nR......
   14530:	91c9 0076 cc75 0092 2084 0162 c2c0 0079     ..v.u.... b...y.
   14540:	a16a 01f8 58ed 007c d417 001a abcd ff5a     j....X|.......Z.
   14550:	30f8 01d8 258d ffe6 cb7c fe00 a89e ff1e     .0...%..|.......
   14560:	f8d6 0015 bb70 ff07 854b ffef e34a fff3     ....p...K...J...
   14570:	93fa 0046 78d6 00a2 09a7 ffb3 9e16 0012     ..F..x..........
   14580:	4dda 01d1 6d61 ff51 21f4 ffb3 3439 ff39     .M..amQ..!..949.
   14590:	ac41 ffd2 47f9 ffd1 a98e 00ee bd9e ff99     A....G..........
   145a0:	feae fe67 2162 000e 4c8d ffe6 8b71 ff34     ..g.b!...L..q.4.
   145b0:	3a0f 00d4 d7a8 ffc9 ccf8 01d7 44df ffa0     .:...........D..
   145c0:	9a39 feb7 e72f 0079 a66a 0089 8851 008a     9.../.y.j...Q...
   145d0:	2ba5 0033 8be7 003d 5f39 fe3b 6276 ff19     .+3...=.9_;.vb..
   145e0:	3f97 01ec be5e fffa b9a9 0172 fa05 ff3a     .?..^.....r...:.
   145f0:	694b 0161 dfd7 0086 6371 01a3 3e80 0070     Kia.....qc...>p.
   14600:	6a63 0093 c3a3 000a cd21 00b6 0ed6 ffae     cj......!.......
   14610:	2681 ffe7 b635 00df 2a62 ff9f 0df7 0028     .&..5...b*....(.
   14620:	d2bc 01b1 1506 ff00 3dff fe94 2d89 ff81     .........=...-..
   14630:	1a59 fe74 267e 0072 32fb fef2 8679 ff80     Y.t.~&r..2..y...
   14640:	f9cc fea7 eba5 00d7 b1ca 00f3 8d85 003e     ..............>.
   14650:	82f0 01be af6e 00ff 1400 0192 d225 ff79     ....n.......%.y.
   14660:	2707 0082 fa8e ff54 c88d 00cf 5f09 ff68     .'....T......_h.
   14670:	f40b 00ae e886 007e 01a7 fe7b c110 ff95     ......~...{.....
   14680:	e9e8 01ef 46d5 ff70 74fc fea0 def2 ffdc     .....Fp..t......
   14690:	55cd 00e3 b907 003a f776 013f 4d74 ffb1     .U....:.v.?.tM..
   146a0:	f53e fec8 123f ff25 356b fee8 dd32 00d3     >...?.%.k5..2...
   146b0:	dba2 fe07 5e02 002b 3eb6 feb6 4ea0 ffc8     .....^+..>...N..
   146c0:	8c87 00aa b8eb 00e4 35af fe8a 3a50 ff4d     .........5..P:M.
   146d0:	c998 0102 c43f 0022 1e05 00b8 b0ab 009a     ....?.".........
   146e0:	3b79 00ce 6326 0027 50ac fe4d 8600 0097     y;..&c'..PM.....
   146f0:	21ba fef1 fd5e ffdf 722c 00fc 7e6c ff39     .!..^...,r..l~9.
   14700:	28c9 ff0d e527 ff1b ef27 0117 7997 ff33     .(..'...'....y3.
   14710:	9699 00f8 ea0a ffae f676 fe04 f5c8 0026     ........v.....&.
   14720:	a145 01f2 b210 0096 3871 0082 1fab 0069     E.......q8....i.
   14730:	581a ff6c 2a31 006a a9fb 0042 5d45 0095     .Xl.1*j...B.E]..
   14740:	3914 00fe 19a4 006f bc5a ff5a 04cc 00c5     .9....o.Z.Z.....
   14750:	d528 0132 60d4 ff84 8a58 feb4 92e4 ff7c     (.2..`..X.....|.
   14760:	f6b8 00f7 7541 ff56 66fd fed2 79fe 0024     ....AuV..f...y$.
   14770:	7389 ff03 183c 00d8 1286 001d e23b 0061     .s..<.......;.a.
   14780:	8eb0 0047 d107 00a1 54bd fe33 fa9b 0048     ..G......T3...H.
   14790:	54d5 ffeb de2d 00e0 94ee ff8f 2aaa ff35     .T..-........*5.
   147a0:	a74e 0075 00ba ff28 b17d ff67 e145 0042     N.u...(.}.g.E.B.
   147b0:	07e3 0158 ac4b 0006 2da9 01e3 2410 ff46     ..X.K....-...$F.
   147c0:	0232 ff09 c18b 0016 b78f fee7 45da 0032     2............E2.
   147d0:	38ec 01a1 83d5 002a 918a fe2c e588 ff28     .8....*...,...(.
   147e0:	3f31 ff23 913d fff5 c065 fe02 a7e8 0071     1?#.=...e.....q.
   147f0:	6898 0126 b979 00da 8b79 fed3 f077 0023     .h&.y...y...w.#.
   14800:	bd41 fed9 b3bb ffa2 bba0 00e6 f83e ff0e     A...........>...
   14810:	4e3c 0061 f7ff ffa3 3be1 ff5b 476b ff3a     <Na......;[.kG:.
   14820:	2ff1 0121 7532 00ec b1db fe3f 5af4 00b3     ./!.2u....?..Z..
   14830:	c223 ffd7 43bd ff32 8717 0081 bd68 ff25     #....C2.....h.%.
   14840:	39b9 00c2 3e23 ffe7 f8dc 006c e70c 00b2     .9..#>....l.....
   14850:	508f 015b 5d83 ff65 2790 0102 faff 00b2     .P[..]e..'......
   14860:	1105 feec 208b 002e bccc fe26 73f5 ff34     ..... ....&..s4.
   14870:	71bf fe49 6cbf ff45 4516 01f5 cb17 00b2     .qI..lE..E......
   14880:	63aa 00aa f841 006f 6c25 ff99 2540 0045     .c..A.o.%l..@%E.
   14890:	5800 fe3e 9459 ff90 44bf 01e0 27f1 0035     .X>.Y....D...'5.
   148a0:	cb29 ffed 7e91 ffc2 2add fffd 6319 0097     )....~...*...c..
   148b0:	fd61 01df 734a ff31 af06 ff48 b03b 00cb     a...Js1...H.;...
   148c0:	b77c 01f9 e4e4 0063 0c81 fecf c0a8 ffc3     |.....c.........
   148d0:	b0cc fe10 ea98 00ab 254d ff55 7821 ff87     ........M%U.!x..
   148e0:	c28e 01e3 d61f 003a bbd5 ff7d 2ee8 ff3c     ......:...}...<.
   148f0:	74be fe2a b297 ff13 3e33 feed eccc 00c1     .t*.....3>......
   14900:	e8c2 003c 22ac ff9d 10bd feb8 0367 ff5f     ..<.."......g._.
   14910:	e98d fe24 1929 ff0b c315 00a6 f576 002d     ..$.).......v.-.
   14920:	d543 ff95 0c9f ff12 a4bb 01e3 19a0 0005     C...............
   14930:	4e0c 01c3 c52b 00e1 8e30 fe29 9bc4 ff3c     .N..+...0.)...<.
   14940:	c7df 0112 8891 009c 75fc fea9 e291 00ee     .........u......
   14950:	17ef 006b b56d ffbc 70e6 fe31 aa49 ffed     ..k.m....p1.I...
   14960:	b7e7 ffe3 dc50 0014 6bc2 017f cd7f 0065     ....P....k....e.
   14970:	342e 01c5 abd2 ff24 0358 ff5a 9738 008d     .4....$.X.Z.8...
   14980:	bb60 ffff 4e2a 00c8 46fe 0146 7df4 00a8     `...*N...FF..}..
   14990:	44cc 018a d77c 0046 4266 fec8 3411 00e4     .D..|.F.fB...4..
   149a0:	dc75 fe8f f8cb 007b 1238 ffae 97ba ffa4     u.....{.8.......
   149b0:	e833 01d0 e4a0 ff2b 1df9 0119 be44 003f     3.....+.....D.?.

000149c0 <d>:
   149c0:	78b6 ff59 7285 00d3 6ebd ff15 0a0f 006a     .xY..r...n....j.
   149d0:	c029 0001 e898 ff79 3cbc ffa0 7199 ffce     ).....y..<...q..
   149e0:	b700 fee2 0db4 ff48                         ......H.

000149e8 <d2>:
   149e8:	f159 feb2 e50a ffa6 dd7b fe2a 141e 00d4     Y.......{.*.....
   149f8:	8052 0003 d130 00f3 7977 ff40 e332 ff9c     R...0...wy@.2...
   14a08:	6e00 01c5 1b67 0090                         .n..g...

00014a10 <sqrtm1>:
   14a10:	a0b0 fe0e c9d3 ff86 189e 008f 697f 0035     .............i5.
   14a20:	0c60 00bd d7a7 fffb 4c9f fe80 656a ffe1     `........L..je..
   14a30:	fc1e 0004 0c92 00ae                         ........

00014a38 <K>:
   14a38:	ae22 d728 2f98 428a 65cd 23ef 4491 7137     ".(../.B.e.#.D7q
   14a48:	3b2f ec4d fbcf b5c0 dbbc 8189 dba5 e9b5     /;M.............
   14a58:	b538 f348 c25b 3956 d019 b605 11f1 59f1     8.H.[.V9.......Y
   14a68:	4f9b af19 82a4 923f 8118 da6d 5ed5 ab1c     .O....?...m..^..
   14a78:	0242 a303 aa98 d807 6fbe 4570 5b01 1283     B........opE.[..
   14a88:	b28c 4ee4 85be 2431 b4e2 d5ff 7dc3 550c     ...N..1$.....}.U
   14a98:	896f f27b 5d74 72be 96b1 3b16 b1fe 80de     o.{.t].r...;....
   14aa8:	1235 25c7 06a7 9bdc 2694 cf69 f174 c19b     5..%.....&i.t...
   14ab8:	4ad2 9ef1 69c1 e49b 25e3 384f 4786 efbe     .J...i...%O8.G..
   14ac8:	d5b5 8b8c 9dc6 0fc1 9c65 77ac a1cc 240c     ........e..w...$
   14ad8:	0275 592b 2c6f 2de9 e483 6ea6 84aa 4a74     u.+Yo,.-...n..tJ
   14ae8:	fbd4 bd41 a9dc 5cb0 53b5 8311 88da 76f9     ..A....\.S.....v
   14af8:	dfab ee66 5152 983e 3210 2db4 c66d a831     ..f.RQ>..2.-m.1.
   14b08:	213f 98fb 27c8 b003 0ee4 beef 7fc7 bf59     ?!...'........Y.
   14b18:	8fc2 3da8 0bf3 c6e0 a725 930a 9147 d5a7     ...=....%...G...
   14b28:	826f e003 6351 06ca 6e70 0a0e 2967 1429     o...Qc..pn..g)).
   14b38:	2ffc 46d2 0a85 27b7 c926 5c26 2138 2e1b     ./.F...'&.&\8!..
   14b48:	2aed 5ac4 6dfc 4d2c b3df 9d95 0d13 5338     .*.Z.m,M......8S
   14b58:	63de 8baf 7354 650a b2a8 3c77 0abb 766a     .c..Ts.e..w<..jv
   14b68:	aee6 47ed c92e 81c2 353b 1482 2c85 9272     ...G....;5...,r.
   14b78:	0364 4cf1 e8a1 a2bf 3001 bc42 664b a81a     d..L.....0B.Kf..
   14b88:	9791 d0f8 8b70 c24b be30 0654 51a3 c76c     ....p.K.0.T..Ql.
   14b98:	5218 d6ef e819 d192 a910 5565 0624 d699     .R........eU$...
   14ba8:	202a 5771 3585 f40e d1b8 32bb a070 106a     * qW.5.....2p.j.
   14bb8:	d0c8 b8d2 c116 19a4 ab53 5141 6c08 1e37     ........S.AQ.l7.
   14bc8:	eb99 df8e 774c 2748 48a8 e19b bcb5 34b0     ....LwH'.H.....4
   14bd8:	5a63 c5c9 0cb3 391c 8acb e341 aa4a 4ed8     cZ.....9..A.J..N
   14be8:	e373 7763 ca4f 5b9c b8a3 d6b2 6ff3 682e     s.cwO..[.....o.h
   14bf8:	b2fc 5def 82ee 748f 2f60 4317 636f 78a5     ...]...t`/.Coc.x
   14c08:	ab72 a1f0 7814 84c8 39ec 1a64 0208 8cc7     r....x...9d.....
   14c18:	1e28 2363 fffa 90be bde9 de82 6ceb a450     (.c#.........lP.
   14c28:	7915 b2c6 a3f7 bef9 532b e372 78f2 c671     .y......+Sr..xq.
   14c38:	619c ea26 3ece ca27 c207 21c0 b8c7 d186     .a&..>'....!....
   14c48:	eb1e cde0 7dd6 eada d178 ee6e 4f7f f57d     .....}..x.n..O}.
   14c58:	6fba 7217 67aa 06f0 98a6 a2c8 7dc5 0a63     .o.r.g.......}c.
   14c68:	0dae bef9 9804 113f 471b 131c 0b35 1b71     ......?..G..5.q.
   14c78:	7d84 2304 77f5 28db 2493 40c7 ab7b 32ca     .}.#.w.(.$.@{..2
   14c88:	bebc 15c9 be0a 3c9e 0d4c 9c10 67c4 431d     .......<L....g.C
   14c98:	42b6 cb3e d4be 4cc5 7e2a fc65 299c 597f     .B>....L*~e..).Y
   14ca8:	faec 3ad6 6fab 5fcb 5817 4a47 198c 6c44     ...:.o._.XGJ..Dl
   14cb8:	c908 f3bc e667 6a09 a73b 84ca ae85 bb67     ....g..j;.....g.
   14cc8:	f82b fe94 f372 3c6e 36f1 5f1d f53a a54f     +...r.n<.6._:.O.
   14cd8:	82d1 ade6 527f 510e 6c1f 2b3e 688c 9b05     .....R.Q.l>+.h..
   14ce8:	bd6b fb41 d9ab 1f83 2179 137e cd19 5be0     k.A.....y!~....[
   14cf8:	6c62 5f65 7872 0000 7562 7474 6e6f 0000     ble_rx..button..
   14d08:	656b 6679 626f 0000 656c 0064 656b 6279     keyfob..led.keyb
   14d18:	786f 0000 7061 0070                         ox..app.

00014d20 <app_ver>:
   14d20:	6544 6976 6563 203a 5442 3341 3032 5220     Device: BTA320 R
   14d30:	5645 412e 420a 6975 646c 203a 6f4e 2076     EV.A.Build: Nov 
   14d40:	3932 3220 3230 2035 3232 323a 3a38 3435     29 2025 22:28:54
   14d50:	0000 0000 7372 725f 0078 0000 2e2e 462f     ....rs_rx...../F
   14d60:	6572 5265 4f54 2f53 6f70 7472 6261 656c     reeRTOS/portable
   14d70:	4d2f 6d65 614d 676e 682f 6165 5f70 2e34     /MemMang/heap_4.
   14d80:	0063 0000 7265 2072 7461 6c20 6e69 2065     c...err at line 
   14d90:	6425 6f20 2066 6966 656c 2220 7325 2e22     %d of file "%s".
   14da0:	0d20 200a 0000 0000 2e2e 462f 6572 5265      .. ....../FreeR
   14db0:	4f54 2f53 6f70 7472 6261 656c 472f 4343     TOS/portable/GCC
   14dc0:	522f 5349 2d43 2f56 6f70 7472 632e 0000     /RISC-V/port.c..
   14dd0:	2e2e 462f 6572 5265 4f54 2f53 7571 7565     ../FreeRTOS/queu
   14de0:	2e65 0063 2e2e 462f 6572 5265 4f54 2f53     e.c.../FreeRTOS/
   14df0:	6174 6b73 2e73 0063 4449 454c 0000 0000     tasks.c.IDLE....
   14e00:	ba6c 0000 ba6c 0000 bab0 0000 babc 0000     l...l...........
   14e10:	bb00 0000 ba6c 0000 ba6c 0000 bab0 0000     ....l...l.......
   14e20:	babc 0000 6d54 5172 0000 0000 2e2e 462f     ....TmrQ....../F
   14e30:	6572 5265 4f54 2f53 6974 656d 7372 632e     reeRTOS/timers.c
   14e40:	0000 0000 6d54 2072 7653 0063               ....Tmr Svc.

00014e4c <__sf_fake_stderr>:
	...

00014e6c <__sf_fake_stdin>:
	...

00014e8c <__sf_fake_stdout>:
	...
   14eac:	2d23 2b30 0020 0000 6c68 004c 6665 4567     #-0+ ...hlL.efgE
   14ebc:	4746 0000 3130 3332 3534 3736 3938 4241     FG..0123456789AB
   14ecc:	4443 4645 0000 0000 3130 3332 3534 3736     CDEF....01234567
   14edc:	3938 6261 6463 6665 0000 0000               89abcdef....
